	.text
	.syntax unified
	.eabi_attribute	67, "2.09"	@ Tag_conformance
	.cpu	cortex-m23
	.eabi_attribute	6, 16	@ Tag_CPU_arch
	.eabi_attribute	7, 77	@ Tag_CPU_arch_profile
	.eabi_attribute	8, 0	@ Tag_ARM_ISA_use
	.eabi_attribute	9, 3	@ Tag_THUMB_ISA_use
	.eabi_attribute	34, 0	@ Tag_CPU_unaligned_access
	.eabi_attribute	17, 1	@ Tag_ABI_PCS_GOT_use
	.eabi_attribute	20, 2	@ Tag_ABI_FP_denormal
	.eabi_attribute	21, 0	@ Tag_ABI_FP_exceptions
	.eabi_attribute	23, 1	@ Tag_ABI_FP_number_model
	.eabi_attribute	24, 1	@ Tag_ABI_align_needed
	.eabi_attribute	25, 1	@ Tag_ABI_align_preserved
	.eabi_attribute	38, 1	@ Tag_ABI_FP_16bit_format
	.eabi_attribute	18, 4	@ Tag_ABI_PCS_wchar_t
	.eabi_attribute	26, 2	@ Tag_ABI_enum_size
	.eabi_attribute	14, 0	@ Tag_ABI_PCS_R9_use
	.file	"clk.c"
	.file	1 "C:\\Keil_v5\\ARM\\ARMCLANG\\Bin\\..\\include" "stdint.h"
	.file	2 "../../../../../Library/Device/Nuvoton/M2351/Include" "clk_reg.h"
	.file	3 "../../../../../Library/CMSIS/Include" "core_armv8mbl.h"
	.file	4 "../../../../../Library/Device/Nuvoton/M2351/Include" "rtc_reg.h"
	.file	5 "../../../../../Library/Device/Nuvoton/M2351/Include" "sys_reg.h"
	.file	6 "../../../../../Library/Device/Nuvoton/M2351/Include" "fmc_reg.h"
	.file	7 "../../../../../Library/Device/Nuvoton/M2351/Include" "M2351.h"
	.section	.text.CLK_DisableCKO,"ax",%progbits
	.hidden	CLK_DisableCKO          @ -- Begin function CLK_DisableCKO
	.globl	CLK_DisableCKO
	.p2align	2
	.type	CLK_DisableCKO,%function
	.code	16                      @ @CLK_DisableCKO
	.thumb_func
CLK_DisableCKO:
.Lfunc_begin0:
	.file	8 "../../../../../Library/StdDriver/src" "clk.c"
	.loc	8 31 0                  @ ../../../../../Library/StdDriver/src/clk.c:31:0
	.fnstart
	.cfi_sections .debug_frame
	.cfi_startproc
@ %bb.0:
	.loc	8 33 18 prologue_end    @ ../../../../../Library/StdDriver/src/clk.c:33:18
	ldr	r0, __arm_cp.0_0
	ldr	r1, [r0]
	movs	r2, #64
	bics	r1, r2
	str	r1, [r0]
	.loc	8 34 1                  @ ../../../../../Library/StdDriver/src/clk.c:34:1
	bx	lr
.Ltmp0:
	.p2align	2
@ %bb.1:
	.loc	8 0 1 is_stmt 0         @ ../../../../../Library/StdDriver/src/clk.c:0:1
__arm_cp.0_0:
	.long	1073742344              @ 0x40000208
.Lcpi_end0:
	.size	__arm_cp.0_0, .Lcpi_end0-__arm_cp.0_0
.Lfunc_end0:
	.size	CLK_DisableCKO, .Lfunc_end0-CLK_DisableCKO
	.cfi_endproc
	.cantunwind
	.fnend
                                        @ -- End function
	.section	.text.CLK_EnableCKO,"ax",%progbits
	.hidden	CLK_EnableCKO           @ -- Begin function CLK_EnableCKO
	.globl	CLK_EnableCKO
	.p2align	2
	.type	CLK_EnableCKO,%function
	.code	16                      @ @CLK_EnableCKO
	.thumb_func
CLK_EnableCKO:
.Lfunc_begin1:
	.loc	8 56 0 is_stmt 1        @ ../../../../../Library/StdDriver/src/clk.c:56:0
	.fnstart
	.cfi_startproc
@ %bb.0:
	.save	{r4, r5, r7, lr}
	push	{r4, r5, r7, lr}
	.cfi_def_cfa_offset 16
	.cfi_offset lr, -4
	.cfi_offset r7, -8
	.cfi_offset r5, -12
	.cfi_offset r4, -16
	.pad	#24
	sub	sp, #24
	.cfi_def_cfa_offset 40
	mov	r3, r2
	mov	r4, r1
	mov	r5, r0
	str	r0, [sp, #20]
	str	r1, [sp, #16]
	str	r2, [sp, #12]
.Ltmp1:
	.loc	8 58 45 prologue_end    @ ../../../../../Library/StdDriver/src/clk.c:58:45
	ldr	r0, [sp, #16]
	.loc	8 58 58 is_stmt 0       @ ../../../../../Library/StdDriver/src/clk.c:58:58
	ldr	r1, [sp, #12]
	.loc	8 58 73                 @ ../../../../../Library/StdDriver/src/clk.c:58:73
	lsls	r1, r1, #5
	.loc	8 58 43                 @ ../../../../../Library/StdDriver/src/clk.c:58:43
	orrs	r0, r1
	movs	r1, #16
	.loc	8 58 55                 @ ../../../../../Library/StdDriver/src/clk.c:58:55
	orrs	r0, r1
	.loc	8 58 18                 @ ../../../../../Library/StdDriver/src/clk.c:58:18
	ldr	r1, __arm_cp.1_0
	str	r0, [r1]
	.loc	8 61 18 is_stmt 1       @ ../../../../../Library/StdDriver/src/clk.c:61:18
	ldr	r0, __arm_cp.1_1
	ldr	r1, [r0]
	movs	r2, #64
	orrs	r1, r2
	str	r1, [r0]
	.loc	8 64 26                 @ ../../../../../Library/StdDriver/src/clk.c:64:26
	ldr	r0, __arm_cp.1_2
	ldr	r1, [r0]
	.loc	8 64 34 is_stmt 0       @ ../../../../../Library/StdDriver/src/clk.c:64:34
	movs	r2, #3
	lsls	r2, r2, #28
	bics	r1, r2
	.loc	8 64 67                 @ ../../../../../Library/StdDriver/src/clk.c:64:67
	ldr	r2, [sp, #20]
	.loc	8 64 64                 @ ../../../../../Library/StdDriver/src/clk.c:64:64
	orrs	r1, r2
	.loc	8 64 18                 @ ../../../../../Library/StdDriver/src/clk.c:64:18
	str	r1, [r0]
	.loc	8 66 1 is_stmt 1        @ ../../../../../Library/StdDriver/src/clk.c:66:1
	str	r3, [sp, #8]            @ 4-byte Spill
	str	r4, [sp, #4]            @ 4-byte Spill
	str	r5, [sp]                @ 4-byte Spill
	add	sp, #24
	pop	{r4, r5, r7, pc}
.Ltmp2:
	.p2align	2
@ %bb.1:
	.loc	8 0 1 is_stmt 0         @ ../../../../../Library/StdDriver/src/clk.c:0:1
__arm_cp.1_0:
	.long	1073742432              @ 0x40000260
.Lcpi_end1:
	.size	__arm_cp.1_0, .Lcpi_end1-__arm_cp.1_0
__arm_cp.1_1:
	.long	1073742344              @ 0x40000208
.Lcpi_end2:
	.size	__arm_cp.1_1, .Lcpi_end2-__arm_cp.1_1
__arm_cp.1_2:
	.long	1073742356              @ 0x40000214
.Lcpi_end3:
	.size	__arm_cp.1_2, .Lcpi_end3-__arm_cp.1_2
.Lfunc_end1:
	.size	CLK_EnableCKO, .Lfunc_end1-CLK_EnableCKO
	.cfi_endproc
	.cantunwind
	.fnend
                                        @ -- End function
	.section	.text.CLK_PowerDown,"ax",%progbits
	.hidden	CLK_PowerDown           @ -- Begin function CLK_PowerDown
	.globl	CLK_PowerDown
	.p2align	2
	.type	CLK_PowerDown,%function
	.code	16                      @ @CLK_PowerDown
	.thumb_func
CLK_PowerDown:
.Lfunc_begin2:
	.loc	8 76 0 is_stmt 1        @ ../../../../../Library/StdDriver/src/clk.c:76:0
	.fnstart
	.cfi_startproc
@ %bb.0:
	.loc	8 78 14 prologue_end    @ ../../../../../Library/StdDriver/src/clk.c:78:14
	ldr	r0, __arm_cp.2_0
	ldr	r1, [r0]
	movs	r2, #4
	orrs	r1, r2
	str	r1, [r0]
	.loc	8 81 17                 @ ../../../../../Library/StdDriver/src/clk.c:81:17
	ldr	r0, __arm_cp.2_1
	ldr	r1, [r0]
	movs	r2, #128
	orrs	r1, r2
	str	r1, [r0]
	.loc	8 84 5                  @ ../../../../../Library/StdDriver/src/clk.c:84:5
	wfi
	.loc	8 85 1                  @ ../../../../../Library/StdDriver/src/clk.c:85:1
	bx	lr
.Ltmp3:
	.p2align	2
@ %bb.1:
	.loc	8 0 1 is_stmt 0         @ ../../../../../Library/StdDriver/src/clk.c:0:1
__arm_cp.2_0:
	.long	3758157072              @ 0xe000ed10
.Lcpi_end4:
	.size	__arm_cp.2_0, .Lcpi_end4-__arm_cp.2_0
__arm_cp.2_1:
	.long	1073742336              @ 0x40000200
.Lcpi_end5:
	.size	__arm_cp.2_1, .Lcpi_end5-__arm_cp.2_1
.Lfunc_end2:
	.size	CLK_PowerDown, .Lfunc_end2-CLK_PowerDown
	.cfi_endproc
	.cantunwind
	.fnend
                                        @ -- End function
	.section	.text.CLK_Idle,"ax",%progbits
	.hidden	CLK_Idle                @ -- Begin function CLK_Idle
	.globl	CLK_Idle
	.p2align	2
	.type	CLK_Idle,%function
	.code	16                      @ @CLK_Idle
	.thumb_func
CLK_Idle:
.Lfunc_begin3:
	.loc	8 97 0 is_stmt 1        @ ../../../../../Library/StdDriver/src/clk.c:97:0
	.fnstart
	.cfi_startproc
@ %bb.0:
	.loc	8 99 14 prologue_end    @ ../../../../../Library/StdDriver/src/clk.c:99:14
	ldr	r0, __arm_cp.3_0
	ldr	r1, [r0]
	movs	r2, #4
	bics	r1, r2
	str	r1, [r0]
	.loc	8 102 17                @ ../../../../../Library/StdDriver/src/clk.c:102:17
	ldr	r0, __arm_cp.3_1
	ldr	r1, [r0]
	movs	r2, #128
	bics	r1, r2
	str	r1, [r0]
	.loc	8 105 5                 @ ../../../../../Library/StdDriver/src/clk.c:105:5
	wfi
	.loc	8 106 1                 @ ../../../../../Library/StdDriver/src/clk.c:106:1
	bx	lr
.Ltmp4:
	.p2align	2
@ %bb.1:
	.loc	8 0 1 is_stmt 0         @ ../../../../../Library/StdDriver/src/clk.c:0:1
__arm_cp.3_0:
	.long	3758157072              @ 0xe000ed10
.Lcpi_end6:
	.size	__arm_cp.3_0, .Lcpi_end6-__arm_cp.3_0
__arm_cp.3_1:
	.long	1073742336              @ 0x40000200
.Lcpi_end7:
	.size	__arm_cp.3_1, .Lcpi_end7-__arm_cp.3_1
.Lfunc_end3:
	.size	CLK_Idle, .Lfunc_end3-CLK_Idle
	.cfi_endproc
	.cantunwind
	.fnend
                                        @ -- End function
	.section	.text.CLK_GetHXTFreq,"ax",%progbits
	.hidden	CLK_GetHXTFreq          @ -- Begin function CLK_GetHXTFreq
	.weak	CLK_GetHXTFreq
	.p2align	2
	.type	CLK_GetHXTFreq,%function
	.code	16                      @ @CLK_GetHXTFreq
	.thumb_func
	.weak	__acle_se_CLK_GetHXTFreq
	.type	__acle_se_CLK_GetHXTFreq,%function
__acle_se_CLK_GetHXTFreq:
CLK_GetHXTFreq:
.Lfunc_begin4:
	.loc	8 117 0 is_stmt 1       @ ../../../../../Library/StdDriver/src/clk.c:117:0
	.fnstart
	.cfi_startproc
@ %bb.0:
	.pad	#8
	sub	sp, #8
	.cfi_def_cfa_offset 8
	movs	r0, #0
.Ltmp5:
	.loc	8 118 14 prologue_end   @ ../../../../../Library/StdDriver/src/clk.c:118:14
	str	r0, [sp, #4]
	.loc	8 119 30                @ ../../../../../Library/StdDriver/src/clk.c:119:30
	ldr	r0, __arm_cp.4_0
	ldr	r0, [r0]
	.loc	8 119 37 is_stmt 0      @ ../../../../../Library/StdDriver/src/clk.c:119:37
	movs	r1, #1
	ands	r0, r1
	.loc	8 119 14                @ ../../../../../Library/StdDriver/src/clk.c:119:14
	str	r0, [sp]
.Ltmp6:
	.loc	8 121 8 is_stmt 1       @ ../../../../../Library/StdDriver/src/clk.c:121:8
	ldr	r0, [sp]
.Ltmp7:
	.loc	8 121 8 is_stmt 0       @ ../../../../../Library/StdDriver/src/clk.c:121:8
	cmp	r0, #0
	beq	.LBB4_2
	b	.LBB4_1
.LBB4_1:
.Ltmp8:
	.loc	8 123 17 is_stmt 1      @ ../../../../../Library/StdDriver/src/clk.c:123:17
	ldr	r0, __arm_cp.4_1
	str	r0, [sp, #4]
	.loc	8 124 5                 @ ../../../../../Library/StdDriver/src/clk.c:124:5
	b	.LBB4_3
.Ltmp9:
.LBB4_2:
	.loc	8 127 17                @ ../../../../../Library/StdDriver/src/clk.c:127:17
	movs	r0, #0
	str	r0, [sp, #4]
	b	.LBB4_3
.Ltmp10:
.LBB4_3:
	.loc	8 130 12                @ ../../../../../Library/StdDriver/src/clk.c:130:12
	ldr	r0, [sp, #4]
	.loc	8 130 5 is_stmt 0       @ ../../../../../Library/StdDriver/src/clk.c:130:5
	add	sp, #8
	mov	r1, lr
	mov	r2, lr
	mov	r3, lr
	mov	r12, lr
	msr	apsr, lr
	bxns	lr
.Ltmp11:
	.p2align	2
@ %bb.4:
	.loc	8 0 5                   @ ../../../../../Library/StdDriver/src/clk.c:0:5
__arm_cp.4_0:
	.long	1073742336              @ 0x40000200
.Lcpi_end8:
	.size	__arm_cp.4_0, .Lcpi_end8-__arm_cp.4_0
__arm_cp.4_1:
	.long	12000000                @ 0xb71b00
.Lcpi_end9:
	.size	__arm_cp.4_1, .Lcpi_end9-__arm_cp.4_1
.Lfunc_end4:
	.size	CLK_GetHXTFreq, .Lfunc_end4-CLK_GetHXTFreq
	.cfi_endproc
	.cantunwind
	.fnend
                                        @ -- End function
	.section	.text.CLK_GetLXTFreq,"ax",%progbits
	.hidden	CLK_GetLXTFreq          @ -- Begin function CLK_GetLXTFreq
	.weak	CLK_GetLXTFreq
	.p2align	2
	.type	CLK_GetLXTFreq,%function
	.code	16                      @ @CLK_GetLXTFreq
	.thumb_func
	.weak	__acle_se_CLK_GetLXTFreq
	.type	__acle_se_CLK_GetLXTFreq,%function
__acle_se_CLK_GetLXTFreq:
CLK_GetLXTFreq:
.Lfunc_begin5:
	.loc	8 142 0 is_stmt 1       @ ../../../../../Library/StdDriver/src/clk.c:142:0
	.fnstart
	.cfi_startproc
@ %bb.0:
	.pad	#8
	sub	sp, #8
	.cfi_def_cfa_offset 8
	movs	r0, #0
.Ltmp12:
	.loc	8 143 14 prologue_end   @ ../../../../../Library/StdDriver/src/clk.c:143:14
	str	r0, [sp, #4]
	.loc	8 144 30                @ ../../../../../Library/StdDriver/src/clk.c:144:30
	ldr	r0, __arm_cp.5_0
	ldr	r0, [r0]
	.loc	8 144 37 is_stmt 0      @ ../../../../../Library/StdDriver/src/clk.c:144:37
	movs	r1, #2
	ands	r0, r1
	.loc	8 144 14                @ ../../../../../Library/StdDriver/src/clk.c:144:14
	str	r0, [sp]
.Ltmp13:
	.loc	8 146 8 is_stmt 1       @ ../../../../../Library/StdDriver/src/clk.c:146:8
	ldr	r0, [sp]
.Ltmp14:
	.loc	8 146 8 is_stmt 0       @ ../../../../../Library/StdDriver/src/clk.c:146:8
	cmp	r0, #0
	beq	.LBB5_2
	b	.LBB5_1
.LBB5_1:
.Ltmp15:
	.loc	8 148 17 is_stmt 1      @ ../../../../../Library/StdDriver/src/clk.c:148:17
	movw	r0, #32768
	str	r0, [sp, #4]
	.loc	8 149 5                 @ ../../../../../Library/StdDriver/src/clk.c:149:5
	b	.LBB5_3
.Ltmp16:
.LBB5_2:
	.loc	8 152 17                @ ../../../../../Library/StdDriver/src/clk.c:152:17
	movs	r0, #0
	str	r0, [sp, #4]
	b	.LBB5_3
.Ltmp17:
.LBB5_3:
	.loc	8 155 12                @ ../../../../../Library/StdDriver/src/clk.c:155:12
	ldr	r0, [sp, #4]
	.loc	8 155 5 is_stmt 0       @ ../../../../../Library/StdDriver/src/clk.c:155:5
	add	sp, #8
	mov	r1, lr
	mov	r2, lr
	mov	r3, lr
	mov	r12, lr
	msr	apsr, lr
	bxns	lr
.Ltmp18:
	.p2align	2
@ %bb.4:
	.loc	8 0 5                   @ ../../../../../Library/StdDriver/src/clk.c:0:5
__arm_cp.5_0:
	.long	1073742336              @ 0x40000200
.Lcpi_end10:
	.size	__arm_cp.5_0, .Lcpi_end10-__arm_cp.5_0
.Lfunc_end5:
	.size	CLK_GetLXTFreq, .Lfunc_end5-CLK_GetLXTFreq
	.cfi_endproc
	.cantunwind
	.fnend
                                        @ -- End function
	.section	.text.CLK_GetHCLKFreq,"ax",%progbits
	.hidden	CLK_GetHCLKFreq         @ -- Begin function CLK_GetHCLKFreq
	.weak	CLK_GetHCLKFreq
	.p2align	2
	.type	CLK_GetHCLKFreq,%function
	.code	16                      @ @CLK_GetHCLKFreq
	.thumb_func
	.weak	__acle_se_CLK_GetHCLKFreq
	.type	__acle_se_CLK_GetHCLKFreq,%function
__acle_se_CLK_GetHCLKFreq:
CLK_GetHCLKFreq:
.Lfunc_begin6:
	.loc	8 167 0 is_stmt 1       @ ../../../../../Library/StdDriver/src/clk.c:167:0
	.fnstart
	.cfi_startproc
@ %bb.0:
	.save	{r7, lr}
	push	{r7, lr}
	.cfi_def_cfa_offset 8
	.cfi_offset lr, -4
	.cfi_offset r7, -8
.Ltmp19:
	.loc	8 168 5 prologue_end    @ ../../../../../Library/StdDriver/src/clk.c:168:5
	bl	SystemCoreClockUpdate
	.loc	8 169 12                @ ../../../../../Library/StdDriver/src/clk.c:169:12
	ldr	r0, __arm_cp.6_0
	ldr	r0, [r0]
	.loc	8 169 5 is_stmt 0       @ ../../../../../Library/StdDriver/src/clk.c:169:5
	pop	{r7}
	pop	{r1}
	mov	lr, r1
	mov	r1, lr
	mov	r2, lr
	mov	r3, lr
	mov	r12, lr
	msr	apsr, lr
	bxns	lr
.Ltmp20:
	.p2align	2
@ %bb.1:
	.loc	8 0 5                   @ ../../../../../Library/StdDriver/src/clk.c:0:5
__arm_cp.6_0:
	.long	SystemCoreClock
.Lcpi_end11:
	.size	__arm_cp.6_0, .Lcpi_end11-__arm_cp.6_0
.Lfunc_end6:
	.size	CLK_GetHCLKFreq, .Lfunc_end6-CLK_GetHCLKFreq
	.cfi_endproc
	.cantunwind
	.fnend
                                        @ -- End function
	.section	.text.CLK_GetPCLK0Freq,"ax",%progbits
	.hidden	CLK_GetPCLK0Freq        @ -- Begin function CLK_GetPCLK0Freq
	.weak	CLK_GetPCLK0Freq
	.p2align	2
	.type	CLK_GetPCLK0Freq,%function
	.code	16                      @ @CLK_GetPCLK0Freq
	.thumb_func
	.weak	__acle_se_CLK_GetPCLK0Freq
	.type	__acle_se_CLK_GetPCLK0Freq,%function
__acle_se_CLK_GetPCLK0Freq:
CLK_GetPCLK0Freq:
.Lfunc_begin7:
	.loc	8 181 0 is_stmt 1       @ ../../../../../Library/StdDriver/src/clk.c:181:0
	.fnstart
	.cfi_startproc
@ %bb.0:
	.save	{r7, lr}
	push	{r7, lr}
	.cfi_def_cfa_offset 8
	.cfi_offset lr, -4
	.cfi_offset r7, -8
.Ltmp21:
	.loc	8 182 5 prologue_end    @ ../../../../../Library/StdDriver/src/clk.c:182:5
	bl	SystemCoreClockUpdate
	.loc	8 183 13                @ ../../../../../Library/StdDriver/src/clk.c:183:13
	ldr	r0, __arm_cp.7_0
	ldr	r0, [r0]
	.loc	8 183 39 is_stmt 0      @ ../../../../../Library/StdDriver/src/clk.c:183:39
	ldr	r1, __arm_cp.7_1
	ldr	r1, [r1]
	.loc	8 183 47                @ ../../../../../Library/StdDriver/src/clk.c:183:47
	movs	r2, #7
	ands	r1, r2
	.loc	8 183 29                @ ../../../../../Library/StdDriver/src/clk.c:183:29
	lsrs	r0, r1
	.loc	8 183 5                 @ ../../../../../Library/StdDriver/src/clk.c:183:5
	pop	{r7}
	pop	{r1}
	mov	lr, r1
	mov	r1, lr
	mov	r2, lr
	mov	r3, lr
	mov	r12, lr
	msr	apsr, lr
	bxns	lr
.Ltmp22:
	.p2align	2
@ %bb.1:
	.loc	8 0 5                   @ ../../../../../Library/StdDriver/src/clk.c:0:5
__arm_cp.7_0:
	.long	SystemCoreClock
.Lcpi_end12:
	.size	__arm_cp.7_0, .Lcpi_end12-__arm_cp.7_0
__arm_cp.7_1:
	.long	1073742388              @ 0x40000234
.Lcpi_end13:
	.size	__arm_cp.7_1, .Lcpi_end13-__arm_cp.7_1
.Lfunc_end7:
	.size	CLK_GetPCLK0Freq, .Lfunc_end7-CLK_GetPCLK0Freq
	.cfi_endproc
	.cantunwind
	.fnend
                                        @ -- End function
	.section	.text.CLK_GetPCLK1Freq,"ax",%progbits
	.hidden	CLK_GetPCLK1Freq        @ -- Begin function CLK_GetPCLK1Freq
	.weak	CLK_GetPCLK1Freq
	.p2align	2
	.type	CLK_GetPCLK1Freq,%function
	.code	16                      @ @CLK_GetPCLK1Freq
	.thumb_func
	.weak	__acle_se_CLK_GetPCLK1Freq
	.type	__acle_se_CLK_GetPCLK1Freq,%function
__acle_se_CLK_GetPCLK1Freq:
CLK_GetPCLK1Freq:
.Lfunc_begin8:
	.loc	8 195 0 is_stmt 1       @ ../../../../../Library/StdDriver/src/clk.c:195:0
	.fnstart
	.cfi_startproc
@ %bb.0:
	.save	{r7, lr}
	push	{r7, lr}
	.cfi_def_cfa_offset 8
	.cfi_offset lr, -4
	.cfi_offset r7, -8
.Ltmp23:
	.loc	8 196 5 prologue_end    @ ../../../../../Library/StdDriver/src/clk.c:196:5
	bl	SystemCoreClockUpdate
	.loc	8 197 13                @ ../../../../../Library/StdDriver/src/clk.c:197:13
	ldr	r0, __arm_cp.8_0
	ldr	r0, [r0]
	.loc	8 197 39 is_stmt 0      @ ../../../../../Library/StdDriver/src/clk.c:197:39
	ldr	r1, __arm_cp.8_1
	ldr	r1, [r1]
	.loc	8 197 47                @ ../../../../../Library/StdDriver/src/clk.c:197:47
	movs	r2, #112
	ands	r1, r2
	.loc	8 197 74                @ ../../../../../Library/StdDriver/src/clk.c:197:74
	lsrs	r1, r1, #4
	.loc	8 197 29                @ ../../../../../Library/StdDriver/src/clk.c:197:29
	lsrs	r0, r1
	.loc	8 197 5                 @ ../../../../../Library/StdDriver/src/clk.c:197:5
	pop	{r7}
	pop	{r1}
	mov	lr, r1
	mov	r1, lr
	mov	r2, lr
	mov	r3, lr
	mov	r12, lr
	msr	apsr, lr
	bxns	lr
.Ltmp24:
	.p2align	2
@ %bb.1:
	.loc	8 0 5                   @ ../../../../../Library/StdDriver/src/clk.c:0:5
__arm_cp.8_0:
	.long	SystemCoreClock
.Lcpi_end14:
	.size	__arm_cp.8_0, .Lcpi_end14-__arm_cp.8_0
__arm_cp.8_1:
	.long	1073742388              @ 0x40000234
.Lcpi_end15:
	.size	__arm_cp.8_1, .Lcpi_end15-__arm_cp.8_1
.Lfunc_end8:
	.size	CLK_GetPCLK1Freq, .Lfunc_end8-CLK_GetPCLK1Freq
	.cfi_endproc
	.cantunwind
	.fnend
                                        @ -- End function
	.section	.text.CLK_GetCPUFreq,"ax",%progbits
	.hidden	CLK_GetCPUFreq          @ -- Begin function CLK_GetCPUFreq
	.weak	CLK_GetCPUFreq
	.p2align	2
	.type	CLK_GetCPUFreq,%function
	.code	16                      @ @CLK_GetCPUFreq
	.thumb_func
	.weak	__acle_se_CLK_GetCPUFreq
	.type	__acle_se_CLK_GetCPUFreq,%function
__acle_se_CLK_GetCPUFreq:
CLK_GetCPUFreq:
.Lfunc_begin9:
	.loc	8 209 0 is_stmt 1       @ ../../../../../Library/StdDriver/src/clk.c:209:0
	.fnstart
	.cfi_startproc
@ %bb.0:
	.save	{r4, r5, r7, lr}
	push	{r4, r5, r7, lr}
	.cfi_def_cfa_offset 16
	.cfi_offset lr, -4
	.cfi_offset r7, -8
	.cfi_offset r5, -12
	.cfi_offset r4, -16
	.pad	#72
	sub	sp, #72
	.cfi_def_cfa_offset 88
.Ltmp25:
	.loc	8 211 14 prologue_end   @ ../../../../../Library/StdDriver/src/clk.c:211:14
	ldr	r0, __arm_cp.9_0
	add	r1, sp, #28
	ldm	r0!, {r2, r3, r4, r5}
	stm	r1!, {r2, r3, r4, r5}
	ldm	r0!, {r2, r3, r4, r5}
	stm	r1!, {r2, r3, r4, r5}
	.loc	8 213 13                @ ../../../../../Library/StdDriver/src/clk.c:213:13
	ldr	r0, __arm_cp.9_1
	str	r0, [sp, #4]
	.loc	8 214 32                @ ../../../../../Library/StdDriver/src/clk.c:214:32
	ldr	r0, __arm_cp.9_2
	ldr	r0, [r0]
	movs	r1, #2
	.loc	8 214 40 is_stmt 0      @ ../../../../../Library/StdDriver/src/clk.c:214:40
	ands	r0, r1
	.loc	8 214 14                @ ../../../../../Library/StdDriver/src/clk.c:214:14
	str	r0, [sp]
	.loc	8 217 22 is_stmt 1      @ ../../../../../Library/StdDriver/src/clk.c:217:22
	ldr	r0, __arm_cp.9_3
	ldr	r0, [r0]
	.loc	8 217 15 is_stmt 0      @ ../../../../../Library/StdDriver/src/clk.c:217:15
	str	r0, [sp, #24]
	add	r0, sp, #24
	.loc	8 219 8 is_stmt 1       @ ../../../../../Library/StdDriver/src/clk.c:219:8
	ldrb	r0, [r0, #2]
	movs	r1, #5
	tst	r0, r1
	beq	.LBB9_2
	b	.LBB9_1
.LBB9_1:
.Ltmp26:
	.loc	8 221 18                @ ../../../../../Library/StdDriver/src/clk.c:221:18
	ldr	r0, __arm_cp.9_6
	movs	r1, #0
	str	r1, [r0]
	.loc	8 222 5                 @ ../../../../../Library/StdDriver/src/clk.c:222:5
	b	.LBB9_9
.Ltmp27:
.LBB9_2:
	.loc	8 0 5 is_stmt 0         @ ../../../../../Library/StdDriver/src/clk.c:0:5
	add	r0, sp, #24
.Ltmp28:
	.loc	8 227 12 is_stmt 1      @ ../../../../../Library/StdDriver/src/clk.c:227:12
	ldrb	r0, [r0, #2]
	lsls	r0, r0, #28
	cmp	r0, #0
	bpl	.LBB9_4
	b	.LBB9_3
.LBB9_3:
.Ltmp29:
	.loc	8 229 20                @ ../../../../../Library/StdDriver/src/clk.c:229:20
	ldr	r0, __arm_cp.9_4
	str	r0, [sp, #20]
	.loc	8 230 9                 @ ../../../../../Library/StdDriver/src/clk.c:230:9
	b	.LBB9_5
.Ltmp30:
.LBB9_4:
	.loc	8 233 20                @ ../../../../../Library/StdDriver/src/clk.c:233:20
	ldr	r0, __arm_cp.9_4
	str	r0, [sp, #20]
	b	.LBB9_5
.Ltmp31:
.LBB9_5:
	.loc	8 0 20 is_stmt 0        @ ../../../../../Library/StdDriver/src/clk.c:0:20
	add	r0, sp, #24
	.loc	8 237 12 is_stmt 1      @ ../../../../../Library/StdDriver/src/clk.c:237:12
	ldrb	r0, [r0, #2]
	lsls	r0, r0, #30
	cmp	r0, #0
	bpl	.LBB9_7
	b	.LBB9_6
.LBB9_6:
.Ltmp32:
	.loc	8 239 24                @ ../../../../../Library/StdDriver/src/clk.c:239:24
	ldr	r0, [sp, #20]
	.loc	8 239 22 is_stmt 0      @ ../../../../../Library/StdDriver/src/clk.c:239:22
	ldr	r1, __arm_cp.9_6
	str	r0, [r1]
	.loc	8 240 9 is_stmt 1       @ ../../../../../Library/StdDriver/src/clk.c:240:9
	b	.LBB9_8
.Ltmp33:
.LBB9_7:
	.loc	8 244 32                @ ../../../../../Library/StdDriver/src/clk.c:244:32
	ldr	r0, [sp, #24]
	.loc	8 244 42 is_stmt 0      @ ../../../../../Library/StdDriver/src/clk.c:244:42
	movw	r1, #49152
	ands	r0, r1
	.loc	8 244 67                @ ../../../../../Library/StdDriver/src/clk.c:244:67
	lsrs	r0, r0, #14
	add	r1, sp, #4
	.loc	8 244 21                @ ../../../../../Library/StdDriver/src/clk.c:244:21
	orrs	r1, r0
	ldrb	r0, [r1]
	.loc	8 244 19                @ ../../../../../Library/StdDriver/src/clk.c:244:19
	str	r0, [sp, #8]
	.loc	8 245 23 is_stmt 1      @ ../../../../../Library/StdDriver/src/clk.c:245:23
	ldr	r0, [sp, #24]
	.loc	8 245 33 is_stmt 0      @ ../../../../../Library/StdDriver/src/clk.c:245:33
	ldr	r1, __arm_cp.9_5
	ands	r0, r1
	.loc	8 245 82                @ ../../../../../Library/StdDriver/src/clk.c:245:82
	adds	r0, r0, #2
	.loc	8 245 19                @ ../../../../../Library/StdDriver/src/clk.c:245:19
	str	r0, [sp, #16]
	.loc	8 246 23 is_stmt 1      @ ../../../../../Library/StdDriver/src/clk.c:246:23
	ldr	r0, [sp, #24]
	.loc	8 246 33 is_stmt 0      @ ../../../../../Library/StdDriver/src/clk.c:246:33
	movw	r1, #15872
	ands	r0, r1
	.loc	8 246 57                @ ../../../../../Library/StdDriver/src/clk.c:246:57
	lsrs	r0, r0, #9
	.loc	8 246 82                @ ../../../../../Library/StdDriver/src/clk.c:246:82
	adds	r0, r0, #1
	.loc	8 246 19                @ ../../../../../Library/StdDriver/src/clk.c:246:19
	str	r0, [sp, #12]
	.loc	8 249 27 is_stmt 1      @ ../../../../../Library/StdDriver/src/clk.c:249:27
	ldr	r0, [sp, #20]
	.loc	8 249 34 is_stmt 0      @ ../../../../../Library/StdDriver/src/clk.c:249:34
	lsrs	r0, r0, #2
	.loc	8 249 43                @ ../../../../../Library/StdDriver/src/clk.c:249:43
	ldr	r1, [sp, #16]
	.loc	8 249 40                @ ../../../../../Library/StdDriver/src/clk.c:249:40
	muls	r0, r1, r0
	lsls	r0, r0, #1
	.loc	8 249 59                @ ../../../../../Library/StdDriver/src/clk.c:249:59
	ldr	r1, [sp, #12]
	.loc	8 249 67                @ ../../../../../Library/StdDriver/src/clk.c:249:67
	ldr	r2, [sp, #8]
	.loc	8 249 65                @ ../../../../../Library/StdDriver/src/clk.c:249:65
	muls	r2, r1, r2
	.loc	8 249 56                @ ../../../../../Library/StdDriver/src/clk.c:249:56
	udiv	r0, r0, r2
	.loc	8 249 74                @ ../../../../../Library/StdDriver/src/clk.c:249:74
	lsls	r0, r0, #2
	.loc	8 249 22                @ ../../../../../Library/StdDriver/src/clk.c:249:22
	ldr	r1, __arm_cp.9_6
	str	r0, [r1]
	b	.LBB9_8
.Ltmp34:
.LBB9_8:
	.loc	8 0 22                  @ ../../../../../Library/StdDriver/src/clk.c:0:22
	b	.LBB9_9
.LBB9_9:
	.loc	8 254 23 is_stmt 1      @ ../../../../../Library/StdDriver/src/clk.c:254:23
	ldr	r0, __arm_cp.9_7
	ldr	r0, [r0]
	.loc	8 254 31 is_stmt 0      @ ../../../../../Library/StdDriver/src/clk.c:254:31
	movs	r1, #7
	ands	r0, r1
	.loc	8 254 16                @ ../../../../../Library/StdDriver/src/clk.c:254:16
	str	r0, [sp, #64]
.Ltmp35:
	.loc	8 256 8 is_stmt 1       @ ../../../../../Library/StdDriver/src/clk.c:256:8
	ldr	r0, [sp, #64]
.Ltmp36:
	.loc	8 256 8 is_stmt 0       @ ../../../../../Library/StdDriver/src/clk.c:256:8
	cmp	r0, #1
	bne	.LBB9_18
	b	.LBB9_10
.LBB9_10:
.Ltmp37:
	.loc	8 259 12 is_stmt 1      @ ../../../../../Library/StdDriver/src/clk.c:259:12
	ldr	r0, [sp]
.Ltmp38:
	.loc	8 259 12 is_stmt 0      @ ../../../../../Library/StdDriver/src/clk.c:259:12
	cmp	r0, #0
	bne	.LBB9_12
	b	.LBB9_11
.LBB9_11:
.Ltmp39:
	.loc	8 261 26 is_stmt 1      @ ../../../../../Library/StdDriver/src/clk.c:261:26
	ldr	r0, __arm_cp.9_2
	ldr	r1, [r0]
	movs	r2, #2
	orrs	r1, r2
	str	r1, [r0]
	.loc	8 262 9                 @ ../../../../../Library/StdDriver/src/clk.c:262:9
	b	.LBB9_12
.Ltmp40:
.LBB9_12:
	.loc	8 264 17                @ ../../../../../Library/StdDriver/src/clk.c:264:17
	ldr	r0, __arm_cp.9_8
	ldr	r0, [r0]
	.loc	8 264 24 is_stmt 0      @ ../../../../../Library/StdDriver/src/clk.c:264:24
	movs	r1, #128
.Ltmp41:
	.loc	8 264 12                @ ../../../../../Library/StdDriver/src/clk.c:264:12
	tst	r0, r1
	beq	.LBB9_14
	b	.LBB9_13
.LBB9_13:
.Ltmp42:
	.loc	8 266 21 is_stmt 1      @ ../../../../../Library/StdDriver/src/clk.c:266:21
	movw	r0, #32000
	str	r0, [sp, #68]
	.loc	8 267 9                 @ ../../../../../Library/StdDriver/src/clk.c:267:9
	b	.LBB9_15
.Ltmp43:
.LBB9_14:
	.loc	8 270 21                @ ../../../../../Library/StdDriver/src/clk.c:270:21
	movw	r0, #32768
	str	r0, [sp, #68]
	b	.LBB9_15
.Ltmp44:
.LBB9_15:
	.loc	8 273 12                @ ../../../../../Library/StdDriver/src/clk.c:273:12
	ldr	r0, [sp]
.Ltmp45:
	.loc	8 273 12 is_stmt 0      @ ../../../../../Library/StdDriver/src/clk.c:273:12
	cmp	r0, #0
	bne	.LBB9_17
	b	.LBB9_16
.LBB9_16:
.Ltmp46:
	.loc	8 275 26 is_stmt 1      @ ../../../../../Library/StdDriver/src/clk.c:275:26
	ldr	r0, __arm_cp.9_2
	ldr	r1, [r0]
	movs	r2, #2
	bics	r1, r2
	str	r1, [r0]
	.loc	8 276 9                 @ ../../../../../Library/StdDriver/src/clk.c:276:9
	b	.LBB9_17
.Ltmp47:
.LBB9_17:
	.loc	8 278 5                 @ ../../../../../Library/StdDriver/src/clk.c:278:5
	b	.LBB9_22
.Ltmp48:
.LBB9_18:
	.loc	8 279 13                @ ../../../../../Library/StdDriver/src/clk.c:279:13
	ldr	r0, [sp, #64]
.Ltmp49:
	.loc	8 279 13 is_stmt 0      @ ../../../../../Library/StdDriver/src/clk.c:279:13
	cmp	r0, #2
	bne	.LBB9_20
	b	.LBB9_19
.LBB9_19:
.Ltmp50:
	.loc	8 281 19 is_stmt 1      @ ../../../../../Library/StdDriver/src/clk.c:281:19
	ldr	r0, __arm_cp.9_6
	ldr	r0, [r0]
	.loc	8 281 17 is_stmt 0      @ ../../../../../Library/StdDriver/src/clk.c:281:17
	str	r0, [sp, #68]
	.loc	8 282 5 is_stmt 1       @ ../../../../../Library/StdDriver/src/clk.c:282:5
	b	.LBB9_21
.Ltmp51:
.LBB9_20:
	.loc	8 285 30                @ ../../../../../Library/StdDriver/src/clk.c:285:30
	ldr	r0, [sp, #64]
	.loc	8 285 19 is_stmt 0      @ ../../../../../Library/StdDriver/src/clk.c:285:19
	lsls	r0, r0, #2
	add	r1, sp, #28
	ldr	r0, [r1, r0]
	.loc	8 285 17                @ ../../../../../Library/StdDriver/src/clk.c:285:17
	str	r0, [sp, #68]
	b	.LBB9_21
.Ltmp52:
.LBB9_21:
	.loc	8 0 17                  @ ../../../../../Library/StdDriver/src/clk.c:0:17
	b	.LBB9_22
.LBB9_22:
	.loc	8 289 24 is_stmt 1      @ ../../../../../Library/StdDriver/src/clk.c:289:24
	ldr	r0, __arm_cp.9_9
	ldr	r0, [r0]
	.loc	8 289 32 is_stmt 0      @ ../../../../../Library/StdDriver/src/clk.c:289:32
	movs	r1, #15
	ands	r0, r1
	.loc	8 289 59                @ ../../../../../Library/StdDriver/src/clk.c:289:59
	adds	r0, r0, #1
	.loc	8 289 16                @ ../../../../../Library/StdDriver/src/clk.c:289:16
	str	r0, [sp, #60]
	.loc	8 292 23 is_stmt 1      @ ../../../../../Library/StdDriver/src/clk.c:292:23
	ldr	r0, [sp, #68]
	.loc	8 292 33 is_stmt 0      @ ../../../../../Library/StdDriver/src/clk.c:292:33
	ldr	r1, [sp, #60]
	.loc	8 292 31                @ ../../../../../Library/StdDriver/src/clk.c:292:31
	udiv	r0, r0, r1
	.loc	8 292 21                @ ../../../../../Library/StdDriver/src/clk.c:292:21
	ldr	r1, __arm_cp.9_10
	str	r0, [r1]
	.loc	8 295 20 is_stmt 1      @ ../../../../../Library/StdDriver/src/clk.c:295:20
	ldr	r0, [r1]
	.loc	8 295 36 is_stmt 0      @ ../../../../../Library/StdDriver/src/clk.c:295:36
	ldr	r2, __arm_cp.9_11
	adds	r0, r0, r2
	.loc	8 295 48                @ ../../../../../Library/StdDriver/src/clk.c:295:48
	ldr	r2, __arm_cp.9_12
	udiv	r0, r0, r2
	.loc	8 295 17                @ ../../../../../Library/StdDriver/src/clk.c:295:17
	ldr	r2, __arm_cp.9_13
	str	r0, [r2]
	.loc	8 297 12 is_stmt 1      @ ../../../../../Library/StdDriver/src/clk.c:297:12
	ldr	r0, [r1]
	.loc	8 297 5 is_stmt 0       @ ../../../../../Library/StdDriver/src/clk.c:297:5
	add	sp, #72
	pop	{r4, r5, r7}
	pop	{r1}
	mov	lr, r1
	mov	r1, lr
	mov	r2, lr
	mov	r3, lr
	mov	r12, lr
	msr	apsr, lr
	bxns	lr
.Ltmp53:
	.p2align	2
@ %bb.23:
	.loc	8 0 5                   @ ../../../../../Library/StdDriver/src/clk.c:0:5
__arm_cp.9_0:
	.long	.LCLK_GetCPUFreq.au32ClkTbl
.Lcpi_end16:
	.size	__arm_cp.9_0, .Lcpi_end16-__arm_cp.9_0
__arm_cp.9_1:
	.long	67240449                @ 0x4020201
.Lcpi_end17:
	.size	__arm_cp.9_1, .Lcpi_end17-__arm_cp.9_1
__arm_cp.9_2:
	.long	1073742344              @ 0x40000208
.Lcpi_end18:
	.size	__arm_cp.9_2, .Lcpi_end18-__arm_cp.9_2
__arm_cp.9_3:
	.long	1073742400              @ 0x40000240
.Lcpi_end19:
	.size	__arm_cp.9_3, .Lcpi_end19-__arm_cp.9_3
__arm_cp.9_4:
	.long	12000000                @ 0xb71b00
.Lcpi_end20:
	.size	__arm_cp.9_4, .Lcpi_end20-__arm_cp.9_4
__arm_cp.9_5:
	.long	511                     @ 0x1ff
.Lcpi_end21:
	.size	__arm_cp.9_5, .Lcpi_end21-__arm_cp.9_5
__arm_cp.9_6:
	.long	PllClock
.Lcpi_end22:
	.size	__arm_cp.9_6, .Lcpi_end22-__arm_cp.9_6
__arm_cp.9_7:
	.long	1073742352              @ 0x40000210
.Lcpi_end23:
	.size	__arm_cp.9_7, .Lcpi_end23-__arm_cp.9_7
__arm_cp.9_8:
	.long	1074008320              @ 0x40041100
.Lcpi_end24:
	.size	__arm_cp.9_8, .Lcpi_end24-__arm_cp.9_8
__arm_cp.9_9:
	.long	1073742368              @ 0x40000220
.Lcpi_end25:
	.size	__arm_cp.9_9, .Lcpi_end25-__arm_cp.9_9
__arm_cp.9_10:
	.long	SystemCoreClock
.Lcpi_end26:
	.size	__arm_cp.9_10, .Lcpi_end26-__arm_cp.9_10
__arm_cp.9_11:
	.long	500000                  @ 0x7a120
.Lcpi_end27:
	.size	__arm_cp.9_11, .Lcpi_end27-__arm_cp.9_11
__arm_cp.9_12:
	.long	1000000                 @ 0xf4240
.Lcpi_end28:
	.size	__arm_cp.9_12, .Lcpi_end28-__arm_cp.9_12
__arm_cp.9_13:
	.long	CyclesPerUs
.Lcpi_end29:
	.size	__arm_cp.9_13, .Lcpi_end29-__arm_cp.9_13
.Lfunc_end9:
	.size	CLK_GetCPUFreq, .Lfunc_end9-CLK_GetCPUFreq
	.cfi_endproc
	.cantunwind
	.fnend
                                        @ -- End function
	.section	.text.CLK_SetCoreClock,"ax",%progbits
	.hidden	CLK_SetCoreClock        @ -- Begin function CLK_SetCoreClock
	.globl	CLK_SetCoreClock
	.p2align	2
	.type	CLK_SetCoreClock,%function
	.code	16                      @ @CLK_SetCoreClock
	.thumb_func
CLK_SetCoreClock:
.Lfunc_begin10:
	.loc	8 310 0 is_stmt 1       @ ../../../../../Library/StdDriver/src/clk.c:310:0
	.fnstart
	.cfi_startproc
@ %bb.0:
	.save	{r7, lr}
	push	{r7, lr}
	.cfi_def_cfa_offset 8
	.cfi_offset lr, -4
	.cfi_offset r7, -8
	.pad	#24
	sub	sp, #24
	.cfi_def_cfa_offset 32
	mov	r1, r0
	str	r0, [sp, #20]
.Ltmp54:
	.loc	8 314 23 prologue_end   @ ../../../../../Library/StdDriver/src/clk.c:314:23
	ldr	r0, __arm_cp.10_0
	ldr	r0, [r0]
	.loc	8 314 30 is_stmt 0      @ ../../../../../Library/StdDriver/src/clk.c:314:30
	movs	r2, #16
	ands	r0, r2
	.loc	8 314 16                @ ../../../../../Library/StdDriver/src/clk.c:314:16
	str	r0, [sp, #16]
	.loc	8 317 24 is_stmt 1      @ ../../../../../Library/StdDriver/src/clk.c:317:24
	ldr	r0, __arm_cp.10_1
	ldr	r0, [r0]
	.loc	8 317 30 is_stmt 0      @ ../../../../../Library/StdDriver/src/clk.c:317:30
	movw	r2, #768
	ands	r0, r2
	.loc	8 317 17                @ ../../../../../Library/StdDriver/src/clk.c:317:17
	str	r0, [sp, #12]
.Ltmp55:
	.loc	8 320 9 is_stmt 1       @ ../../../../../Library/StdDriver/src/clk.c:320:9
	ldr	r0, [sp, #12]
	.loc	8 320 48 is_stmt 0      @ ../../../../../Library/StdDriver/src/clk.c:320:48
	cmp	r0, #0
	str	r1, [sp, #8]            @ 4-byte Spill
	bne	.LBB10_3
	b	.LBB10_1
.LBB10_1:
	.loc	8 320 52                @ ../../../../../Library/StdDriver/src/clk.c:320:52
	ldr	r0, [sp, #20]
.Ltmp56:
	.loc	8 320 8                 @ ../../../../../Library/StdDriver/src/clk.c:320:8
	ldr	r1, __arm_cp.10_2
	cmp	r0, r1
	blo	.LBB10_3
	b	.LBB10_2
.LBB10_2:
.Ltmp57:
	.loc	8 322 17 is_stmt 1      @ ../../../../../Library/StdDriver/src/clk.c:322:17
	ldr	r0, __arm_cp.10_7
	str	r0, [sp, #20]
	.loc	8 323 5                 @ ../../../../../Library/StdDriver/src/clk.c:323:5
	b	.LBB10_10
.Ltmp58:
.LBB10_3:
	.loc	8 324 14                @ ../../../../../Library/StdDriver/src/clk.c:324:14
	ldr	r0, [sp, #12]
	.loc	8 324 26 is_stmt 0      @ ../../../../../Library/StdDriver/src/clk.c:324:26
	movw	r1, #256
	.loc	8 324 53                @ ../../../../../Library/StdDriver/src/clk.c:324:53
	cmp	r0, r1
	bne	.LBB10_6
	b	.LBB10_4
.LBB10_4:
	.loc	8 324 57                @ ../../../../../Library/StdDriver/src/clk.c:324:57
	ldr	r0, [sp, #20]
.Ltmp59:
	.loc	8 324 13                @ ../../../../../Library/StdDriver/src/clk.c:324:13
	ldr	r1, __arm_cp.10_3
	cmp	r0, r1
	blo	.LBB10_6
	b	.LBB10_5
.LBB10_5:
.Ltmp60:
	.loc	8 326 17 is_stmt 1      @ ../../../../../Library/StdDriver/src/clk.c:326:17
	ldr	r0, __arm_cp.10_6
	str	r0, [sp, #20]
	.loc	8 327 5                 @ ../../../../../Library/StdDriver/src/clk.c:327:5
	b	.LBB10_9
.Ltmp61:
.LBB10_6:
	.loc	8 328 13                @ ../../../../../Library/StdDriver/src/clk.c:328:13
	ldr	r0, [sp, #20]
.Ltmp62:
	.loc	8 328 13 is_stmt 0      @ ../../../../../Library/StdDriver/src/clk.c:328:13
	ldr	r1, __arm_cp.10_4
	cmp	r0, r1
	bhi	.LBB10_8
	b	.LBB10_7
.LBB10_7:
.Ltmp63:
	.loc	8 330 17 is_stmt 1      @ ../../../../../Library/StdDriver/src/clk.c:330:17
	ldr	r0, __arm_cp.10_5
	str	r0, [sp, #20]
	.loc	8 331 5                 @ ../../../../../Library/StdDriver/src/clk.c:331:5
	b	.LBB10_8
.Ltmp64:
.LBB10_8:
	.loc	8 0 5 is_stmt 0         @ ../../../../../Library/StdDriver/src/clk.c:0:5
	b	.LBB10_9
.LBB10_9:
	b	.LBB10_10
.LBB10_10:
	.loc	8 334 17 is_stmt 1      @ ../../../../../Library/StdDriver/src/clk.c:334:17
	ldr	r0, __arm_cp.10_8
	ldr	r1, [r0]
	movs	r2, #4
	orrs	r1, r2
	str	r1, [r0]
	movs	r0, #16
	.loc	8 335 5                 @ ../../../../../Library/StdDriver/src/clk.c:335:5
	bl	CLK_WaitClockReady
	.loc	8 336 18                @ ../../../../../Library/StdDriver/src/clk.c:336:18
	ldr	r1, __arm_cp.10_9
	ldr	r2, [r1]
	movs	r3, #7
	orrs	r2, r3
	str	r2, [r1]
	.loc	8 337 18                @ ../../../../../Library/StdDriver/src/clk.c:337:18
	ldr	r1, __arm_cp.10_10
	ldr	r2, [r1]
	movs	r3, #15
	bics	r2, r3
	str	r2, [r1]
	.loc	8 340 17                @ ../../../../../Library/StdDriver/src/clk.c:340:17
	ldr	r1, __arm_cp.10_11
	ldr	r2, [r1]
	movw	r3, #256
	bics	r2, r3
	str	r2, [r1]
.Ltmp65:
	.loc	8 343 13                @ ../../../../../Library/StdDriver/src/clk.c:343:13
	ldr	r1, __arm_cp.10_0
	ldr	r1, [r1]
	.loc	8 343 20 is_stmt 0      @ ../../../../../Library/StdDriver/src/clk.c:343:20
	movs	r2, #1
.Ltmp66:
	.loc	8 343 8                 @ ../../../../../Library/StdDriver/src/clk.c:343:8
	tst	r1, r2
	str	r0, [sp, #4]            @ 4-byte Spill
	beq	.LBB10_12
	b	.LBB10_11
.LBB10_11:
.Ltmp67:
	.loc	8 345 56 is_stmt 1      @ ../../../../../Library/StdDriver/src/clk.c:345:56
	ldr	r1, [sp, #20]
	movs	r0, #0
	.loc	8 345 19 is_stmt 0      @ ../../../../../Library/StdDriver/src/clk.c:345:19
	bl	CLK_EnablePLL
	.loc	8 345 17                @ ../../../../../Library/StdDriver/src/clk.c:345:17
	str	r0, [sp, #20]
	.loc	8 346 5 is_stmt 1       @ ../../../../../Library/StdDriver/src/clk.c:346:5
	b	.LBB10_13
.Ltmp68:
.LBB10_12:
	.loc	8 350 57                @ ../../../../../Library/StdDriver/src/clk.c:350:57
	ldr	r1, [sp, #20]
	.loc	8 350 19 is_stmt 0      @ ../../../../../Library/StdDriver/src/clk.c:350:19
	movs	r0, #1
	lsls	r0, r0, #19
	bl	CLK_EnablePLL
	.loc	8 350 17                @ ../../../../../Library/StdDriver/src/clk.c:350:17
	str	r0, [sp, #20]
	.loc	8 353 27 is_stmt 1      @ ../../../../../Library/StdDriver/src/clk.c:353:27
	ldr	r0, __arm_cp.10_0
	ldr	r0, [r0]
	.loc	8 353 34 is_stmt 0      @ ../../../../../Library/StdDriver/src/clk.c:353:34
	movs	r1, #16
	ands	r0, r1
	.loc	8 353 20                @ ../../../../../Library/StdDriver/src/clk.c:353:20
	str	r0, [sp, #16]
	b	.LBB10_13
.Ltmp69:
.LBB10_13:
	.loc	8 360 5 is_stmt 1       @ ../../../../../Library/StdDriver/src/clk.c:360:5
	movs	r0, #2
	movs	r1, #0
	bl	CLK_SetHCLK
.Ltmp70:
	.loc	8 363 8                 @ ../../../../../Library/StdDriver/src/clk.c:363:8
	ldr	r0, [sp, #16]
.Ltmp71:
	.loc	8 363 8 is_stmt 0       @ ../../../../../Library/StdDriver/src/clk.c:363:8
	cmp	r0, #0
	bne	.LBB10_15
	b	.LBB10_14
.LBB10_14:
.Ltmp72:
	.loc	8 365 21 is_stmt 1      @ ../../../../../Library/StdDriver/src/clk.c:365:21
	ldr	r0, __arm_cp.10_8
	ldr	r1, [r0]
	movs	r2, #4
	bics	r1, r2
	str	r1, [r0]
	.loc	8 366 5                 @ ../../../../../Library/StdDriver/src/clk.c:366:5
	b	.LBB10_15
.Ltmp73:
.LBB10_15:
	.loc	8 369 12                @ ../../../../../Library/StdDriver/src/clk.c:369:12
	ldr	r0, [sp, #20]
	.loc	8 369 5 is_stmt 0       @ ../../../../../Library/StdDriver/src/clk.c:369:5
	add	sp, #24
	pop	{r7, pc}
.Ltmp74:
	.p2align	2
@ %bb.16:
	.loc	8 0 5                   @ ../../../../../Library/StdDriver/src/clk.c:0:5
__arm_cp.10_0:
	.long	1073742416              @ 0x40000250
.Lcpi_end30:
	.size	__arm_cp.10_0, .Lcpi_end30-__arm_cp.10_0
__arm_cp.10_1:
	.long	1073742332              @ 0x400001fc
.Lcpi_end31:
	.size	__arm_cp.10_1, .Lcpi_end31-__arm_cp.10_1
__arm_cp.10_2:
	.long	64000001                @ 0x3d09001
.Lcpi_end32:
	.size	__arm_cp.10_2, .Lcpi_end32-__arm_cp.10_2
__arm_cp.10_3:
	.long	48000001                @ 0x2dc6c01
.Lcpi_end33:
	.size	__arm_cp.10_3, .Lcpi_end33-__arm_cp.10_3
__arm_cp.10_4:
	.long	23999999                @ 0x16e35ff
.Lcpi_end34:
	.size	__arm_cp.10_4, .Lcpi_end34-__arm_cp.10_4
__arm_cp.10_5:
	.long	24000000                @ 0x16e3600
.Lcpi_end35:
	.size	__arm_cp.10_5, .Lcpi_end35-__arm_cp.10_5
__arm_cp.10_6:
	.long	48000000                @ 0x2dc6c00
.Lcpi_end36:
	.size	__arm_cp.10_6, .Lcpi_end36-__arm_cp.10_6
__arm_cp.10_7:
	.long	64000000                @ 0x3d09000
.Lcpi_end37:
	.size	__arm_cp.10_7, .Lcpi_end37-__arm_cp.10_7
__arm_cp.10_8:
	.long	1073742336              @ 0x40000200
.Lcpi_end38:
	.size	__arm_cp.10_8, .Lcpi_end38-__arm_cp.10_8
__arm_cp.10_9:
	.long	1073742352              @ 0x40000210
.Lcpi_end39:
	.size	__arm_cp.10_9, .Lcpi_end39-__arm_cp.10_9
__arm_cp.10_10:
	.long	1073742368              @ 0x40000220
.Lcpi_end40:
	.size	__arm_cp.10_10, .Lcpi_end40-__arm_cp.10_10
__arm_cp.10_11:
	.long	1073791052              @ 0x4000c04c
.Lcpi_end41:
	.size	__arm_cp.10_11, .Lcpi_end41-__arm_cp.10_11
.Lfunc_end10:
	.size	CLK_SetCoreClock, .Lfunc_end10-CLK_SetCoreClock
	.cfi_endproc
	.cantunwind
	.fnend
                                        @ -- End function
	.section	.text.CLK_WaitClockReady,"ax",%progbits
	.hidden	CLK_WaitClockReady      @ -- Begin function CLK_WaitClockReady
	.globl	CLK_WaitClockReady
	.p2align	2
	.type	CLK_WaitClockReady,%function
	.code	16                      @ @CLK_WaitClockReady
	.thumb_func
CLK_WaitClockReady:
.Lfunc_begin11:
	.loc	8 924 0 is_stmt 1       @ ../../../../../Library/StdDriver/src/clk.c:924:0
	.fnstart
	.cfi_startproc
@ %bb.0:
	.pad	#16
	sub	sp, #16
	.cfi_def_cfa_offset 16
	mov	r1, r0
	str	r0, [sp, #12]
.Ltmp75:
	.loc	8 925 13 prologue_end   @ ../../../../../Library/StdDriver/src/clk.c:925:13
	ldr	r0, __arm_cp.11_0
	str	r0, [sp, #8]
	.loc	8 926 14                @ ../../../../../Library/StdDriver/src/clk.c:926:14
	movs	r0, #1
	str	r0, [sp, #4]
	.loc	8 928 5                 @ ../../../../../Library/StdDriver/src/clk.c:928:5
	str	r1, [sp]                @ 4-byte Spill
	b	.LBB11_1
.LBB11_1:                               @ =>This Inner Loop Header: Depth=1
	.loc	8 928 17 is_stmt 0      @ ../../../../../Library/StdDriver/src/clk.c:928:17
	ldr	r0, __arm_cp.11_1
	ldr	r0, [r0]
	.loc	8 928 26                @ ../../../../../Library/StdDriver/src/clk.c:928:26
	ldr	r1, [sp, #12]
	.loc	8 928 24                @ ../../../../../Library/StdDriver/src/clk.c:928:24
	ands	r0, r1
	.loc	8 928 5                 @ ../../../../../Library/StdDriver/src/clk.c:928:5
	cmp	r0, r1
	beq	.LBB11_5
	b	.LBB11_2
.LBB11_2:                               @   in Loop: Header=BB11_1 Depth=1
.Ltmp76:
	.loc	8 930 25 is_stmt 1      @ ../../../../../Library/StdDriver/src/clk.c:930:25
	ldr	r0, [sp, #8]
	subs	r1, r0, #1
	str	r1, [sp, #8]
.Ltmp77:
	.loc	8 930 12 is_stmt 0      @ ../../../../../Library/StdDriver/src/clk.c:930:12
	cmp	r0, #0
	bgt	.LBB11_4
	b	.LBB11_3
.LBB11_3:
.Ltmp78:
	.loc	8 932 20 is_stmt 1      @ ../../../../../Library/StdDriver/src/clk.c:932:20
	movs	r0, #0
	str	r0, [sp, #4]
	.loc	8 933 13                @ ../../../../../Library/StdDriver/src/clk.c:933:13
	b	.LBB11_5
.Ltmp79:
.LBB11_4:                               @   in Loop: Header=BB11_1 Depth=1
	.loc	8 928 5                 @ ../../../../../Library/StdDriver/src/clk.c:928:5
	b	.LBB11_1
.LBB11_5:
	.loc	8 936 12                @ ../../../../../Library/StdDriver/src/clk.c:936:12
	ldr	r0, [sp, #4]
	.loc	8 936 5 is_stmt 0       @ ../../../../../Library/StdDriver/src/clk.c:936:5
	add	sp, #16
	bx	lr
.Ltmp80:
	.p2align	2
@ %bb.6:
	.loc	8 0 5                   @ ../../../../../Library/StdDriver/src/clk.c:0:5
__arm_cp.11_0:
	.long	2400000                 @ 0x249f00
.Lcpi_end42:
	.size	__arm_cp.11_0, .Lcpi_end42-__arm_cp.11_0
__arm_cp.11_1:
	.long	1073742416              @ 0x40000250
.Lcpi_end43:
	.size	__arm_cp.11_1, .Lcpi_end43-__arm_cp.11_1
.Lfunc_end11:
	.size	CLK_WaitClockReady, .Lfunc_end11-CLK_WaitClockReady
	.cfi_endproc
	.cantunwind
	.fnend
                                        @ -- End function
	.section	.text.CLK_EnablePLL,"ax",%progbits
	.hidden	CLK_EnablePLL           @ -- Begin function CLK_EnablePLL
	.globl	CLK_EnablePLL
	.p2align	2
	.type	CLK_EnablePLL,%function
	.code	16                      @ @CLK_EnablePLL
	.thumb_func
CLK_EnablePLL:
.Lfunc_begin12:
	.loc	8 765 0 is_stmt 1       @ ../../../../../Library/StdDriver/src/clk.c:765:0
	.fnstart
	.cfi_startproc
@ %bb.0:
	.save	{r7, lr}
	push	{r7, lr}
	.cfi_def_cfa_offset 8
	.cfi_offset lr, -4
	.cfi_offset r7, -8
	.pad	#80
	sub	sp, #80
	.cfi_def_cfa_offset 88
	mov	r2, r1
	mov	r3, r0
	str	r0, [sp, #76]
	str	r1, [sp, #72]
.Ltmp81:
	.loc	8 770 5 prologue_end    @ ../../../../../Library/StdDriver/src/clk.c:770:5
	str	r2, [sp, #24]           @ 4-byte Spill
	str	r3, [sp, #20]           @ 4-byte Spill
	bl	CLK_DisablePLL
.Ltmp82:
	.loc	8 773 8                 @ ../../../../../Library/StdDriver/src/clk.c:773:8
	ldr	r0, [sp, #76]
.Ltmp83:
	.loc	8 773 8 is_stmt 0       @ ../../../../../Library/StdDriver/src/clk.c:773:8
	cmp	r0, #0
	bne	.LBB12_2
	b	.LBB12_1
.LBB12_1:
.Ltmp84:
	.loc	8 777 21 is_stmt 1      @ ../../../../../Library/StdDriver/src/clk.c:777:21
	ldr	r0, __arm_cp.12_0
	ldr	r1, [r0]
	movs	r2, #1
	orrs	r1, r2
	str	r1, [r0]
	.loc	8 780 9                 @ ../../../../../Library/StdDriver/src/clk.c:780:9
	mov	r0, r2
	bl	CLK_WaitClockReady
	.loc	8 783 22                @ ../../../../../Library/StdDriver/src/clk.c:783:22
	ldr	r1, __arm_cp.12_1
	str	r1, [sp, #68]
	.loc	8 784 5                 @ ../../../../../Library/StdDriver/src/clk.c:784:5
	str	r0, [sp, #16]           @ 4-byte Spill
	b	.LBB12_3
.Ltmp85:
.LBB12_2:
	.loc	8 791 21                @ ../../../../../Library/StdDriver/src/clk.c:791:21
	ldr	r0, __arm_cp.12_0
	ldr	r1, [r0]
	movs	r2, #4
	orrs	r1, r2
	str	r1, [r0]
	.loc	8 794 9                 @ ../../../../../Library/StdDriver/src/clk.c:794:9
	movs	r0, #16
	bl	CLK_WaitClockReady
	.loc	8 797 22                @ ../../../../../Library/StdDriver/src/clk.c:797:22
	ldr	r1, __arm_cp.12_1
	str	r1, [sp, #68]
	str	r0, [sp, #12]           @ 4-byte Spill
	b	.LBB12_3
.Ltmp86:
.LBB12_3:
	.loc	8 801 9                 @ ../../../../../Library/StdDriver/src/clk.c:801:9
	ldr	r0, [sp, #72]
	.loc	8 801 20 is_stmt 0      @ ../../../../../Library/StdDriver/src/clk.c:801:20
	ldr	r1, __arm_cp.12_2
	.loc	8 801 36                @ ../../../../../Library/StdDriver/src/clk.c:801:36
	cmp	r0, r1
	bls	.LBB12_4
	b	.LBB12_35
.LBB12_4:
	.loc	8 801 40                @ ../../../../../Library/StdDriver/src/clk.c:801:40
	ldr	r0, [sp, #72]
	.loc	8 801 51                @ ../../../../../Library/StdDriver/src/clk.c:801:51
	ldr	r1, __arm_cp.12_3
.Ltmp87:
	.loc	8 801 8                 @ ../../../../../Library/StdDriver/src/clk.c:801:8
	cmp	r0, r1
	bhs	.LBB12_5
	b	.LBB12_35
.LBB12_5:
.Ltmp88:
	.loc	8 805 13 is_stmt 1      @ ../../../../../Library/StdDriver/src/clk.c:805:13
	ldr	r0, [sp, #72]
	.loc	8 805 38 is_stmt 0      @ ../../../../../Library/StdDriver/src/clk.c:805:38
	ldr	r1, __arm_cp.12_10
	cmp	r0, r1
	bhi	.LBB12_8
	b	.LBB12_6
.LBB12_6:
	.loc	8 805 42                @ ../../../../../Library/StdDriver/src/clk.c:805:42
	ldr	r0, [sp, #72]
	.loc	8 805 53                @ ../../../../../Library/StdDriver/src/clk.c:805:53
	ldr	r1, __arm_cp.12_3
.Ltmp89:
	.loc	8 805 12                @ ../../../../../Library/StdDriver/src/clk.c:805:12
	cmp	r0, r1
	blo	.LBB12_8
	b	.LBB12_7
.LBB12_7:
.Ltmp90:
	.loc	8 807 19 is_stmt 1      @ ../../../../../Library/StdDriver/src/clk.c:807:19
	movs	r0, #3
	str	r0, [sp, #56]
	.loc	8 808 26                @ ../../../../../Library/StdDriver/src/clk.c:808:26
	ldr	r0, [sp, #72]
	.loc	8 808 37 is_stmt 0      @ ../../../../../Library/StdDriver/src/clk.c:808:37
	lsls	r0, r0, #2
	.loc	8 808 24                @ ../../../../../Library/StdDriver/src/clk.c:808:24
	str	r0, [sp, #72]
	.loc	8 809 9 is_stmt 1       @ ../../../../../Library/StdDriver/src/clk.c:809:9
	b	.LBB12_13
.Ltmp91:
.LBB12_8:
	.loc	8 810 18                @ ../../../../../Library/StdDriver/src/clk.c:810:18
	ldr	r0, [sp, #72]
	.loc	8 810 43 is_stmt 0      @ ../../../../../Library/StdDriver/src/clk.c:810:43
	ldr	r1, __arm_cp.12_11
	cmp	r0, r1
	bhi	.LBB12_11
	b	.LBB12_9
.LBB12_9:
	.loc	8 810 47                @ ../../../../../Library/StdDriver/src/clk.c:810:47
	ldr	r0, [sp, #72]
	.loc	8 810 58                @ ../../../../../Library/StdDriver/src/clk.c:810:58
	ldr	r1, __arm_cp.12_7
.Ltmp92:
	.loc	8 810 17                @ ../../../../../Library/StdDriver/src/clk.c:810:17
	cmp	r0, r1
	blo	.LBB12_11
	b	.LBB12_10
.LBB12_10:
.Ltmp93:
	.loc	8 812 19 is_stmt 1      @ ../../../../../Library/StdDriver/src/clk.c:812:19
	movs	r0, #1
	str	r0, [sp, #56]
	.loc	8 813 26                @ ../../../../../Library/StdDriver/src/clk.c:813:26
	ldr	r0, [sp, #72]
	.loc	8 813 37 is_stmt 0      @ ../../../../../Library/StdDriver/src/clk.c:813:37
	lsls	r0, r0, #1
	.loc	8 813 24                @ ../../../../../Library/StdDriver/src/clk.c:813:24
	str	r0, [sp, #72]
	.loc	8 814 9 is_stmt 1       @ ../../../../../Library/StdDriver/src/clk.c:814:9
	b	.LBB12_12
.Ltmp94:
.LBB12_11:
	.loc	8 817 19                @ ../../../../../Library/StdDriver/src/clk.c:817:19
	movs	r0, #0
	str	r0, [sp, #56]
	b	.LBB12_12
.Ltmp95:
.LBB12_12:
	.loc	8 0 19 is_stmt 0        @ ../../../../../Library/StdDriver/src/clk.c:0:19
	b	.LBB12_13
.LBB12_13:
	.loc	8 821 15 is_stmt 1      @ ../../../../../Library/StdDriver/src/clk.c:821:15
	movs	r0, #3
	str	r0, [sp, #64]
	movs	r0, #0
	.loc	8 824 16                @ ../../../../../Library/StdDriver/src/clk.c:824:16
	mvns	r1, r0
	str	r1, [sp, #36]
	.loc	8 825 18                @ ../../../../../Library/StdDriver/src/clk.c:825:18
	str	r0, [sp, #28]
	.loc	8 826 18                @ ../../../../../Library/StdDriver/src/clk.c:826:18
	str	r0, [sp, #32]
	.loc	8 828 9                 @ ../../../../../Library/StdDriver/src/clk.c:828:9
	b	.LBB12_14
.LBB12_14:                              @ =>This Loop Header: Depth=1
                                        @     Child Loop BB12_18 Depth 2
.Ltmp96:
	.loc	8 828 15 is_stmt 0      @ ../../../../../Library/StdDriver/src/clk.c:828:15
	ldr	r0, [sp, #64]
.Ltmp97:
	.loc	8 828 9                 @ ../../../../../Library/StdDriver/src/clk.c:828:9
	cmp	r0, #32
	bhi	.LBB12_34
	b	.LBB12_15
.LBB12_15:                              @   in Loop: Header=BB12_14 Depth=1
.Ltmp98:
	.loc	8 830 22 is_stmt 1      @ ../../../../../Library/StdDriver/src/clk.c:830:22
	ldr	r0, [sp, #68]
	.loc	8 830 37 is_stmt 0      @ ../../../../../Library/StdDriver/src/clk.c:830:37
	ldr	r1, [sp, #64]
	.loc	8 830 35                @ ../../../../../Library/StdDriver/src/clk.c:830:35
	udiv	r0, r0, r1
	.loc	8 830 20                @ ../../../../../Library/StdDriver/src/clk.c:830:20
	str	r0, [sp, #48]
.Ltmp99:
	.loc	8 831 17 is_stmt 1      @ ../../../../../Library/StdDriver/src/clk.c:831:17
	ldr	r0, [sp, #48]
	.loc	8 831 24 is_stmt 0      @ ../../../../../Library/StdDriver/src/clk.c:831:24
	ldr	r1, __arm_cp.12_13
	.loc	8 831 38                @ ../../../../../Library/StdDriver/src/clk.c:831:38
	cmp	r0, r1
	blo	.LBB12_32
	b	.LBB12_16
.LBB12_16:                              @   in Loop: Header=BB12_14 Depth=1
	.loc	8 831 42                @ ../../../../../Library/StdDriver/src/clk.c:831:42
	ldr	r0, [sp, #48]
	.loc	8 831 49                @ ../../../../../Library/StdDriver/src/clk.c:831:49
	ldr	r1, __arm_cp.12_14
.Ltmp100:
	.loc	8 831 16                @ ../../../../../Library/StdDriver/src/clk.c:831:16
	cmp	r0, r1
	bhi	.LBB12_32
	b	.LBB12_17
.LBB12_17:                              @   in Loop: Header=BB12_14 Depth=1
.Ltmp101:
	.loc	8 833 27 is_stmt 1      @ ../../../../../Library/StdDriver/src/clk.c:833:27
	movs	r0, #2
	str	r0, [sp, #60]
	.loc	8 833 21 is_stmt 0      @ ../../../../../Library/StdDriver/src/clk.c:833:21
	b	.LBB12_18
.LBB12_18:                              @   Parent Loop BB12_14 Depth=1
                                        @ =>  This Inner Loop Header: Depth=2
.Ltmp102:
	.loc	8 833 34                @ ../../../../../Library/StdDriver/src/clk.c:833:34
	ldr	r0, [sp, #60]
	.loc	8 833 40                @ ../../../../../Library/StdDriver/src/clk.c:833:40
	ldr	r1, __arm_cp.12_15
.Ltmp103:
	.loc	8 833 17                @ ../../../../../Library/StdDriver/src/clk.c:833:17
	cmp	r0, r1
	bhi	.LBB12_31
	b	.LBB12_19
.LBB12_19:                              @   in Loop: Header=BB12_18 Depth=2
.Ltmp104:
	.loc	8 835 32 is_stmt 1      @ ../../../../../Library/StdDriver/src/clk.c:835:32
	ldr	r0, [sp, #48]
	.loc	8 835 41 is_stmt 0      @ ../../../../../Library/StdDriver/src/clk.c:835:41
	ldr	r1, [sp, #60]
	.loc	8 835 39                @ ../../../../../Library/StdDriver/src/clk.c:835:39
	muls	r1, r0, r1
	.loc	8 835 48                @ ../../../../../Library/StdDriver/src/clk.c:835:48
	lsls	r0, r1, #1
	.loc	8 835 29                @ ../../../../../Library/StdDriver/src/clk.c:835:29
	str	r0, [sp, #44]
.Ltmp105:
	.loc	8 836 25 is_stmt 1      @ ../../../../../Library/StdDriver/src/clk.c:836:25
	ldr	r0, [sp, #44]
	.loc	8 836 33 is_stmt 0      @ ../../../../../Library/StdDriver/src/clk.c:836:33
	ldr	r1, __arm_cp.12_16
	.loc	8 836 48                @ ../../../../../Library/StdDriver/src/clk.c:836:48
	cmp	r0, r1
	blo	.LBB12_29
	b	.LBB12_20
.LBB12_20:                              @   in Loop: Header=BB12_18 Depth=2
	.loc	8 836 52                @ ../../../../../Library/StdDriver/src/clk.c:836:52
	ldr	r0, [sp, #44]
	.loc	8 836 60                @ ../../../../../Library/StdDriver/src/clk.c:836:60
	ldr	r1, __arm_cp.12_17
.Ltmp106:
	.loc	8 836 24                @ ../../../../../Library/StdDriver/src/clk.c:836:24
	cmp	r0, r1
	bhi	.LBB12_29
	b	.LBB12_21
.LBB12_21:                              @   in Loop: Header=BB12_18 Depth=2
.Ltmp107:
	.loc	8 838 36 is_stmt 1      @ ../../../../../Library/StdDriver/src/clk.c:838:36
	ldr	r0, [sp, #44]
	.loc	8 838 46 is_stmt 0      @ ../../../../../Library/StdDriver/src/clk.c:838:46
	ldr	r1, [sp, #72]
	.loc	8 838 35                @ ../../../../../Library/StdDriver/src/clk.c:838:35
	cmp	r0, r1
	bls	.LBB12_23
	b	.LBB12_22
.LBB12_22:                              @   in Loop: Header=BB12_18 Depth=2
	.loc	8 838 60                @ ../../../../../Library/StdDriver/src/clk.c:838:60
	ldr	r0, [sp, #44]
	.loc	8 838 70                @ ../../../../../Library/StdDriver/src/clk.c:838:70
	ldr	r1, [sp, #72]
	.loc	8 838 68                @ ../../../../../Library/StdDriver/src/clk.c:838:68
	subs	r0, r0, r1
	.loc	8 838 35                @ ../../../../../Library/StdDriver/src/clk.c:838:35
	str	r0, [sp, #8]            @ 4-byte Spill
	b	.LBB12_24
.LBB12_23:                              @   in Loop: Header=BB12_18 Depth=2
	.loc	8 838 83                @ ../../../../../Library/StdDriver/src/clk.c:838:83
	ldr	r0, [sp, #72]
	.loc	8 838 96                @ ../../../../../Library/StdDriver/src/clk.c:838:96
	ldr	r1, [sp, #44]
	.loc	8 838 94                @ ../../../../../Library/StdDriver/src/clk.c:838:94
	subs	r0, r0, r1
	.loc	8 838 35                @ ../../../../../Library/StdDriver/src/clk.c:838:35
	str	r0, [sp, #8]            @ 4-byte Spill
	b	.LBB12_24
.LBB12_24:                              @   in Loop: Header=BB12_18 Depth=2
	ldr	r0, [sp, #8]            @ 4-byte Reload
	.loc	8 838 33                @ ../../../../../Library/StdDriver/src/clk.c:838:33
	str	r0, [sp, #40]
.Ltmp108:
	.loc	8 839 28 is_stmt 1      @ ../../../../../Library/StdDriver/src/clk.c:839:28
	ldr	r0, [sp, #40]
	.loc	8 839 38 is_stmt 0      @ ../../../../../Library/StdDriver/src/clk.c:839:38
	ldr	r1, [sp, #36]
.Ltmp109:
	.loc	8 839 28                @ ../../../../../Library/StdDriver/src/clk.c:839:28
	cmp	r0, r1
	bhs	.LBB12_28
	b	.LBB12_25
.LBB12_25:                              @   in Loop: Header=BB12_18 Depth=2
.Ltmp110:
	.loc	8 841 38 is_stmt 1      @ ../../../../../Library/StdDriver/src/clk.c:841:38
	ldr	r0, [sp, #40]
	.loc	8 841 36 is_stmt 0      @ ../../../../../Library/StdDriver/src/clk.c:841:36
	str	r0, [sp, #36]
	.loc	8 842 40 is_stmt 1      @ ../../../../../Library/StdDriver/src/clk.c:842:40
	ldr	r0, [sp, #64]
	.loc	8 842 38 is_stmt 0      @ ../../../../../Library/StdDriver/src/clk.c:842:38
	str	r0, [sp, #28]
	.loc	8 843 40 is_stmt 1      @ ../../../../../Library/StdDriver/src/clk.c:843:40
	ldr	r0, [sp, #60]
	.loc	8 843 38 is_stmt 0      @ ../../../../../Library/StdDriver/src/clk.c:843:38
	str	r0, [sp, #32]
.Ltmp111:
	.loc	8 846 32 is_stmt 1      @ ../../../../../Library/StdDriver/src/clk.c:846:32
	ldr	r0, [sp, #36]
.Ltmp112:
	.loc	8 846 32 is_stmt 0      @ ../../../../../Library/StdDriver/src/clk.c:846:32
	cmp	r0, #0
	bne	.LBB12_27
	b	.LBB12_26
.LBB12_26:                              @   in Loop: Header=BB12_14 Depth=1
.Ltmp113:
	.loc	8 848 33 is_stmt 1      @ ../../../../../Library/StdDriver/src/clk.c:848:33
	b	.LBB12_31
.Ltmp114:
.LBB12_27:                              @   in Loop: Header=BB12_18 Depth=2
	.loc	8 850 25                @ ../../../../../Library/StdDriver/src/clk.c:850:25
	b	.LBB12_28
.Ltmp115:
.LBB12_28:                              @   in Loop: Header=BB12_18 Depth=2
	.loc	8 851 21                @ ../../../../../Library/StdDriver/src/clk.c:851:21
	b	.LBB12_29
.Ltmp116:
.LBB12_29:                              @   in Loop: Header=BB12_18 Depth=2
	.loc	8 852 17                @ ../../../../../Library/StdDriver/src/clk.c:852:17
	b	.LBB12_30
.Ltmp117:
.LBB12_30:                              @   in Loop: Header=BB12_18 Depth=2
	.loc	8 833 55                @ ../../../../../Library/StdDriver/src/clk.c:833:55
	ldr	r0, [sp, #60]
	adds	r0, r0, #1
	str	r0, [sp, #60]
	.loc	8 833 17 is_stmt 0      @ ../../../../../Library/StdDriver/src/clk.c:833:17
	b	.LBB12_18
.Ltmp118:
.LBB12_31:                              @   in Loop: Header=BB12_14 Depth=1
	.loc	8 853 13 is_stmt 1      @ ../../../../../Library/StdDriver/src/clk.c:853:13
	b	.LBB12_32
.Ltmp119:
.LBB12_32:                              @   in Loop: Header=BB12_14 Depth=1
	.loc	8 854 9                 @ ../../../../../Library/StdDriver/src/clk.c:854:9
	b	.LBB12_33
.Ltmp120:
.LBB12_33:                              @   in Loop: Header=BB12_14 Depth=1
	.loc	8 828 35                @ ../../../../../Library/StdDriver/src/clk.c:828:35
	ldr	r0, [sp, #64]
	adds	r0, r0, #1
	str	r0, [sp, #64]
	.loc	8 828 9 is_stmt 0       @ ../../../../../Library/StdDriver/src/clk.c:828:9
	b	.LBB12_14
.Ltmp121:
.LBB12_34:
	.loc	8 857 23 is_stmt 1      @ ../../../../../Library/StdDriver/src/clk.c:857:23
	ldr	r0, [sp, #76]
	.loc	8 857 39 is_stmt 0      @ ../../../../../Library/StdDriver/src/clk.c:857:39
	ldr	r1, [sp, #56]
	.loc	8 857 45                @ ../../../../../Library/StdDriver/src/clk.c:857:45
	lsls	r1, r1, #14
	.loc	8 857 36                @ ../../../../../Library/StdDriver/src/clk.c:857:36
	orrs	r0, r1
	.loc	8 857 56                @ ../../../../../Library/StdDriver/src/clk.c:857:56
	ldr	r1, [sp, #28]
	.loc	8 857 65                @ ../../../../../Library/StdDriver/src/clk.c:857:65
	lsls	r1, r1, #9
	.loc	8 857 72                @ ../../../../../Library/StdDriver/src/clk.c:857:72
	ldr	r2, __arm_cp.12_12
	adds	r1, r1, r2
	.loc	8 857 52                @ ../../../../../Library/StdDriver/src/clk.c:857:52
	orrs	r0, r1
	.loc	8 857 81                @ ../../../../../Library/StdDriver/src/clk.c:857:81
	ldr	r1, [sp, #32]
	.loc	8 857 90                @ ../../../../../Library/StdDriver/src/clk.c:857:90
	subs	r1, r1, #2
	.loc	8 857 78                @ ../../../../../Library/StdDriver/src/clk.c:857:78
	orrs	r0, r1
	.loc	8 857 21                @ ../../../../../Library/StdDriver/src/clk.c:857:21
	ldr	r1, __arm_cp.12_6
	str	r0, [r1]
	.loc	8 860 21 is_stmt 1      @ ../../../../../Library/StdDriver/src/clk.c:860:21
	ldr	r0, [sp, #68]
	.loc	8 860 38 is_stmt 0      @ ../../../../../Library/StdDriver/src/clk.c:860:38
	ldr	r1, [sp, #56]
	.loc	8 860 44                @ ../../../../../Library/StdDriver/src/clk.c:860:44
	adds	r1, r1, #1
	.loc	8 860 53                @ ../../../../../Library/StdDriver/src/clk.c:860:53
	ldr	r2, [sp, #28]
	.loc	8 860 51                @ ../../../../../Library/StdDriver/src/clk.c:860:51
	muls	r2, r1, r2
	.loc	8 860 34                @ ../../../../../Library/StdDriver/src/clk.c:860:34
	udiv	r0, r0, r2
	.loc	8 860 66                @ ../../../../../Library/StdDriver/src/clk.c:860:66
	ldr	r1, [sp, #32]
	.loc	8 860 63                @ ../../../../../Library/StdDriver/src/clk.c:860:63
	muls	r0, r1, r0
	lsls	r0, r0, #1
	.loc	8 860 19                @ ../../../../../Library/StdDriver/src/clk.c:860:19
	str	r0, [sp, #52]
	.loc	8 862 5 is_stmt 1       @ ../../../../../Library/StdDriver/src/clk.c:862:5
	b	.LBB12_39
.Ltmp122:
.LBB12_35:
	.loc	8 867 18                @ ../../../../../Library/StdDriver/src/clk.c:867:18
	ldr	r0, __arm_cp.12_4
	ldr	r0, [r0]
	.loc	8 867 24 is_stmt 0      @ ../../../../../Library/StdDriver/src/clk.c:867:24
	movw	r1, #768
.Ltmp123:
	.loc	8 867 12                @ ../../../../../Library/StdDriver/src/clk.c:867:12
	tst	r0, r1
	bne	.LBB12_37
	b	.LBB12_36
.LBB12_36:
.Ltmp124:
	.loc	8 871 27 is_stmt 1      @ ../../../../../Library/StdDriver/src/clk.c:871:27
	ldr	r0, [sp, #76]
	.loc	8 871 40 is_stmt 0      @ ../../../../../Library/StdDriver/src/clk.c:871:40
	ldr	r1, __arm_cp.12_8
	orrs	r0, r1
	.loc	8 871 25                @ ../../../../../Library/StdDriver/src/clk.c:871:25
	ldr	r1, __arm_cp.12_6
	str	r0, [r1]
	.loc	8 874 23 is_stmt 1      @ ../../../../../Library/StdDriver/src/clk.c:874:23
	ldr	r0, __arm_cp.12_9
	str	r0, [sp, #52]
	.loc	8 876 9                 @ ../../../../../Library/StdDriver/src/clk.c:876:9
	b	.LBB12_38
.Ltmp125:
.LBB12_37:
	.loc	8 881 27                @ ../../../../../Library/StdDriver/src/clk.c:881:27
	ldr	r0, [sp, #76]
	.loc	8 881 40 is_stmt 0      @ ../../../../../Library/StdDriver/src/clk.c:881:40
	ldr	r1, __arm_cp.12_5
	orrs	r0, r1
	.loc	8 881 25                @ ../../../../../Library/StdDriver/src/clk.c:881:25
	ldr	r1, __arm_cp.12_6
	str	r0, [r1]
	.loc	8 884 23 is_stmt 1      @ ../../../../../Library/StdDriver/src/clk.c:884:23
	ldr	r0, __arm_cp.12_7
	str	r0, [sp, #52]
	b	.LBB12_38
.Ltmp126:
.LBB12_38:
	.loc	8 0 23 is_stmt 0        @ ../../../../../Library/StdDriver/src/clk.c:0:23
	b	.LBB12_39
.LBB12_39:
	.loc	8 890 5 is_stmt 1       @ ../../../../../Library/StdDriver/src/clk.c:890:5
	movs	r0, #4
	bl	CLK_WaitClockReady
	.loc	8 893 12                @ ../../../../../Library/StdDriver/src/clk.c:893:12
	ldr	r1, [sp, #52]
	.loc	8 893 5 is_stmt 0       @ ../../../../../Library/StdDriver/src/clk.c:893:5
	str	r0, [sp, #4]            @ 4-byte Spill
	mov	r0, r1
	add	sp, #80
	pop	{r7, pc}
.Ltmp127:
	.p2align	2
@ %bb.40:
	.loc	8 0 5                   @ ../../../../../Library/StdDriver/src/clk.c:0:5
__arm_cp.12_0:
	.long	1073742336              @ 0x40000200
.Lcpi_end44:
	.size	__arm_cp.12_0, .Lcpi_end44-__arm_cp.12_0
__arm_cp.12_1:
	.long	12000000                @ 0xb71b00
.Lcpi_end45:
	.size	__arm_cp.12_1, .Lcpi_end45-__arm_cp.12_1
__arm_cp.12_2:
	.long	144000000               @ 0x8954400
.Lcpi_end46:
	.size	__arm_cp.12_2, .Lcpi_end46-__arm_cp.12_2
__arm_cp.12_3:
	.long	24000000                @ 0x16e3600
.Lcpi_end47:
	.size	__arm_cp.12_3, .Lcpi_end47-__arm_cp.12_3
__arm_cp.12_4:
	.long	1073742332              @ 0x400001fc
.Lcpi_end48:
	.size	__arm_cp.12_4, .Lcpi_end48-__arm_cp.12_4
__arm_cp.12_5:
	.long	49678                   @ 0xc20e
.Lcpi_end49:
	.size	__arm_cp.12_5, .Lcpi_end49-__arm_cp.12_5
__arm_cp.12_6:
	.long	1073742400              @ 0x40000240
.Lcpi_end50:
	.size	__arm_cp.12_6, .Lcpi_end50-__arm_cp.12_6
__arm_cp.12_7:
	.long	48000000                @ 0x2dc6c00
.Lcpi_end51:
	.size	__arm_cp.12_7, .Lcpi_end51-__arm_cp.12_7
__arm_cp.12_8:
	.long	17422                   @ 0x440e
.Lcpi_end52:
	.size	__arm_cp.12_8, .Lcpi_end52-__arm_cp.12_8
__arm_cp.12_9:
	.long	64000000                @ 0x3d09000
.Lcpi_end53:
	.size	__arm_cp.12_9, .Lcpi_end53-__arm_cp.12_9
__arm_cp.12_10:
	.long	47999999                @ 0x2dc6bff
.Lcpi_end54:
	.size	__arm_cp.12_10, .Lcpi_end54-__arm_cp.12_10
__arm_cp.12_11:
	.long	95999999                @ 0x5b8d7ff
.Lcpi_end55:
	.size	__arm_cp.12_11, .Lcpi_end55-__arm_cp.12_11
__arm_cp.12_12:
	.long	4294966784              @ 0xfffffe00
.Lcpi_end56:
	.size	__arm_cp.12_12, .Lcpi_end56-__arm_cp.12_12
__arm_cp.12_13:
	.long	2000000                 @ 0x1e8480
.Lcpi_end57:
	.size	__arm_cp.12_13, .Lcpi_end57-__arm_cp.12_13
__arm_cp.12_14:
	.long	8000000                 @ 0x7a1200
.Lcpi_end58:
	.size	__arm_cp.12_14, .Lcpi_end58-__arm_cp.12_14
__arm_cp.12_15:
	.long	513                     @ 0x201
.Lcpi_end59:
	.size	__arm_cp.12_15, .Lcpi_end59-__arm_cp.12_15
__arm_cp.12_16:
	.long	96000000                @ 0x5b8d800
.Lcpi_end60:
	.size	__arm_cp.12_16, .Lcpi_end60-__arm_cp.12_16
__arm_cp.12_17:
	.long	200000000               @ 0xbebc200
.Lcpi_end61:
	.size	__arm_cp.12_17, .Lcpi_end61-__arm_cp.12_17
.Lfunc_end12:
	.size	CLK_EnablePLL, .Lfunc_end12-CLK_EnablePLL
	.cfi_endproc
	.cantunwind
	.fnend
                                        @ -- End function
	.section	.text.CLK_SetHCLK,"ax",%progbits
	.hidden	CLK_SetHCLK             @ -- Begin function CLK_SetHCLK
	.globl	CLK_SetHCLK
	.p2align	2
	.type	CLK_SetHCLK,%function
	.code	16                      @ @CLK_SetHCLK
	.thumb_func
CLK_SetHCLK:
.Lfunc_begin13:
	.loc	8 389 0 is_stmt 1       @ ../../../../../Library/StdDriver/src/clk.c:389:0
	.fnstart
	.cfi_startproc
@ %bb.0:
	.save	{r4, r5, r7, lr}
	push	{r4, r5, r7, lr}
	.cfi_def_cfa_offset 16
	.cfi_offset lr, -4
	.cfi_offset r7, -8
	.cfi_offset r5, -12
	.cfi_offset r4, -16
	.pad	#24
	sub	sp, #24
	.cfi_def_cfa_offset 40
	mov	r2, r1
	mov	r3, r0
	str	r0, [sp, #20]
	str	r1, [sp, #16]
.Ltmp128:
	.loc	8 393 23 prologue_end   @ ../../../../../Library/StdDriver/src/clk.c:393:23
	ldr	r0, __arm_cp.13_0
	ldr	r0, [r0]
	movs	r1, #16
	.loc	8 393 30 is_stmt 0      @ ../../../../../Library/StdDriver/src/clk.c:393:30
	ands	r0, r1
	.loc	8 393 16                @ ../../../../../Library/StdDriver/src/clk.c:393:16
	str	r0, [sp, #12]
	.loc	8 393 23                @ ../../../../../Library/StdDriver/src/clk.c:393:23
	ldr	r0, __arm_cp.13_1
	.loc	8 396 17 is_stmt 1      @ ../../../../../Library/StdDriver/src/clk.c:396:17
	ldr	r4, [r0]
	movs	r5, #4
	orrs	r4, r5
	str	r4, [r0]
	.loc	8 397 5                 @ ../../../../../Library/StdDriver/src/clk.c:397:5
	mov	r0, r1
	str	r2, [sp, #8]            @ 4-byte Spill
	str	r3, [sp, #4]            @ 4-byte Spill
	bl	CLK_WaitClockReady
	.loc	8 398 26                @ ../../../../../Library/StdDriver/src/clk.c:398:26
	ldr	r1, __arm_cp.13_2
	ldr	r2, [r1]
	.loc	8 398 64 is_stmt 0      @ ../../../../../Library/StdDriver/src/clk.c:398:64
	movs	r3, #7
	orrs	r2, r3
	.loc	8 398 18                @ ../../../../../Library/StdDriver/src/clk.c:398:18
	str	r2, [r1]
	.loc	8 401 17 is_stmt 1      @ ../../../../../Library/StdDriver/src/clk.c:401:17
	ldr	r1, __arm_cp.13_3
	ldr	r2, [r1]
	movw	r3, #256
	bics	r2, r3
	str	r2, [r1]
	.loc	8 404 26                @ ../../../../../Library/StdDriver/src/clk.c:404:26
	ldr	r1, __arm_cp.13_4
	ldr	r2, [r1]
	.loc	8 404 34 is_stmt 0      @ ../../../../../Library/StdDriver/src/clk.c:404:34
	movs	r3, #15
	bics	r2, r3
	.loc	8 404 66                @ ../../../../../Library/StdDriver/src/clk.c:404:66
	ldr	r3, [sp, #16]
	.loc	8 404 64                @ ../../../../../Library/StdDriver/src/clk.c:404:64
	orrs	r2, r3
	.loc	8 404 18                @ ../../../../../Library/StdDriver/src/clk.c:404:18
	str	r2, [r1]
.Ltmp129:
	.loc	8 407 8 is_stmt 1       @ ../../../../../Library/StdDriver/src/clk.c:407:8
	ldr	r1, [sp, #20]
.Ltmp130:
	.loc	8 407 8 is_stmt 0       @ ../../../../../Library/StdDriver/src/clk.c:407:8
	cmp	r1, #5
	str	r0, [sp]                @ 4-byte Spill
	bne	.LBB13_2
	b	.LBB13_1
.LBB13_1:
.Ltmp131:
	.loc	8 409 29 is_stmt 1      @ ../../../../../Library/StdDriver/src/clk.c:409:29
	ldr	r0, __arm_cp.13_3
	ldr	r1, [r0]
	.loc	8 409 86 is_stmt 0      @ ../../../../../Library/StdDriver/src/clk.c:409:86
	movw	r2, #259
	.loc	8 409 36                @ ../../../../../Library/StdDriver/src/clk.c:409:36
	orrs	r1, r2
	.loc	8 409 86                @ ../../../../../Library/StdDriver/src/clk.c:409:86
	movs	r2, #12
	bics	r1, r2
	.loc	8 409 21                @ ../../../../../Library/StdDriver/src/clk.c:409:21
	str	r1, [r0]
	.loc	8 410 5 is_stmt 1       @ ../../../../../Library/StdDriver/src/clk.c:410:5
	b	.LBB13_2
.Ltmp132:
.LBB13_2:
	.loc	8 413 26                @ ../../../../../Library/StdDriver/src/clk.c:413:26
	ldr	r0, __arm_cp.13_2
	ldr	r1, [r0]
	.loc	8 413 34 is_stmt 0      @ ../../../../../Library/StdDriver/src/clk.c:413:34
	movs	r2, #7
	bics	r1, r2
	.loc	8 413 66                @ ../../../../../Library/StdDriver/src/clk.c:413:66
	ldr	r2, [sp, #20]
	.loc	8 413 64                @ ../../../../../Library/StdDriver/src/clk.c:413:64
	orrs	r1, r2
	.loc	8 413 18                @ ../../../../../Library/StdDriver/src/clk.c:413:18
	str	r1, [r0]
	.loc	8 416 5 is_stmt 1       @ ../../../../../Library/StdDriver/src/clk.c:416:5
	bl	SystemCoreClockUpdate
.Ltmp133:
	.loc	8 419 8                 @ ../../../../../Library/StdDriver/src/clk.c:419:8
	ldr	r0, [sp, #12]
.Ltmp134:
	.loc	8 419 8 is_stmt 0       @ ../../../../../Library/StdDriver/src/clk.c:419:8
	cmp	r0, #0
	bne	.LBB13_4
	b	.LBB13_3
.LBB13_3:
.Ltmp135:
	.loc	8 421 21 is_stmt 1      @ ../../../../../Library/StdDriver/src/clk.c:421:21
	ldr	r0, __arm_cp.13_1
	ldr	r1, [r0]
	movs	r2, #4
	bics	r1, r2
	str	r1, [r0]
	.loc	8 422 5                 @ ../../../../../Library/StdDriver/src/clk.c:422:5
	b	.LBB13_4
.Ltmp136:
.LBB13_4:
	.loc	8 423 1                 @ ../../../../../Library/StdDriver/src/clk.c:423:1
	add	sp, #24
	pop	{r4, r5, r7, pc}
.Ltmp137:
	.p2align	2
@ %bb.5:
	.loc	8 0 1 is_stmt 0         @ ../../../../../Library/StdDriver/src/clk.c:0:1
__arm_cp.13_0:
	.long	1073742416              @ 0x40000250
.Lcpi_end62:
	.size	__arm_cp.13_0, .Lcpi_end62-__arm_cp.13_0
__arm_cp.13_1:
	.long	1073742336              @ 0x40000200
.Lcpi_end63:
	.size	__arm_cp.13_1, .Lcpi_end63-__arm_cp.13_1
__arm_cp.13_2:
	.long	1073742352              @ 0x40000210
.Lcpi_end64:
	.size	__arm_cp.13_2, .Lcpi_end64-__arm_cp.13_2
__arm_cp.13_3:
	.long	1073791052              @ 0x4000c04c
.Lcpi_end65:
	.size	__arm_cp.13_3, .Lcpi_end65-__arm_cp.13_3
__arm_cp.13_4:
	.long	1073742368              @ 0x40000220
.Lcpi_end66:
	.size	__arm_cp.13_4, .Lcpi_end66-__arm_cp.13_4
.Lfunc_end13:
	.size	CLK_SetHCLK, .Lfunc_end13-CLK_SetHCLK
	.cfi_endproc
	.cantunwind
	.fnend
                                        @ -- End function
	.section	.text.CLK_SetModuleClock,"ax",%progbits
	.hidden	CLK_SetModuleClock      @ -- Begin function CLK_SetModuleClock
	.globl	CLK_SetModuleClock
	.p2align	2
	.type	CLK_SetModuleClock,%function
	.code	16                      @ @CLK_SetModuleClock
	.thumb_func
CLK_SetModuleClock:
.Lfunc_begin14:
	.loc	8 542 0 is_stmt 1       @ ../../../../../Library/StdDriver/src/clk.c:542:0
	.fnstart
	.cfi_startproc
@ %bb.0:
	.save	{r4, r5, r7, lr}
	push	{r4, r5, r7, lr}
	.cfi_def_cfa_offset 16
	.cfi_offset lr, -4
	.cfi_offset r7, -8
	.cfi_offset r5, -12
	.cfi_offset r4, -16
	.pad	#64
	sub	sp, #64
	.cfi_def_cfa_offset 80
	mov	r3, r2
	mov	r4, r1
	mov	r5, r0
	str	r0, [sp, #60]
	str	r1, [sp, #56]
	str	r2, [sp, #52]
	movs	r0, #0
.Ltmp138:
	.loc	8 543 14 prologue_end   @ ../../../../../Library/StdDriver/src/clk.c:543:14
	str	r0, [sp, #48]
	.loc	8 543 28 is_stmt 0      @ ../../../../../Library/StdDriver/src/clk.c:543:28
	str	r0, [sp, #44]
	.loc	8 544 14 is_stmt 1      @ ../../../../../Library/StdDriver/src/clk.c:544:14
	ldr	r0, __arm_cp.14_0
	ldr	r1, [r0, #12]
	str	r1, [sp, #40]
	ldr	r1, [r0, #8]
	str	r1, [sp, #36]
	ldr	r1, [r0, #4]
	str	r1, [sp, #32]
	ldr	r0, [r0]
	str	r0, [sp, #28]
	.loc	8 545 14                @ ../../../../../Library/StdDriver/src/clk.c:545:14
	ldr	r0, __arm_cp.14_1
	ldr	r1, [r0, #12]
	str	r1, [sp, #24]
	ldr	r1, [r0, #8]
	str	r1, [sp, #20]
	ldr	r1, [r0, #4]
	str	r1, [sp, #16]
	ldr	r0, [r0]
	str	r0, [sp, #12]
.Ltmp139:
	.loc	8 547 8                 @ ../../../../../Library/StdDriver/src/clk.c:547:8
	ldr	r0, [sp, #60]
	lsrs	r0, r0, #10
.Ltmp140:
	.loc	8 547 8 is_stmt 0       @ ../../../../../Library/StdDriver/src/clk.c:547:8
	lsls	r0, r0, #24
	cmp	r0, #0
	str	r3, [sp, #8]            @ 4-byte Spill
	str	r4, [sp, #4]            @ 4-byte Spill
	str	r5, [sp]                @ 4-byte Spill
	beq	.LBB14_2
	b	.LBB14_1
.LBB14_1:
	.loc	8 0 8                   @ ../../../../../Library/StdDriver/src/clk.c:0:8
	add	r0, sp, #60
.Ltmp141:
	.loc	8 550 56 is_stmt 1      @ ../../../../../Library/StdDriver/src/clk.c:550:56
	ldrh	r0, [r0, #2]
	movs	r1, #12
	.loc	8 550 45 is_stmt 0      @ ../../../../../Library/StdDriver/src/clk.c:550:45
	ands	r0, r1
	add	r1, sp, #12
	ldr	r0, [r1, r0]
	.loc	8 550 42                @ ../../../../../Library/StdDriver/src/clk.c:550:42
	ldr	r1, __arm_cp.14_2
	adds	r0, r0, r1
	.loc	8 550 16                @ ../../../../../Library/StdDriver/src/clk.c:550:16
	str	r0, [sp, #44]
	.loc	8 552 24 is_stmt 1      @ ../../../../../Library/StdDriver/src/clk.c:552:24
	ldr	r0, [sp, #44]
	ldr	r0, [r0]
	.loc	8 552 41 is_stmt 0      @ ../../../../../Library/StdDriver/src/clk.c:552:41
	ldr	r1, [sp, #60]
	lsrs	r2, r1, #10
	uxtb	r2, r2
	.loc	8 552 76                @ ../../../../../Library/StdDriver/src/clk.c:552:76
	lsrs	r1, r1, #5
	movs	r3, #31
	ands	r1, r3
	.loc	8 552 73                @ ../../../../../Library/StdDriver/src/clk.c:552:73
	lsls	r2, r1
	.loc	8 552 36                @ ../../../../../Library/StdDriver/src/clk.c:552:36
	bics	r0, r2
	.loc	8 552 113               @ ../../../../../Library/StdDriver/src/clk.c:552:113
	ldr	r1, [sp, #52]
	.loc	8 552 111               @ ../../../../../Library/StdDriver/src/clk.c:552:111
	orrs	r0, r1
	.loc	8 552 9                 @ ../../../../../Library/StdDriver/src/clk.c:552:9
	ldr	r1, [sp, #44]
	.loc	8 552 21                @ ../../../../../Library/StdDriver/src/clk.c:552:21
	str	r0, [r1]
	.loc	8 553 5 is_stmt 1       @ ../../../../../Library/StdDriver/src/clk.c:553:5
	b	.LBB14_2
.Ltmp142:
.LBB14_2:
	.loc	8 555 8                 @ ../../../../../Library/StdDriver/src/clk.c:555:8
	ldr	r0, [sp, #60]
	lsrs	r0, r0, #25
.Ltmp143:
	.loc	8 555 8 is_stmt 0       @ ../../../../../Library/StdDriver/src/clk.c:555:8
	lsls	r0, r0, #29
	cmp	r0, #0
	beq	.LBB14_4
	b	.LBB14_3
.LBB14_3:
.Ltmp144:
	.loc	8 558 56 is_stmt 1      @ ../../../../../Library/StdDriver/src/clk.c:558:56
	ldr	r0, [sp, #60]
	lsrs	r0, r0, #26
	movs	r1, #12
	.loc	8 558 45 is_stmt 0      @ ../../../../../Library/StdDriver/src/clk.c:558:45
	ands	r0, r1
	add	r1, sp, #28
	ldr	r0, [r1, r0]
	.loc	8 558 42                @ ../../../../../Library/StdDriver/src/clk.c:558:42
	ldr	r1, __arm_cp.14_3
	adds	r0, r0, r1
	.loc	8 558 16                @ ../../../../../Library/StdDriver/src/clk.c:558:16
	str	r0, [sp, #48]
	.loc	8 560 24 is_stmt 1      @ ../../../../../Library/StdDriver/src/clk.c:560:24
	ldr	r0, [sp, #48]
	ldr	r0, [r0]
	.loc	8 560 41 is_stmt 0      @ ../../../../../Library/StdDriver/src/clk.c:560:41
	ldr	r1, [sp, #60]
	lsrs	r2, r1, #25
	movs	r3, #7
	ands	r2, r3
	.loc	8 560 76                @ ../../../../../Library/StdDriver/src/clk.c:560:76
	lsrs	r1, r1, #20
	movs	r3, #31
	ands	r1, r3
	.loc	8 560 73                @ ../../../../../Library/StdDriver/src/clk.c:560:73
	lsls	r2, r1
	.loc	8 560 36                @ ../../../../../Library/StdDriver/src/clk.c:560:36
	bics	r0, r2
	.loc	8 560 113               @ ../../../../../Library/StdDriver/src/clk.c:560:113
	ldr	r1, [sp, #56]
	.loc	8 560 111               @ ../../../../../Library/StdDriver/src/clk.c:560:111
	orrs	r0, r1
	.loc	8 560 9                 @ ../../../../../Library/StdDriver/src/clk.c:560:9
	ldr	r1, [sp, #48]
	.loc	8 560 21                @ ../../../../../Library/StdDriver/src/clk.c:560:21
	str	r0, [r1]
	.loc	8 561 5 is_stmt 1       @ ../../../../../Library/StdDriver/src/clk.c:561:5
	b	.LBB14_4
.Ltmp145:
.LBB14_4:
	.loc	8 562 1                 @ ../../../../../Library/StdDriver/src/clk.c:562:1
	add	sp, #64
	pop	{r4, r5, r7, pc}
.Ltmp146:
	.p2align	2
@ %bb.5:
	.loc	8 0 1 is_stmt 0         @ ../../../../../Library/StdDriver/src/clk.c:0:1
__arm_cp.14_0:
	.long	.LCLK_SetModuleClock.au32SelTbl
.Lcpi_end67:
	.size	__arm_cp.14_0, .Lcpi_end67-__arm_cp.14_0
__arm_cp.14_1:
	.long	.LCLK_SetModuleClock.au32DivTbl
.Lcpi_end68:
	.size	__arm_cp.14_1, .Lcpi_end68-__arm_cp.14_1
__arm_cp.14_2:
	.long	1073742368              @ 0x40000220
.Lcpi_end69:
	.size	__arm_cp.14_2, .Lcpi_end69-__arm_cp.14_2
__arm_cp.14_3:
	.long	1073742352              @ 0x40000210
.Lcpi_end70:
	.size	__arm_cp.14_3, .Lcpi_end70-__arm_cp.14_3
.Lfunc_end14:
	.size	CLK_SetModuleClock, .Lfunc_end14-CLK_SetModuleClock
	.cfi_endproc
	.cantunwind
	.fnend
                                        @ -- End function
	.section	.text.CLK_SetSysTickClockSrc,"ax",%progbits
	.hidden	CLK_SetSysTickClockSrc  @ -- Begin function CLK_SetSysTickClockSrc
	.globl	CLK_SetSysTickClockSrc
	.p2align	2
	.type	CLK_SetSysTickClockSrc,%function
	.code	16                      @ @CLK_SetSysTickClockSrc
	.thumb_func
CLK_SetSysTickClockSrc:
.Lfunc_begin15:
	.loc	8 577 0 is_stmt 1       @ ../../../../../Library/StdDriver/src/clk.c:577:0
	.fnstart
	.cfi_startproc
@ %bb.0:
	.pad	#8
	sub	sp, #8
	.cfi_def_cfa_offset 8
	mov	r1, r0
	str	r0, [sp, #4]
.Ltmp147:
	.loc	8 578 26 prologue_end   @ ../../../../../Library/StdDriver/src/clk.c:578:26
	ldr	r0, __arm_cp.15_0
	ldr	r2, [r0]
	.loc	8 578 34 is_stmt 0      @ ../../../../../Library/StdDriver/src/clk.c:578:34
	movs	r3, #56
	bics	r2, r3
	.loc	8 578 65                @ ../../../../../Library/StdDriver/src/clk.c:578:65
	ldr	r3, [sp, #4]
	.loc	8 578 63                @ ../../../../../Library/StdDriver/src/clk.c:578:63
	orrs	r2, r3
	.loc	8 578 18                @ ../../../../../Library/StdDriver/src/clk.c:578:18
	str	r2, [r0]
	.loc	8 579 1 is_stmt 1       @ ../../../../../Library/StdDriver/src/clk.c:579:1
	str	r1, [sp]                @ 4-byte Spill
	add	sp, #8
	bx	lr
.Ltmp148:
	.p2align	2
@ %bb.1:
	.loc	8 0 1 is_stmt 0         @ ../../../../../Library/StdDriver/src/clk.c:0:1
__arm_cp.15_0:
	.long	1073742352              @ 0x40000210
.Lcpi_end71:
	.size	__arm_cp.15_0, .Lcpi_end71-__arm_cp.15_0
.Lfunc_end15:
	.size	CLK_SetSysTickClockSrc, .Lfunc_end15-CLK_SetSysTickClockSrc
	.cfi_endproc
	.cantunwind
	.fnend
                                        @ -- End function
	.section	.text.CLK_EnableXtalRC,"ax",%progbits
	.hidden	CLK_EnableXtalRC        @ -- Begin function CLK_EnableXtalRC
	.globl	CLK_EnableXtalRC
	.p2align	2
	.type	CLK_EnableXtalRC,%function
	.code	16                      @ @CLK_EnableXtalRC
	.thumb_func
CLK_EnableXtalRC:
.Lfunc_begin16:
	.loc	8 594 0 is_stmt 1       @ ../../../../../Library/StdDriver/src/clk.c:594:0
	.fnstart
	.cfi_startproc
@ %bb.0:
	.pad	#8
	sub	sp, #8
	.cfi_def_cfa_offset 8
	mov	r1, r0
	str	r0, [sp, #4]
.Ltmp149:
	.loc	8 595 20 prologue_end   @ ../../../../../Library/StdDriver/src/clk.c:595:20
	ldr	r0, [sp, #4]
	.loc	8 595 17 is_stmt 0      @ ../../../../../Library/StdDriver/src/clk.c:595:17
	ldr	r2, __arm_cp.16_0
	ldr	r3, [r2]
	orrs	r3, r0
	str	r3, [r2]
	.loc	8 596 1 is_stmt 1       @ ../../../../../Library/StdDriver/src/clk.c:596:1
	str	r1, [sp]                @ 4-byte Spill
	add	sp, #8
	bx	lr
.Ltmp150:
	.p2align	2
@ %bb.1:
	.loc	8 0 1 is_stmt 0         @ ../../../../../Library/StdDriver/src/clk.c:0:1
__arm_cp.16_0:
	.long	1073742336              @ 0x40000200
.Lcpi_end72:
	.size	__arm_cp.16_0, .Lcpi_end72-__arm_cp.16_0
.Lfunc_end16:
	.size	CLK_EnableXtalRC, .Lfunc_end16-CLK_EnableXtalRC
	.cfi_endproc
	.cantunwind
	.fnend
                                        @ -- End function
	.section	.text.CLK_DisableXtalRC,"ax",%progbits
	.hidden	CLK_DisableXtalRC       @ -- Begin function CLK_DisableXtalRC
	.globl	CLK_DisableXtalRC
	.p2align	2
	.type	CLK_DisableXtalRC,%function
	.code	16                      @ @CLK_DisableXtalRC
	.thumb_func
CLK_DisableXtalRC:
.Lfunc_begin17:
	.loc	8 611 0 is_stmt 1       @ ../../../../../Library/StdDriver/src/clk.c:611:0
	.fnstart
	.cfi_startproc
@ %bb.0:
	.pad	#8
	sub	sp, #8
	.cfi_def_cfa_offset 8
	mov	r1, r0
	str	r0, [sp, #4]
.Ltmp151:
	.loc	8 612 21 prologue_end   @ ../../../../../Library/StdDriver/src/clk.c:612:21
	ldr	r0, [sp, #4]
	.loc	8 612 17 is_stmt 0      @ ../../../../../Library/StdDriver/src/clk.c:612:17
	ldr	r2, __arm_cp.17_0
	ldr	r3, [r2]
	bics	r3, r0
	str	r3, [r2]
	.loc	8 613 1 is_stmt 1       @ ../../../../../Library/StdDriver/src/clk.c:613:1
	str	r1, [sp]                @ 4-byte Spill
	add	sp, #8
	bx	lr
.Ltmp152:
	.p2align	2
@ %bb.1:
	.loc	8 0 1 is_stmt 0         @ ../../../../../Library/StdDriver/src/clk.c:0:1
__arm_cp.17_0:
	.long	1073742336              @ 0x40000200
.Lcpi_end73:
	.size	__arm_cp.17_0, .Lcpi_end73-__arm_cp.17_0
.Lfunc_end17:
	.size	CLK_DisableXtalRC, .Lfunc_end17-CLK_DisableXtalRC
	.cfi_endproc
	.cantunwind
	.fnend
                                        @ -- End function
	.section	.text.CLK_EnableModuleClock,"ax",%progbits
	.hidden	CLK_EnableModuleClock   @ -- Begin function CLK_EnableModuleClock
	.globl	CLK_EnableModuleClock
	.p2align	2
	.type	CLK_EnableModuleClock,%function
	.code	16                      @ @CLK_EnableModuleClock
	.thumb_func
CLK_EnableModuleClock:
.Lfunc_begin18:
	.loc	8 674 0 is_stmt 1       @ ../../../../../Library/StdDriver/src/clk.c:674:0
	.fnstart
	.cfi_startproc
@ %bb.0:
	.pad	#16
	sub	sp, #16
	.cfi_def_cfa_offset 16
	mov	r1, r0
	str	r0, [sp, #12]
	movs	r0, #0
.Ltmp153:
	.loc	8 675 14 prologue_end   @ ../../../../../Library/StdDriver/src/clk.c:675:14
	str	r0, [sp, #8]
	.loc	8 675 31 is_stmt 0      @ ../../../../../Library/StdDriver/src/clk.c:675:31
	str	r0, [sp, #4]
	.loc	8 677 25 is_stmt 1      @ ../../../../../Library/StdDriver/src/clk.c:677:25
	ldr	r0, [sp, #12]
	movs	r2, #31
	ands	r0, r2
	.loc	8 677 22 is_stmt 0      @ ../../../../../Library/StdDriver/src/clk.c:677:22
	movs	r2, #1
	lsls	r2, r0
	.loc	8 677 15                @ ../../../../../Library/StdDriver/src/clk.c:677:15
	str	r2, [sp, #8]
	.loc	8 678 16 is_stmt 1      @ ../../../../../Library/StdDriver/src/clk.c:678:16
	ldr	r0, __arm_cp.18_0
	str	r0, [sp, #4]
	.loc	8 679 21                @ ../../../../../Library/StdDriver/src/clk.c:679:21
	ldr	r0, [sp, #12]
	.loc	8 679 49 is_stmt 0      @ ../../../../../Library/StdDriver/src/clk.c:679:49
	lsrs	r0, r0, #28
	.loc	8 679 21                @ ../../../../../Library/StdDriver/src/clk.c:679:21
	movs	r2, #12
	ands	r0, r2
	.loc	8 679 16                @ ../../../../../Library/StdDriver/src/clk.c:679:16
	ldr	r2, [sp, #4]
	adds	r0, r2, r0
	str	r0, [sp, #4]
	.loc	8 681 41 is_stmt 1      @ ../../../../../Library/StdDriver/src/clk.c:681:41
	ldr	r0, [sp, #8]
	.loc	8 681 27 is_stmt 0      @ ../../../../../Library/StdDriver/src/clk.c:681:27
	ldr	r2, [sp, #4]
	.loc	8 681 38                @ ../../../../../Library/StdDriver/src/clk.c:681:38
	ldr	r3, [r2]
	orrs	r3, r0
	str	r3, [r2]
	.loc	8 682 1 is_stmt 1       @ ../../../../../Library/StdDriver/src/clk.c:682:1
	str	r1, [sp]                @ 4-byte Spill
	add	sp, #16
	bx	lr
.Ltmp154:
	.p2align	2
@ %bb.1:
	.loc	8 0 1 is_stmt 0         @ ../../../../../Library/StdDriver/src/clk.c:0:1
__arm_cp.18_0:
	.long	1073742340              @ 0x40000204
.Lcpi_end74:
	.size	__arm_cp.18_0, .Lcpi_end74-__arm_cp.18_0
.Lfunc_end18:
	.size	CLK_EnableModuleClock, .Lfunc_end18-CLK_EnableModuleClock
	.cfi_endproc
	.cantunwind
	.fnend
                                        @ -- End function
	.section	.text.CLK_DisableModuleClock,"ax",%progbits
	.hidden	CLK_DisableModuleClock  @ -- Begin function CLK_DisableModuleClock
	.globl	CLK_DisableModuleClock
	.p2align	2
	.type	CLK_DisableModuleClock,%function
	.code	16                      @ @CLK_DisableModuleClock
	.thumb_func
CLK_DisableModuleClock:
.Lfunc_begin19:
	.loc	8 743 0 is_stmt 1       @ ../../../../../Library/StdDriver/src/clk.c:743:0
	.fnstart
	.cfi_startproc
@ %bb.0:
	.pad	#16
	sub	sp, #16
	.cfi_def_cfa_offset 16
	mov	r1, r0
	str	r0, [sp, #12]
	movs	r0, #0
.Ltmp155:
	.loc	8 744 14 prologue_end   @ ../../../../../Library/StdDriver/src/clk.c:744:14
	str	r0, [sp, #8]
	.loc	8 744 31 is_stmt 0      @ ../../../../../Library/StdDriver/src/clk.c:744:31
	str	r0, [sp, #4]
	.loc	8 746 26 is_stmt 1      @ ../../../../../Library/StdDriver/src/clk.c:746:26
	ldr	r0, [sp, #12]
	movs	r2, #31
	ands	r0, r2
	.loc	8 746 23 is_stmt 0      @ ../../../../../Library/StdDriver/src/clk.c:746:23
	movs	r2, #1
	lsls	r2, r0
	.loc	8 746 17                @ ../../../../../Library/StdDriver/src/clk.c:746:17
	mvns	r0, r2
	.loc	8 746 15                @ ../../../../../Library/StdDriver/src/clk.c:746:15
	str	r0, [sp, #8]
	.loc	8 747 16 is_stmt 1      @ ../../../../../Library/StdDriver/src/clk.c:747:16
	ldr	r0, __arm_cp.19_0
	str	r0, [sp, #4]
	.loc	8 748 21                @ ../../../../../Library/StdDriver/src/clk.c:748:21
	ldr	r0, [sp, #12]
	.loc	8 748 49 is_stmt 0      @ ../../../../../Library/StdDriver/src/clk.c:748:49
	lsrs	r0, r0, #28
	.loc	8 748 21                @ ../../../../../Library/StdDriver/src/clk.c:748:21
	movs	r2, #12
	ands	r0, r2
	.loc	8 748 16                @ ../../../../../Library/StdDriver/src/clk.c:748:16
	ldr	r2, [sp, #4]
	adds	r0, r2, r0
	str	r0, [sp, #4]
	.loc	8 750 32 is_stmt 1      @ ../../../../../Library/StdDriver/src/clk.c:750:32
	ldr	r0, [sp, #8]
	.loc	8 750 18 is_stmt 0      @ ../../../../../Library/StdDriver/src/clk.c:750:18
	ldr	r2, [sp, #4]
	.loc	8 750 29                @ ../../../../../Library/StdDriver/src/clk.c:750:29
	ldr	r3, [r2]
	ands	r3, r0
	str	r3, [r2]
	.loc	8 751 1 is_stmt 1       @ ../../../../../Library/StdDriver/src/clk.c:751:1
	str	r1, [sp]                @ 4-byte Spill
	add	sp, #16
	bx	lr
.Ltmp156:
	.p2align	2
@ %bb.1:
	.loc	8 0 1 is_stmt 0         @ ../../../../../Library/StdDriver/src/clk.c:0:1
__arm_cp.19_0:
	.long	1073742340              @ 0x40000204
.Lcpi_end75:
	.size	__arm_cp.19_0, .Lcpi_end75-__arm_cp.19_0
.Lfunc_end19:
	.size	CLK_DisableModuleClock, .Lfunc_end19-CLK_DisableModuleClock
	.cfi_endproc
	.cantunwind
	.fnend
                                        @ -- End function
	.section	.text.CLK_DisablePLL,"ax",%progbits
	.hidden	CLK_DisablePLL          @ -- Begin function CLK_DisablePLL
	.globl	CLK_DisablePLL
	.p2align	2
	.type	CLK_DisablePLL,%function
	.code	16                      @ @CLK_DisablePLL
	.thumb_func
CLK_DisablePLL:
.Lfunc_begin20:
	.loc	8 904 0 is_stmt 1       @ ../../../../../Library/StdDriver/src/clk.c:904:0
	.fnstart
	.cfi_startproc
@ %bb.0:
	.loc	8 905 17 prologue_end   @ ../../../../../Library/StdDriver/src/clk.c:905:17
	ldr	r0, __arm_cp.20_0
	ldr	r1, [r0]
	movs	r2, #1
	lsls	r2, r2, #16
	orrs	r1, r2
	str	r1, [r0]
	.loc	8 906 1                 @ ../../../../../Library/StdDriver/src/clk.c:906:1
	bx	lr
.Ltmp157:
	.p2align	2
@ %bb.1:
	.loc	8 0 1 is_stmt 0         @ ../../../../../Library/StdDriver/src/clk.c:0:1
__arm_cp.20_0:
	.long	1073742400              @ 0x40000240
.Lcpi_end76:
	.size	__arm_cp.20_0, .Lcpi_end76-__arm_cp.20_0
.Lfunc_end20:
	.size	CLK_DisablePLL, .Lfunc_end20-CLK_DisablePLL
	.cfi_endproc
	.cantunwind
	.fnend
                                        @ -- End function
	.section	.text.CLK_EnableSysTick,"ax",%progbits
	.hidden	CLK_EnableSysTick       @ -- Begin function CLK_EnableSysTick
	.globl	CLK_EnableSysTick
	.p2align	2
	.type	CLK_EnableSysTick,%function
	.code	16                      @ @CLK_EnableSysTick
	.thumb_func
CLK_EnableSysTick:
.Lfunc_begin21:
	.loc	8 954 0 is_stmt 1       @ ../../../../../Library/StdDriver/src/clk.c:954:0
	.fnstart
	.cfi_startproc
@ %bb.0:
	.pad	#16
	sub	sp, #16
	.cfi_def_cfa_offset 16
	mov	r2, r1
	mov	r3, r0
	str	r0, [sp, #12]
	str	r1, [sp, #8]
.Ltmp158:
	.loc	8 956 19 prologue_end   @ ../../../../../Library/StdDriver/src/clk.c:956:19
	ldr	r0, __arm_cp.21_0
	movs	r1, #0
	str	r1, [r0]
.Ltmp159:
	.loc	8 959 8                 @ ../../../../../Library/StdDriver/src/clk.c:959:8
	ldr	r0, [sp, #12]
.Ltmp160:
	.loc	8 959 8 is_stmt 0       @ ../../../../../Library/StdDriver/src/clk.c:959:8
	cmp	r0, #4
	str	r2, [sp, #4]            @ 4-byte Spill
	str	r3, [sp]                @ 4-byte Spill
	bne	.LBB21_2
	b	.LBB21_1
.LBB21_1:
.Ltmp161:
	.loc	8 961 23 is_stmt 1      @ ../../../../../Library/StdDriver/src/clk.c:961:23
	ldr	r0, __arm_cp.21_0
	ldr	r1, [r0]
	movs	r2, #4
	orrs	r1, r2
	str	r1, [r0]
	.loc	8 962 5                 @ ../../../../../Library/StdDriver/src/clk.c:962:5
	b	.LBB21_3
.Ltmp162:
.LBB21_2:
	.loc	8 965 30                @ ../../../../../Library/StdDriver/src/clk.c:965:30
	ldr	r0, __arm_cp.21_1
	ldr	r1, [r0]
	.loc	8 965 38 is_stmt 0      @ ../../../../../Library/StdDriver/src/clk.c:965:38
	movs	r2, #56
	bics	r1, r2
	.loc	8 965 69                @ ../../../../../Library/StdDriver/src/clk.c:965:69
	ldr	r2, [sp, #12]
	.loc	8 965 67                @ ../../../../../Library/StdDriver/src/clk.c:965:67
	orrs	r1, r2
	.loc	8 965 22                @ ../../../../../Library/StdDriver/src/clk.c:965:22
	str	r1, [r0]
	b	.LBB21_3
.Ltmp163:
.LBB21_3:
	.loc	8 969 21 is_stmt 1      @ ../../../../../Library/StdDriver/src/clk.c:969:21
	ldr	r0, [sp, #8]
	.loc	8 969 19 is_stmt 0      @ ../../../../../Library/StdDriver/src/clk.c:969:19
	ldr	r1, __arm_cp.21_2
	str	r0, [r1]
	.loc	8 972 18 is_stmt 1      @ ../../../../../Library/StdDriver/src/clk.c:972:18
	ldr	r0, __arm_cp.21_3
	movs	r1, #0
	str	r1, [r0]
	.loc	8 969 19                @ ../../../../../Library/StdDriver/src/clk.c:969:19
	ldr	r0, __arm_cp.21_0
	.loc	8 975 19                @ ../../../../../Library/StdDriver/src/clk.c:975:19
	ldr	r1, [r0]
	movs	r2, #3
	orrs	r1, r2
	str	r1, [r0]
	.loc	8 976 1                 @ ../../../../../Library/StdDriver/src/clk.c:976:1
	add	sp, #16
	bx	lr
.Ltmp164:
	.p2align	2
@ %bb.4:
	.loc	8 0 1 is_stmt 0         @ ../../../../../Library/StdDriver/src/clk.c:0:1
__arm_cp.21_0:
	.long	3758153744              @ 0xe000e010
.Lcpi_end77:
	.size	__arm_cp.21_0, .Lcpi_end77-__arm_cp.21_0
__arm_cp.21_1:
	.long	1073742352              @ 0x40000210
.Lcpi_end78:
	.size	__arm_cp.21_1, .Lcpi_end78-__arm_cp.21_1
__arm_cp.21_2:
	.long	3758153748              @ 0xe000e014
.Lcpi_end79:
	.size	__arm_cp.21_2, .Lcpi_end79-__arm_cp.21_2
__arm_cp.21_3:
	.long	3758153752              @ 0xe000e018
.Lcpi_end80:
	.size	__arm_cp.21_3, .Lcpi_end80-__arm_cp.21_3
.Lfunc_end21:
	.size	CLK_EnableSysTick, .Lfunc_end21-CLK_EnableSysTick
	.cfi_endproc
	.cantunwind
	.fnend
                                        @ -- End function
	.section	.text.CLK_DisableSysTick,"ax",%progbits
	.hidden	CLK_DisableSysTick      @ -- Begin function CLK_DisableSysTick
	.globl	CLK_DisableSysTick
	.p2align	2
	.type	CLK_DisableSysTick,%function
	.code	16                      @ @CLK_DisableSysTick
	.thumb_func
CLK_DisableSysTick:
.Lfunc_begin22:
	.loc	8 985 0 is_stmt 1       @ ../../../../../Library/StdDriver/src/clk.c:985:0
	.fnstart
	.cfi_startproc
@ %bb.0:
	.loc	8 987 19 prologue_end   @ ../../../../../Library/StdDriver/src/clk.c:987:19
	ldr	r0, __arm_cp.22_0
	movs	r1, #0
	str	r1, [r0]
	.loc	8 988 1                 @ ../../../../../Library/StdDriver/src/clk.c:988:1
	bx	lr
.Ltmp165:
	.p2align	2
@ %bb.1:
	.loc	8 0 1 is_stmt 0         @ ../../../../../Library/StdDriver/src/clk.c:0:1
__arm_cp.22_0:
	.long	3758153744              @ 0xe000e010
.Lcpi_end81:
	.size	__arm_cp.22_0, .Lcpi_end81-__arm_cp.22_0
.Lfunc_end22:
	.size	CLK_DisableSysTick, .Lfunc_end22-CLK_DisableSysTick
	.cfi_endproc
	.cantunwind
	.fnend
                                        @ -- End function
	.section	.text.CLK_SetPowerDownMode,"ax",%progbits
	.hidden	CLK_SetPowerDownMode    @ -- Begin function CLK_SetPowerDownMode
	.globl	CLK_SetPowerDownMode
	.p2align	2
	.type	CLK_SetPowerDownMode,%function
	.code	16                      @ @CLK_SetPowerDownMode
	.thumb_func
CLK_SetPowerDownMode:
.Lfunc_begin23:
	.loc	8 1003 0 is_stmt 1      @ ../../../../../Library/StdDriver/src/clk.c:1003:0
	.fnstart
	.cfi_startproc
@ %bb.0:
	.pad	#8
	sub	sp, #8
	.cfi_def_cfa_offset 8
	mov	r1, r0
	str	r0, [sp, #4]
.Ltmp166:
	.loc	8 1004 25 prologue_end  @ ../../../../../Library/StdDriver/src/clk.c:1004:25
	ldr	r0, __arm_cp.23_0
	ldr	r2, [r0]
	.loc	8 1004 32 is_stmt 0     @ ../../../../../Library/StdDriver/src/clk.c:1004:32
	movs	r3, #7
	bics	r2, r3
	.loc	8 1004 63               @ ../../../../../Library/StdDriver/src/clk.c:1004:63
	ldr	r3, [sp, #4]
	.loc	8 1004 60               @ ../../../../../Library/StdDriver/src/clk.c:1004:60
	orrs	r2, r3
	.loc	8 1004 17               @ ../../../../../Library/StdDriver/src/clk.c:1004:17
	str	r2, [r0]
	.loc	8 1005 1 is_stmt 1      @ ../../../../../Library/StdDriver/src/clk.c:1005:1
	str	r1, [sp]                @ 4-byte Spill
	add	sp, #8
	bx	lr
.Ltmp167:
	.p2align	2
@ %bb.1:
	.loc	8 0 1 is_stmt 0         @ ../../../../../Library/StdDriver/src/clk.c:0:1
__arm_cp.23_0:
	.long	1073742480              @ 0x40000290
.Lcpi_end82:
	.size	__arm_cp.23_0, .Lcpi_end82-__arm_cp.23_0
.Lfunc_end23:
	.size	CLK_SetPowerDownMode, .Lfunc_end23-CLK_SetPowerDownMode
	.cfi_endproc
	.cantunwind
	.fnend
                                        @ -- End function
	.section	.text.CLK_EnableDPDWKPin,"ax",%progbits
	.hidden	CLK_EnableDPDWKPin      @ -- Begin function CLK_EnableDPDWKPin
	.globl	CLK_EnableDPDWKPin
	.p2align	2
	.type	CLK_EnableDPDWKPin,%function
	.code	16                      @ @CLK_EnableDPDWKPin
	.thumb_func
CLK_EnableDPDWKPin:
.Lfunc_begin24:
	.loc	8 1018 0 is_stmt 1      @ ../../../../../Library/StdDriver/src/clk.c:1018:0
	.fnstart
	.cfi_startproc
@ %bb.0:
	.pad	#8
	sub	sp, #8
	.cfi_def_cfa_offset 8
	mov	r1, r0
	str	r0, [sp, #4]
.Ltmp168:
	.loc	8 1019 25 prologue_end  @ ../../../../../Library/StdDriver/src/clk.c:1019:25
	ldr	r0, __arm_cp.24_0
	ldr	r2, [r0]
	.loc	8 1019 32 is_stmt 0     @ ../../../../../Library/StdDriver/src/clk.c:1019:32
	movs	r3, #3
	lsls	r3, r3, #16
	bics	r2, r3
	.loc	8 1019 64               @ ../../../../../Library/StdDriver/src/clk.c:1019:64
	ldr	r3, [sp, #4]
	.loc	8 1019 61               @ ../../../../../Library/StdDriver/src/clk.c:1019:61
	orrs	r2, r3
	.loc	8 1019 17               @ ../../../../../Library/StdDriver/src/clk.c:1019:17
	str	r2, [r0]
	.loc	8 1020 1 is_stmt 1      @ ../../../../../Library/StdDriver/src/clk.c:1020:1
	str	r1, [sp]                @ 4-byte Spill
	add	sp, #8
	bx	lr
.Ltmp169:
	.p2align	2
@ %bb.1:
	.loc	8 0 1 is_stmt 0         @ ../../../../../Library/StdDriver/src/clk.c:0:1
__arm_cp.24_0:
	.long	1073742480              @ 0x40000290
.Lcpi_end83:
	.size	__arm_cp.24_0, .Lcpi_end83-__arm_cp.24_0
.Lfunc_end24:
	.size	CLK_EnableDPDWKPin, .Lfunc_end24-CLK_EnableDPDWKPin
	.cfi_endproc
	.cantunwind
	.fnend
                                        @ -- End function
	.section	.text.CLK_GetPMUWKSrc,"ax",%progbits
	.hidden	CLK_GetPMUWKSrc         @ -- Begin function CLK_GetPMUWKSrc
	.globl	CLK_GetPMUWKSrc
	.p2align	2
	.type	CLK_GetPMUWKSrc,%function
	.code	16                      @ @CLK_GetPMUWKSrc
	.thumb_func
CLK_GetPMUWKSrc:
.Lfunc_begin25:
	.loc	8 1030 0 is_stmt 1      @ ../../../../../Library/StdDriver/src/clk.c:1030:0
	.fnstart
	.cfi_startproc
@ %bb.0:
	.loc	8 1031 18 prologue_end  @ ../../../../../Library/StdDriver/src/clk.c:1031:18
	ldr	r0, __arm_cp.25_0
	ldr	r0, [r0]
	.loc	8 1031 5 is_stmt 0      @ ../../../../../Library/StdDriver/src/clk.c:1031:5
	bx	lr
.Ltmp170:
	.p2align	2
@ %bb.1:
	.loc	8 0 5                   @ ../../../../../Library/StdDriver/src/clk.c:0:5
__arm_cp.25_0:
	.long	1073742484              @ 0x40000294
.Lcpi_end84:
	.size	__arm_cp.25_0, .Lcpi_end84-__arm_cp.25_0
.Lfunc_end25:
	.size	CLK_GetPMUWKSrc, .Lfunc_end25-CLK_GetPMUWKSrc
	.cfi_endproc
	.cantunwind
	.fnend
                                        @ -- End function
	.section	.text.CLK_EnableSPDWKPin,"ax",%progbits
	.hidden	CLK_EnableSPDWKPin      @ -- Begin function CLK_EnableSPDWKPin
	.globl	CLK_EnableSPDWKPin
	.p2align	2
	.type	CLK_EnableSPDWKPin,%function
	.code	16                      @ @CLK_EnableSPDWKPin
	.thumb_func
CLK_EnableSPDWKPin:
.Lfunc_begin26:
	.loc	8 1049 0 is_stmt 1      @ ../../../../../Library/StdDriver/src/clk.c:1049:0
	.fnstart
	.cfi_startproc
@ %bb.0:
	.save	{r4, r5, r6, r7, lr}
	push	{r4, r5, r6, r7, lr}
	.cfi_def_cfa_offset 20
	.cfi_offset lr, -4
	.cfi_offset r7, -8
	.cfi_offset r6, -12
	.cfi_offset r5, -16
	.cfi_offset r4, -20
	.pad	#40
	sub	sp, #40
	.cfi_def_cfa_offset 60
	mov	r4, r3
	mov	r5, r2
	mov	r6, r1
	mov	r7, r0
	str	r0, [sp, #36]
	str	r1, [sp, #32]
	str	r2, [sp, #28]
	str	r3, [sp, #24]
	movs	r0, #0
.Ltmp171:
	.loc	8 1050 14 prologue_end  @ ../../../../../Library/StdDriver/src/clk.c:1050:14
	str	r0, [sp, #20]
	.loc	8 1051 14               @ ../../../../../Library/StdDriver/src/clk.c:1051:14
	str	r0, [sp, #16]
	.loc	8 1054 16               @ ../../../../../Library/StdDriver/src/clk.c:1054:16
	ldr	r0, __arm_cp.26_0
	str	r0, [sp, #20]
	.loc	8 1055 28               @ ../../../../../Library/StdDriver/src/clk.c:1055:28
	ldr	r0, [sp, #36]
	.loc	8 1055 26 is_stmt 0     @ ../../../../../Library/StdDriver/src/clk.c:1055:26
	lsls	r0, r0, #2
	.loc	8 1055 16               @ ../../../../../Library/StdDriver/src/clk.c:1055:16
	ldr	r1, [sp, #20]
	adds	r0, r1, r0
	str	r0, [sp, #20]
	.loc	8 1057 17 is_stmt 1     @ ../../../../../Library/StdDriver/src/clk.c:1057:17
	ldr	r0, [sp, #20]
	ldr	r0, [r0]
	.loc	8 1057 15 is_stmt 0     @ ../../../../../Library/StdDriver/src/clk.c:1057:15
	str	r0, [sp, #16]
	.loc	8 1058 18 is_stmt 1     @ ../../../../../Library/StdDriver/src/clk.c:1058:18
	ldr	r0, [sp, #16]
	.loc	8 1058 28 is_stmt 0     @ ../../../../../Library/StdDriver/src/clk.c:1058:28
	movw	r1, #503
	bics	r0, r1
	.loc	8 1059 18 is_stmt 1     @ ../../../../../Library/StdDriver/src/clk.c:1059:18
	ldr	r1, [sp, #32]
	.loc	8 1059 25 is_stmt 0     @ ../../../../../Library/StdDriver/src/clk.c:1059:25
	lsls	r1, r1, #4
	.loc	8 1058 158 is_stmt 1    @ ../../../../../Library/StdDriver/src/clk.c:1058:158
	orrs	r0, r1
	.loc	8 1059 55               @ ../../../../../Library/StdDriver/src/clk.c:1059:55
	ldr	r1, [sp, #28]
	.loc	8 1059 53 is_stmt 0     @ ../../../../../Library/StdDriver/src/clk.c:1059:53
	orrs	r0, r1
	.loc	8 1059 72               @ ../../../../../Library/StdDriver/src/clk.c:1059:72
	ldr	r1, [sp, #24]
	.loc	8 1059 70               @ ../../../../../Library/StdDriver/src/clk.c:1059:70
	orrs	r0, r1
	.loc	8 1059 86               @ ../../../../../Library/StdDriver/src/clk.c:1059:86
	movs	r1, #1
	orrs	r0, r1
	.loc	8 1058 15 is_stmt 1     @ ../../../../../Library/StdDriver/src/clk.c:1058:15
	str	r0, [sp, #16]
	.loc	8 1060 5                @ ../../../../../Library/StdDriver/src/clk.c:1060:5
	ldr	r0, [sp, #16]
	ldr	r1, [sp, #20]
	str	r0, [r1]
	.loc	8 1061 1                @ ../../../../../Library/StdDriver/src/clk.c:1061:1
	str	r4, [sp, #12]           @ 4-byte Spill
	str	r5, [sp, #8]            @ 4-byte Spill
	str	r6, [sp, #4]            @ 4-byte Spill
	str	r7, [sp]                @ 4-byte Spill
	add	sp, #40
	pop	{r4, r5, r6, r7, pc}
.Ltmp172:
	.p2align	2
@ %bb.1:
	.loc	8 0 1 is_stmt 0         @ ../../../../../Library/StdDriver/src/clk.c:0:1
__arm_cp.26_0:
	.long	1073742496              @ 0x400002a0
.Lcpi_end85:
	.size	__arm_cp.26_0, .Lcpi_end85-__arm_cp.26_0
.Lfunc_end26:
	.size	CLK_EnableSPDWKPin, .Lfunc_end26-CLK_EnableSPDWKPin
	.cfi_endproc
	.cantunwind
	.fnend
                                        @ -- End function
	.section	.text.CLK_GetPLLClockFreq,"ax",%progbits
	.hidden	CLK_GetPLLClockFreq     @ -- Begin function CLK_GetPLLClockFreq
	.weak	CLK_GetPLLClockFreq
	.p2align	2
	.type	CLK_GetPLLClockFreq,%function
	.code	16                      @ @CLK_GetPLLClockFreq
	.thumb_func
	.weak	__acle_se_CLK_GetPLLClockFreq
	.type	__acle_se_CLK_GetPLLClockFreq,%function
__acle_se_CLK_GetPLLClockFreq:
CLK_GetPLLClockFreq:
.Lfunc_begin27:
	.loc	8 1072 0 is_stmt 1      @ ../../../../../Library/StdDriver/src/clk.c:1072:0
	.fnstart
	.cfi_startproc
@ %bb.0:
	.pad	#28
	sub	sp, #28
	.cfi_def_cfa_offset 28
	movs	r0, #0
.Ltmp173:
	.loc	8 1073 14 prologue_end  @ ../../../../../Library/StdDriver/src/clk.c:1073:14
	str	r0, [sp, #24]
	.loc	8 1075 13               @ ../../../../../Library/StdDriver/src/clk.c:1075:13
	ldr	r0, __arm_cp.27_0
	str	r0, [sp]
	.loc	8 1077 22               @ ../../../../../Library/StdDriver/src/clk.c:1077:22
	ldr	r0, __arm_cp.27_1
	ldr	r0, [r0]
	.loc	8 1077 15 is_stmt 0     @ ../../../../../Library/StdDriver/src/clk.c:1077:15
	str	r0, [sp, #20]
	add	r0, sp, #20
	.loc	8 1079 8 is_stmt 1      @ ../../../../../Library/StdDriver/src/clk.c:1079:8
	ldrb	r0, [r0, #2]
	movs	r1, #5
	tst	r0, r1
	beq	.LBB27_2
	b	.LBB27_1
.LBB27_1:
.Ltmp174:
	.loc	8 1081 20               @ ../../../../../Library/StdDriver/src/clk.c:1081:20
	movs	r0, #0
	str	r0, [sp, #24]
	.loc	8 1082 5                @ ../../../../../Library/StdDriver/src/clk.c:1082:5
	b	.LBB27_9
.Ltmp175:
.LBB27_2:
	.loc	8 0 5 is_stmt 0         @ ../../../../../Library/StdDriver/src/clk.c:0:5
	add	r0, sp, #20
.Ltmp176:
	.loc	8 1087 12 is_stmt 1     @ ../../../../../Library/StdDriver/src/clk.c:1087:12
	ldrb	r0, [r0, #2]
	lsls	r0, r0, #28
	cmp	r0, #0
	bpl	.LBB27_4
	b	.LBB27_3
.LBB27_3:
.Ltmp177:
	.loc	8 1089 20               @ ../../../../../Library/StdDriver/src/clk.c:1089:20
	ldr	r0, __arm_cp.27_2
	str	r0, [sp, #16]
	.loc	8 1090 9                @ ../../../../../Library/StdDriver/src/clk.c:1090:9
	b	.LBB27_5
.Ltmp178:
.LBB27_4:
	.loc	8 1093 20               @ ../../../../../Library/StdDriver/src/clk.c:1093:20
	ldr	r0, __arm_cp.27_2
	str	r0, [sp, #16]
	b	.LBB27_5
.Ltmp179:
.LBB27_5:
	.loc	8 0 20 is_stmt 0        @ ../../../../../Library/StdDriver/src/clk.c:0:20
	add	r0, sp, #20
	.loc	8 1097 12 is_stmt 1     @ ../../../../../Library/StdDriver/src/clk.c:1097:12
	ldrb	r0, [r0, #2]
	lsls	r0, r0, #30
	cmp	r0, #0
	bpl	.LBB27_7
	b	.LBB27_6
.LBB27_6:
.Ltmp180:
	.loc	8 1099 26               @ ../../../../../Library/StdDriver/src/clk.c:1099:26
	ldr	r0, [sp, #16]
	.loc	8 1099 24 is_stmt 0     @ ../../../../../Library/StdDriver/src/clk.c:1099:24
	str	r0, [sp, #24]
	.loc	8 1100 9 is_stmt 1      @ ../../../../../Library/StdDriver/src/clk.c:1100:9
	b	.LBB27_8
.Ltmp181:
.LBB27_7:
	.loc	8 1104 32               @ ../../../../../Library/StdDriver/src/clk.c:1104:32
	ldr	r0, [sp, #20]
	.loc	8 1104 42 is_stmt 0     @ ../../../../../Library/StdDriver/src/clk.c:1104:42
	movw	r1, #49152
	ands	r0, r1
	.loc	8 1104 67               @ ../../../../../Library/StdDriver/src/clk.c:1104:67
	lsrs	r0, r0, #14
	mov	r1, sp
	.loc	8 1104 21               @ ../../../../../Library/StdDriver/src/clk.c:1104:21
	orrs	r1, r0
	ldrb	r0, [r1]
	.loc	8 1104 19               @ ../../../../../Library/StdDriver/src/clk.c:1104:19
	str	r0, [sp, #4]
	.loc	8 1105 23 is_stmt 1     @ ../../../../../Library/StdDriver/src/clk.c:1105:23
	ldr	r0, [sp, #20]
	.loc	8 1105 33 is_stmt 0     @ ../../../../../Library/StdDriver/src/clk.c:1105:33
	ldr	r1, __arm_cp.27_3
	ands	r0, r1
	.loc	8 1105 82               @ ../../../../../Library/StdDriver/src/clk.c:1105:82
	adds	r0, r0, #2
	.loc	8 1105 19               @ ../../../../../Library/StdDriver/src/clk.c:1105:19
	str	r0, [sp, #12]
	.loc	8 1106 23 is_stmt 1     @ ../../../../../Library/StdDriver/src/clk.c:1106:23
	ldr	r0, [sp, #20]
	.loc	8 1106 33 is_stmt 0     @ ../../../../../Library/StdDriver/src/clk.c:1106:33
	movw	r1, #15872
	ands	r0, r1
	.loc	8 1106 57               @ ../../../../../Library/StdDriver/src/clk.c:1106:57
	lsrs	r0, r0, #9
	.loc	8 1106 82               @ ../../../../../Library/StdDriver/src/clk.c:1106:82
	adds	r0, r0, #1
	.loc	8 1106 19               @ ../../../../../Library/StdDriver/src/clk.c:1106:19
	str	r0, [sp, #8]
	.loc	8 1109 29 is_stmt 1     @ ../../../../../Library/StdDriver/src/clk.c:1109:29
	ldr	r0, [sp, #16]
	.loc	8 1109 36 is_stmt 0     @ ../../../../../Library/StdDriver/src/clk.c:1109:36
	lsrs	r0, r0, #2
	.loc	8 1109 45               @ ../../../../../Library/StdDriver/src/clk.c:1109:45
	ldr	r1, [sp, #12]
	.loc	8 1109 42               @ ../../../../../Library/StdDriver/src/clk.c:1109:42
	muls	r0, r1, r0
	lsls	r0, r0, #1
	.loc	8 1109 61               @ ../../../../../Library/StdDriver/src/clk.c:1109:61
	ldr	r1, [sp, #8]
	.loc	8 1109 69               @ ../../../../../Library/StdDriver/src/clk.c:1109:69
	ldr	r2, [sp, #4]
	.loc	8 1109 67               @ ../../../../../Library/StdDriver/src/clk.c:1109:67
	muls	r2, r1, r2
	.loc	8 1109 58               @ ../../../../../Library/StdDriver/src/clk.c:1109:58
	udiv	r0, r0, r2
	.loc	8 1109 76               @ ../../../../../Library/StdDriver/src/clk.c:1109:76
	lsls	r0, r0, #2
	.loc	8 1109 24               @ ../../../../../Library/StdDriver/src/clk.c:1109:24
	str	r0, [sp, #24]
	b	.LBB27_8
.Ltmp182:
.LBB27_8:
	.loc	8 0 24                  @ ../../../../../Library/StdDriver/src/clk.c:0:24
	b	.LBB27_9
.LBB27_9:
	.loc	8 1113 12 is_stmt 1     @ ../../../../../Library/StdDriver/src/clk.c:1113:12
	ldr	r0, [sp, #24]
	.loc	8 1113 5 is_stmt 0      @ ../../../../../Library/StdDriver/src/clk.c:1113:5
	add	sp, #28
	mov	r1, lr
	mov	r2, lr
	mov	r3, lr
	mov	r12, lr
	msr	apsr, lr
	bxns	lr
.Ltmp183:
	.p2align	2
@ %bb.10:
	.loc	8 0 5                   @ ../../../../../Library/StdDriver/src/clk.c:0:5
__arm_cp.27_0:
	.long	67240449                @ 0x4020201
.Lcpi_end86:
	.size	__arm_cp.27_0, .Lcpi_end86-__arm_cp.27_0
__arm_cp.27_1:
	.long	1073742400              @ 0x40000240
.Lcpi_end87:
	.size	__arm_cp.27_1, .Lcpi_end87-__arm_cp.27_1
__arm_cp.27_2:
	.long	12000000                @ 0xb71b00
.Lcpi_end88:
	.size	__arm_cp.27_2, .Lcpi_end88-__arm_cp.27_2
__arm_cp.27_3:
	.long	511                     @ 0x1ff
.Lcpi_end89:
	.size	__arm_cp.27_3, .Lcpi_end89-__arm_cp.27_3
.Lfunc_end27:
	.size	CLK_GetPLLClockFreq, .Lfunc_end27-CLK_GetPLLClockFreq
	.cfi_endproc
	.cantunwind
	.fnend
                                        @ -- End function
	.section	.text.CLK_GetModuleClockSource,"ax",%progbits
	.hidden	CLK_GetModuleClockSource @ -- Begin function CLK_GetModuleClockSource
	.weak	CLK_GetModuleClockSource
	.p2align	2
	.type	CLK_GetModuleClockSource,%function
	.code	16                      @ @CLK_GetModuleClockSource
	.thumb_func
	.weak	__acle_se_CLK_GetModuleClockSource
	.type	__acle_se_CLK_GetModuleClockSource,%function
__acle_se_CLK_GetModuleClockSource:
CLK_GetModuleClockSource:
.Lfunc_begin28:
	.loc	8 1156 0 is_stmt 1      @ ../../../../../Library/StdDriver/src/clk.c:1156:0
	.fnstart
	.cfi_startproc
@ %bb.0:
	.pad	#32
	sub	sp, #32
	.cfi_def_cfa_offset 32
	mov	r1, r0
	str	r0, [sp, #28]
	movs	r0, #0
.Ltmp184:
	.loc	8 1157 14 prologue_end  @ ../../../../../Library/StdDriver/src/clk.c:1157:14
	str	r0, [sp, #24]
	.loc	8 1157 31 is_stmt 0     @ ../../../../../Library/StdDriver/src/clk.c:1157:31
	str	r0, [sp, #20]
	.loc	8 1158 14 is_stmt 1     @ ../../../../../Library/StdDriver/src/clk.c:1158:14
	ldr	r0, __arm_cp.28_0
	ldr	r2, [r0, #12]
	str	r2, [sp, #16]
	ldr	r2, [r0, #8]
	str	r2, [sp, #12]
	ldr	r2, [r0, #4]
	str	r2, [sp, #8]
	ldr	r0, [r0]
	str	r0, [sp, #4]
.Ltmp185:
	.loc	8 1161 8                @ ../../../../../Library/StdDriver/src/clk.c:1161:8
	ldr	r0, [sp, #28]
	.loc	8 1161 21 is_stmt 0     @ ../../../../../Library/StdDriver/src/clk.c:1161:21
	ldr	r2, __arm_cp.28_1
.Ltmp186:
	.loc	8 1161 8                @ ../../../../../Library/StdDriver/src/clk.c:1161:8
	cmp	r0, r2
	str	r1, [sp]                @ 4-byte Spill
	bne	.LBB28_2
	b	.LBB28_1
.LBB28_1:
.Ltmp187:
	.loc	8 1163 28 is_stmt 1     @ ../../../../../Library/StdDriver/src/clk.c:1163:28
	ldr	r0, __arm_cp.28_6
	ldr	r0, [r0]
	.loc	8 1163 36 is_stmt 0     @ ../../../../../Library/StdDriver/src/clk.c:1163:36
	movs	r1, #1
	ands	r0, r1
	.loc	8 1163 19               @ ../../../../../Library/StdDriver/src/clk.c:1163:19
	str	r0, [sp, #24]
	.loc	8 1164 5 is_stmt 1      @ ../../../../../Library/StdDriver/src/clk.c:1164:5
	b	.LBB28_14
.Ltmp188:
.LBB28_2:
	.loc	8 1165 13               @ ../../../../../Library/StdDriver/src/clk.c:1165:13
	ldr	r0, [sp, #28]
	.loc	8 1165 26 is_stmt 0     @ ../../../../../Library/StdDriver/src/clk.c:1165:26
	ldr	r1, __arm_cp.28_2
.Ltmp189:
	.loc	8 1165 13               @ ../../../../../Library/StdDriver/src/clk.c:1165:13
	cmp	r0, r1
	bne	.LBB28_4
	b	.LBB28_3
.LBB28_3:
.Ltmp190:
	.loc	8 1167 28 is_stmt 1     @ ../../../../../Library/StdDriver/src/clk.c:1167:28
	ldr	r0, __arm_cp.28_6
	ldr	r0, [r0]
	.loc	8 1167 36 is_stmt 0     @ ../../../../../Library/StdDriver/src/clk.c:1167:36
	movs	r1, #2
	ands	r0, r1
	.loc	8 1167 64               @ ../../../../../Library/StdDriver/src/clk.c:1167:64
	lsrs	r0, r0, #1
	.loc	8 1167 19               @ ../../../../../Library/StdDriver/src/clk.c:1167:19
	str	r0, [sp, #24]
	.loc	8 1168 5 is_stmt 1      @ ../../../../../Library/StdDriver/src/clk.c:1168:5
	b	.LBB28_13
.Ltmp191:
.LBB28_4:
	.loc	8 1169 13               @ ../../../../../Library/StdDriver/src/clk.c:1169:13
	ldr	r0, [sp, #28]
	.loc	8 1169 26 is_stmt 0     @ ../../../../../Library/StdDriver/src/clk.c:1169:26
	ldr	r1, __arm_cp.28_3
.Ltmp192:
	.loc	8 1169 13               @ ../../../../../Library/StdDriver/src/clk.c:1169:13
	cmp	r0, r1
	bne	.LBB28_6
	b	.LBB28_5
.LBB28_5:
.Ltmp193:
	.loc	8 1171 28 is_stmt 1     @ ../../../../../Library/StdDriver/src/clk.c:1171:28
	ldr	r0, __arm_cp.28_6
	ldr	r0, [r0]
	.loc	8 1171 36 is_stmt 0     @ ../../../../../Library/StdDriver/src/clk.c:1171:36
	movw	r1, #256
	ands	r0, r1
	.loc	8 1171 64               @ ../../../../../Library/StdDriver/src/clk.c:1171:64
	lsrs	r0, r0, #8
	.loc	8 1171 19               @ ../../../../../Library/StdDriver/src/clk.c:1171:19
	str	r0, [sp, #24]
	.loc	8 1172 5 is_stmt 1      @ ../../../../../Library/StdDriver/src/clk.c:1172:5
	b	.LBB28_12
.Ltmp194:
.LBB28_6:
	.loc	8 1173 13               @ ../../../../../Library/StdDriver/src/clk.c:1173:13
	ldr	r0, [sp, #28]
	.loc	8 1173 26 is_stmt 0     @ ../../../../../Library/StdDriver/src/clk.c:1173:26
	ldr	r1, __arm_cp.28_4
.Ltmp195:
	.loc	8 1173 13               @ ../../../../../Library/StdDriver/src/clk.c:1173:13
	cmp	r0, r1
	bne	.LBB28_8
	b	.LBB28_7
.LBB28_7:
.Ltmp196:
	.loc	8 1175 28 is_stmt 1     @ ../../../../../Library/StdDriver/src/clk.c:1175:28
	ldr	r0, __arm_cp.28_6
	ldr	r0, [r0]
	.loc	8 1175 36 is_stmt 0     @ ../../../../../Library/StdDriver/src/clk.c:1175:36
	movw	r1, #512
	ands	r0, r1
	.loc	8 1175 64               @ ../../../../../Library/StdDriver/src/clk.c:1175:64
	lsrs	r0, r0, #9
	.loc	8 1175 19               @ ../../../../../Library/StdDriver/src/clk.c:1175:19
	str	r0, [sp, #24]
	.loc	8 1176 5 is_stmt 1      @ ../../../../../Library/StdDriver/src/clk.c:1176:5
	b	.LBB28_11
.Ltmp197:
.LBB28_8:
	.loc	8 1177 13               @ ../../../../../Library/StdDriver/src/clk.c:1177:13
	ldr	r0, [sp, #28]
	lsrs	r0, r0, #25
.Ltmp198:
	.loc	8 1177 13 is_stmt 0     @ ../../../../../Library/StdDriver/src/clk.c:1177:13
	lsls	r0, r0, #29
	cmp	r0, #0
	beq	.LBB28_10
	b	.LBB28_9
.LBB28_9:
.Ltmp199:
	.loc	8 1180 60 is_stmt 1     @ ../../../../../Library/StdDriver/src/clk.c:1180:60
	ldr	r0, [sp, #28]
	lsrs	r0, r0, #26
	movs	r1, #12
	.loc	8 1180 49 is_stmt 0     @ ../../../../../Library/StdDriver/src/clk.c:1180:49
	ands	r0, r1
	add	r1, sp, #4
	ldr	r0, [r1, r0]
	.loc	8 1180 46               @ ../../../../../Library/StdDriver/src/clk.c:1180:46
	ldr	r1, __arm_cp.28_5
	adds	r0, r0, r1
	.loc	8 1180 20               @ ../../../../../Library/StdDriver/src/clk.c:1180:20
	str	r0, [sp, #20]
	.loc	8 1183 23 is_stmt 1     @ ../../../../../Library/StdDriver/src/clk.c:1183:23
	ldr	r0, [sp, #20]
	ldr	r0, [r0]
	.loc	8 1183 55 is_stmt 0     @ ../../../../../Library/StdDriver/src/clk.c:1183:55
	ldr	r1, [sp, #28]
	lsrs	r2, r1, #25
	movs	r3, #7
	ands	r2, r3
	.loc	8 1183 90               @ ../../../../../Library/StdDriver/src/clk.c:1183:90
	lsrs	r1, r1, #20
	movs	r3, #31
	ands	r1, r3
	.loc	8 1183 87               @ ../../../../../Library/StdDriver/src/clk.c:1183:87
	lsls	r2, r1
	.loc	8 1183 52               @ ../../../../../Library/StdDriver/src/clk.c:1183:52
	ands	r0, r2
	.loc	8 1183 124              @ ../../../../../Library/StdDriver/src/clk.c:1183:124
	lsrs	r0, r1
	.loc	8 1183 19               @ ../../../../../Library/StdDriver/src/clk.c:1183:19
	str	r0, [sp, #24]
	.loc	8 1184 5 is_stmt 1      @ ../../../../../Library/StdDriver/src/clk.c:1184:5
	b	.LBB28_10
.Ltmp200:
.LBB28_10:
	.loc	8 0 5 is_stmt 0         @ ../../../../../Library/StdDriver/src/clk.c:0:5
	b	.LBB28_11
.LBB28_11:
	b	.LBB28_12
.LBB28_12:
	b	.LBB28_13
.LBB28_13:
	b	.LBB28_14
.LBB28_14:
	.loc	8 1186 12 is_stmt 1     @ ../../../../../Library/StdDriver/src/clk.c:1186:12
	ldr	r0, [sp, #24]
	.loc	8 1186 5 is_stmt 0      @ ../../../../../Library/StdDriver/src/clk.c:1186:5
	add	sp, #32
	mov	r1, lr
	mov	r2, lr
	mov	r3, lr
	mov	r12, lr
	msr	apsr, lr
	bxns	lr
.Ltmp201:
	.p2align	2
@ %bb.15:
	.loc	8 0 5                   @ ../../../../../Library/StdDriver/src/clk.c:0:5
__arm_cp.28_0:
	.long	.LCLK_GetModuleClockSource.au32SelTbl
.Lcpi_end90:
	.size	__arm_cp.28_0, .Lcpi_end90-__arm_cp.28_0
__arm_cp.28_1:
	.long	2147483664              @ 0x80000010
.Lcpi_end91:
	.size	__arm_cp.28_1, .Lcpi_end91-__arm_cp.28_1
__arm_cp.28_2:
	.long	2147483665              @ 0x80000011
.Lcpi_end92:
	.size	__arm_cp.28_2, .Lcpi_end92-__arm_cp.28_2
__arm_cp.28_3:
	.long	2147483666              @ 0x80000012
.Lcpi_end93:
	.size	__arm_cp.28_3, .Lcpi_end93-__arm_cp.28_3
__arm_cp.28_4:
	.long	2147483667              @ 0x80000013
.Lcpi_end94:
	.size	__arm_cp.28_4, .Lcpi_end94-__arm_cp.28_4
__arm_cp.28_5:
	.long	1073742352              @ 0x40000210
.Lcpi_end95:
	.size	__arm_cp.28_5, .Lcpi_end95-__arm_cp.28_5
__arm_cp.28_6:
	.long	1073742360              @ 0x40000218
.Lcpi_end96:
	.size	__arm_cp.28_6, .Lcpi_end96-__arm_cp.28_6
.Lfunc_end28:
	.size	CLK_GetModuleClockSource, .Lfunc_end28-CLK_GetModuleClockSource
	.cfi_endproc
	.cantunwind
	.fnend
                                        @ -- End function
	.section	.text.CLK_GetModuleClockDivider,"ax",%progbits
	.hidden	CLK_GetModuleClockDivider @ -- Begin function CLK_GetModuleClockDivider
	.weak	CLK_GetModuleClockDivider
	.p2align	2
	.type	CLK_GetModuleClockDivider,%function
	.code	16                      @ @CLK_GetModuleClockDivider
	.thumb_func
	.weak	__acle_se_CLK_GetModuleClockDivider
	.type	__acle_se_CLK_GetModuleClockDivider,%function
__acle_se_CLK_GetModuleClockDivider:
CLK_GetModuleClockDivider:
.Lfunc_begin29:
	.loc	8 1212 0 is_stmt 1      @ ../../../../../Library/StdDriver/src/clk.c:1212:0
	.fnstart
	.cfi_startproc
@ %bb.0:
	.pad	#32
	sub	sp, #32
	.cfi_def_cfa_offset 32
	mov	r1, r0
	str	r0, [sp, #28]
	movs	r0, #0
.Ltmp202:
	.loc	8 1213 14 prologue_end  @ ../../../../../Library/StdDriver/src/clk.c:1213:14
	str	r0, [sp, #24]
	.loc	8 1213 31 is_stmt 0     @ ../../../../../Library/StdDriver/src/clk.c:1213:31
	str	r0, [sp, #20]
	.loc	8 1214 14 is_stmt 1     @ ../../../../../Library/StdDriver/src/clk.c:1214:14
	ldr	r0, __arm_cp.29_0
	ldr	r2, [r0, #12]
	str	r2, [sp, #16]
	ldr	r2, [r0, #8]
	str	r2, [sp, #12]
	ldr	r2, [r0, #4]
	str	r2, [sp, #8]
	ldr	r0, [r0]
	str	r0, [sp, #4]
.Ltmp203:
	.loc	8 1216 8                @ ../../../../../Library/StdDriver/src/clk.c:1216:8
	ldr	r0, [sp, #28]
	lsrs	r0, r0, #10
.Ltmp204:
	.loc	8 1216 8 is_stmt 0      @ ../../../../../Library/StdDriver/src/clk.c:1216:8
	lsls	r0, r0, #24
	cmp	r0, #0
	str	r1, [sp]                @ 4-byte Spill
	beq	.LBB29_2
	b	.LBB29_1
.LBB29_1:
	.loc	8 0 8                   @ ../../../../../Library/StdDriver/src/clk.c:0:8
	add	r0, sp, #28
.Ltmp205:
	.loc	8 1219 60 is_stmt 1     @ ../../../../../Library/StdDriver/src/clk.c:1219:60
	ldrh	r0, [r0, #2]
	movs	r1, #12
	.loc	8 1219 49 is_stmt 0     @ ../../../../../Library/StdDriver/src/clk.c:1219:49
	ands	r0, r1
	add	r1, sp, #4
	ldr	r0, [r1, r0]
	.loc	8 1219 46               @ ../../../../../Library/StdDriver/src/clk.c:1219:46
	ldr	r1, __arm_cp.29_1
	adds	r0, r0, r1
	.loc	8 1219 20               @ ../../../../../Library/StdDriver/src/clk.c:1219:20
	str	r0, [sp, #20]
	.loc	8 1221 23 is_stmt 1     @ ../../../../../Library/StdDriver/src/clk.c:1221:23
	ldr	r0, [sp, #20]
	ldr	r0, [r0]
	.loc	8 1221 55 is_stmt 0     @ ../../../../../Library/StdDriver/src/clk.c:1221:55
	ldr	r1, [sp, #28]
	lsrs	r2, r1, #10
	uxtb	r2, r2
	.loc	8 1221 90               @ ../../../../../Library/StdDriver/src/clk.c:1221:90
	lsrs	r1, r1, #5
	movs	r3, #31
	ands	r1, r3
	.loc	8 1221 87               @ ../../../../../Library/StdDriver/src/clk.c:1221:87
	lsls	r2, r1
	.loc	8 1221 52               @ ../../../../../Library/StdDriver/src/clk.c:1221:52
	ands	r0, r2
	.loc	8 1221 124              @ ../../../../../Library/StdDriver/src/clk.c:1221:124
	lsrs	r0, r1
	.loc	8 1221 19               @ ../../../../../Library/StdDriver/src/clk.c:1221:19
	str	r0, [sp, #24]
	.loc	8 1222 5 is_stmt 1      @ ../../../../../Library/StdDriver/src/clk.c:1222:5
	b	.LBB29_2
.Ltmp206:
.LBB29_2:
	.loc	8 1224 12               @ ../../../../../Library/StdDriver/src/clk.c:1224:12
	ldr	r0, [sp, #24]
	.loc	8 1224 5 is_stmt 0      @ ../../../../../Library/StdDriver/src/clk.c:1224:5
	add	sp, #32
	mov	r1, lr
	mov	r2, lr
	mov	r3, lr
	mov	r12, lr
	msr	apsr, lr
	bxns	lr
.Ltmp207:
	.p2align	2
@ %bb.3:
	.loc	8 0 5                   @ ../../../../../Library/StdDriver/src/clk.c:0:5
__arm_cp.29_0:
	.long	.LCLK_GetModuleClockDivider.au32DivTbl
.Lcpi_end97:
	.size	__arm_cp.29_0, .Lcpi_end97-__arm_cp.29_0
__arm_cp.29_1:
	.long	1073742368              @ 0x40000220
.Lcpi_end98:
	.size	__arm_cp.29_1, .Lcpi_end98-__arm_cp.29_1
.Lfunc_end29:
	.size	CLK_GetModuleClockDivider, .Lfunc_end29-CLK_GetModuleClockDivider
	.cfi_endproc
	.cantunwind
	.fnend
                                        @ -- End function
	.type	.LCLK_GetCPUFreq.au32ClkTbl,%object @ @CLK_GetCPUFreq.au32ClkTbl
	.section	.rodata.cst32,"aM",%progbits,32
	.p2align	2
.LCLK_GetCPUFreq.au32ClkTbl:
	.long	12000000                @ 0xb71b00
	.long	32768                   @ 0x8000
	.long	0                       @ 0x0
	.long	10000                   @ 0x2710
	.long	0                       @ 0x0
	.long	48000000                @ 0x2dc6c00
	.long	0                       @ 0x0
	.long	12000000                @ 0xb71b00
	.size	.LCLK_GetCPUFreq.au32ClkTbl, 32

	.type	.LCLK_GetCPUFreq.au8NoTbl,%object @ @CLK_GetCPUFreq.au8NoTbl
	.section	.rodata.cst4,"aM",%progbits,4
.LCLK_GetCPUFreq.au8NoTbl:
	.ascii	"\001\002\002\004"
	.size	.LCLK_GetCPUFreq.au8NoTbl, 4

	.type	.LCLK_SetModuleClock.au32SelTbl,%object @ @CLK_SetModuleClock.au32SelTbl
	.section	.rodata.cst16,"aM",%progbits,16
	.p2align	2
.LCLK_SetModuleClock.au32SelTbl:
	.long	0                       @ 0x0
	.long	4                       @ 0x4
	.long	8                       @ 0x8
	.long	12                      @ 0xc
	.size	.LCLK_SetModuleClock.au32SelTbl, 16

	.type	.LCLK_SetModuleClock.au32DivTbl,%object @ @CLK_SetModuleClock.au32DivTbl
	.p2align	2
.LCLK_SetModuleClock.au32DivTbl:
	.long	0                       @ 0x0
	.long	4                       @ 0x4
	.long	8                       @ 0x8
	.long	16                      @ 0x10
	.size	.LCLK_SetModuleClock.au32DivTbl, 16

	.type	.LCLK_GetPLLClockFreq.au8NoTbl,%object @ @CLK_GetPLLClockFreq.au8NoTbl
	.section	.rodata.cst4,"aM",%progbits,4
.LCLK_GetPLLClockFreq.au8NoTbl:
	.ascii	"\001\002\002\004"
	.size	.LCLK_GetPLLClockFreq.au8NoTbl, 4

	.type	.LCLK_GetModuleClockSource.au32SelTbl,%object @ @CLK_GetModuleClockSource.au32SelTbl
	.section	.rodata.cst16,"aM",%progbits,16
	.p2align	2
.LCLK_GetModuleClockSource.au32SelTbl:
	.long	0                       @ 0x0
	.long	4                       @ 0x4
	.long	8                       @ 0x8
	.long	12                      @ 0xc
	.size	.LCLK_GetModuleClockSource.au32SelTbl, 16

	.type	.LCLK_GetModuleClockDivider.au32DivTbl,%object @ @CLK_GetModuleClockDivider.au32DivTbl
	.p2align	2
.LCLK_GetModuleClockDivider.au32DivTbl:
	.long	0                       @ 0x0
	.long	4                       @ 0x4
	.long	8                       @ 0x8
	.long	16                      @ 0x10
	.size	.LCLK_GetModuleClockDivider.au32DivTbl, 16

	.section	".note.GNU-stack","",%progbits
	.eabi_attribute	30, 6	@ Tag_ABI_optimization_goals
	.ARM_attribute	16, 1	@ Tag_AV_eba