	.text
	.syntax unified
	.eabi_attribute	67, "2.09"	@ Tag_conformance
	.cpu	cortex-m23
	.eabi_attribute	6, 16	@ Tag_CPU_arch
	.eabi_attribute	7, 77	@ Tag_CPU_arch_profile
	.eabi_attribute	8, 0	@ Tag_ARM_ISA_use
	.eabi_attribute	9, 3	@ Tag_THUMB_ISA_use
	.eabi_attribute	34, 0	@ Tag_CPU_unaligned_access
	.eabi_attribute	17, 1	@ Tag_ABI_PCS_GOT_use
	.eabi_attribute	20, 2	@ Tag_ABI_FP_denormal
	.eabi_attribute	21, 0	@ Tag_ABI_FP_exceptions
	.eabi_attribute	23, 1	@ Tag_ABI_FP_number_model
	.eabi_attribute	24, 1	@ Tag_ABI_align_needed
	.eabi_attribute	25, 1	@ Tag_ABI_align_preserved
	.eabi_attribute	38, 1	@ Tag_ABI_FP_16bit_format
	.eabi_attribute	18, 4	@ Tag_ABI_PCS_wchar_t
	.eabi_attribute	26, 2	@ Tag_ABI_enum_size
	.eabi_attribute	14, 0	@ Tag_ABI_PCS_R9_use
	.file	"crypto.c"
	.file	1 "../../../../../Library/StdDriver/inc" "crypto.h"
	.file	2 "C:\\Keil_v5\\ARM\\ARMCLANG\\Bin\\..\\include" "stdint.h"
	.file	3 "C:/Keil_v5/ARM/PACK/Nuvoton/NuMicro_M2351_BSP/1.0.0/Device/M2351/StdDriver/src" "crypto.c"
	.file	4 "../../../../../Library/Device/Nuvoton/M2351/Include" "crpt_reg.h"
	.section	.text.PRNG_Open,"ax",%progbits
	.hidden	PRNG_Open               @ -- Begin function PRNG_Open
	.globl	PRNG_Open
	.p2align	1
	.type	PRNG_Open,%function
	.code	16                      @ @PRNG_Open
	.thumb_func
PRNG_Open:
.Lfunc_begin0:
	.loc	3 71 0                  @ C:/Keil_v5/ARM/PACK/Nuvoton/NuMicro_M2351_BSP/1.0.0/Device/M2351/StdDriver/src/crypto.c:71:0
	.fnstart
	.cfi_sections .debug_frame
	.cfi_startproc
@ %bb.0:
	.save	{r4, r5, r6, r7, lr}
	push	{r4, r5, r6, r7, lr}
	.cfi_def_cfa_offset 20
	.cfi_offset lr, -4
	.cfi_offset r7, -8
	.cfi_offset r6, -12
	.cfi_offset r5, -16
	.cfi_offset r4, -20
	.pad	#32
	sub	sp, #32
	.cfi_def_cfa_offset 52
	mov	r4, r3
	mov	r5, r2
	mov	r6, r1
	mov	r7, r0
	str	r0, [sp, #28]
	str	r1, [sp, #24]
	str	r2, [sp, #20]
	str	r3, [sp, #16]
.Ltmp0:
	.loc	3 72 8 prologue_end     @ C:/Keil_v5/ARM/PACK/Nuvoton/NuMicro_M2351_BSP/1.0.0/Device/M2351/StdDriver/src/crypto.c:72:8
	ldr	r0, [sp, #20]
.Ltmp1:
	.loc	3 72 8 is_stmt 0        @ C:/Keil_v5/ARM/PACK/Nuvoton/NuMicro_M2351_BSP/1.0.0/Device/M2351/StdDriver/src/crypto.c:72:8
	cmp	r0, #0
	str	r4, [sp, #12]           @ 4-byte Spill
	str	r5, [sp, #8]            @ 4-byte Spill
	str	r6, [sp, #4]            @ 4-byte Spill
	str	r7, [sp]                @ 4-byte Spill
	beq	.LBB0_2
	b	.LBB0_1
.LBB0_1:
.Ltmp2:
	.loc	3 74 27 is_stmt 1       @ C:/Keil_v5/ARM/PACK/Nuvoton/NuMicro_M2351_BSP/1.0.0/Device/M2351/StdDriver/src/crypto.c:74:27
	ldr	r0, [sp, #16]
	.loc	3 74 9 is_stmt 0        @ C:/Keil_v5/ARM/PACK/Nuvoton/NuMicro_M2351_BSP/1.0.0/Device/M2351/StdDriver/src/crypto.c:74:9
	ldr	r1, [sp, #28]
	.loc	3 74 25                 @ C:/Keil_v5/ARM/PACK/Nuvoton/NuMicro_M2351_BSP/1.0.0/Device/M2351/StdDriver/src/crypto.c:74:25
	str	r0, [r1, #12]
	.loc	3 75 5 is_stmt 1        @ C:/Keil_v5/ARM/PACK/Nuvoton/NuMicro_M2351_BSP/1.0.0/Device/M2351/StdDriver/src/crypto.c:75:5
	b	.LBB0_2
.Ltmp3:
.LBB0_2:
	.loc	3 77 23                 @ C:/Keil_v5/ARM/PACK/Nuvoton/NuMicro_M2351_BSP/1.0.0/Device/M2351/StdDriver/src/crypto.c:77:23
	ldr	r0, [sp, #24]
	.loc	3 77 34 is_stmt 0       @ C:/Keil_v5/ARM/PACK/Nuvoton/NuMicro_M2351_BSP/1.0.0/Device/M2351/StdDriver/src/crypto.c:77:34
	lsls	r0, r0, #2
	.loc	3 78 23 is_stmt 1       @ C:/Keil_v5/ARM/PACK/Nuvoton/NuMicro_M2351_BSP/1.0.0/Device/M2351/StdDriver/src/crypto.c:78:23
	ldr	r1, [sp, #20]
	.loc	3 78 37 is_stmt 0       @ C:/Keil_v5/ARM/PACK/Nuvoton/NuMicro_M2351_BSP/1.0.0/Device/M2351/StdDriver/src/crypto.c:78:37
	lsls	r1, r1, #1
	.loc	3 77 62 is_stmt 1       @ C:/Keil_v5/ARM/PACK/Nuvoton/NuMicro_M2351_BSP/1.0.0/Device/M2351/StdDriver/src/crypto.c:77:62
	orrs	r0, r1
	.loc	3 77 5 is_stmt 0        @ C:/Keil_v5/ARM/PACK/Nuvoton/NuMicro_M2351_BSP/1.0.0/Device/M2351/StdDriver/src/crypto.c:77:5
	ldr	r1, [sp, #28]
	.loc	3 77 20                 @ C:/Keil_v5/ARM/PACK/Nuvoton/NuMicro_M2351_BSP/1.0.0/Device/M2351/StdDriver/src/crypto.c:77:20
	str	r0, [r1, #8]
	.loc	3 79 1 is_stmt 1        @ C:/Keil_v5/ARM/PACK/Nuvoton/NuMicro_M2351_BSP/1.0.0/Device/M2351/StdDriver/src/crypto.c:79:1
	add	sp, #32
	pop	{r4, r5, r6, r7, pc}
.Ltmp4:
.Lfunc_end0:
	.size	PRNG_Open, .Lfunc_end0-PRNG_Open
	.cfi_endproc
	.cantunwind
	.fnend
                                        @ -- End function
	.section	.text.PRNG_Start,"ax",%progbits
	.hidden	PRNG_Start              @ -- Begin function PRNG_Start
	.globl	PRNG_Start
	.p2align	1
	.type	PRNG_Start,%function
	.code	16                      @ @PRNG_Start
	.thumb_func
PRNG_Start:
.Lfunc_begin1:
	.loc	3 87 0                  @ C:/Keil_v5/ARM/PACK/Nuvoton/NuMicro_M2351_BSP/1.0.0/Device/M2351/StdDriver/src/crypto.c:87:0
	.fnstart
	.cfi_startproc
@ %bb.0:
	.pad	#8
	sub	sp, #8
	.cfi_def_cfa_offset 8
	mov	r1, r0
	str	r0, [sp, #4]
.Ltmp5:
	.loc	3 88 5 prologue_end     @ C:/Keil_v5/ARM/PACK/Nuvoton/NuMicro_M2351_BSP/1.0.0/Device/M2351/StdDriver/src/crypto.c:88:5
	ldr	r0, [sp, #4]
	.loc	3 88 20 is_stmt 0       @ C:/Keil_v5/ARM/PACK/Nuvoton/NuMicro_M2351_BSP/1.0.0/Device/M2351/StdDriver/src/crypto.c:88:20
	ldr	r2, [r0, #8]
	movs	r3, #1
	orrs	r2, r3
	str	r2, [r0, #8]
	.loc	3 89 1 is_stmt 1        @ C:/Keil_v5/ARM/PACK/Nuvoton/NuMicro_M2351_BSP/1.0.0/Device/M2351/StdDriver/src/crypto.c:89:1
	str	r1, [sp]                @ 4-byte Spill
	add	sp, #8
	bx	lr
.Ltmp6:
.Lfunc_end1:
	.size	PRNG_Start, .Lfunc_end1-PRNG_Start
	.cfi_endproc
	.cantunwind
	.fnend
                                        @ -- End function
	.section	.text.PRNG_Read,"ax",%progbits
	.hidden	PRNG_Read               @ -- Begin function PRNG_Read
	.globl	PRNG_Read
	.p2align	1
	.type	PRNG_Read,%function
	.code	16                      @ @PRNG_Read
	.thumb_func
PRNG_Read:
.Lfunc_begin2:
	.loc	3 97 0                  @ C:/Keil_v5/ARM/PACK/Nuvoton/NuMicro_M2351_BSP/1.0.0/Device/M2351/StdDriver/src/crypto.c:97:0
	.fnstart
	.cfi_startproc
@ %bb.0:
	.pad	#24
	sub	sp, #24
	.cfi_def_cfa_offset 24
	mov	r2, r1
	mov	r3, r0
	str	r0, [sp, #20]
	str	r1, [sp, #16]
.Ltmp7:
	.loc	3 100 15 prologue_end   @ C:/Keil_v5/ARM/PACK/Nuvoton/NuMicro_M2351_BSP/1.0.0/Device/M2351/StdDriver/src/crypto.c:100:15
	ldr	r0, [sp, #20]
	.loc	3 100 21 is_stmt 0      @ C:/Keil_v5/ARM/PACK/Nuvoton/NuMicro_M2351_BSP/1.0.0/Device/M2351/StdDriver/src/crypto.c:100:21
	ldr	r0, [r0, #8]
	.loc	3 100 30                @ C:/Keil_v5/ARM/PACK/Nuvoton/NuMicro_M2351_BSP/1.0.0/Device/M2351/StdDriver/src/crypto.c:100:30
	movs	r1, #12
	ands	r0, r1
	.loc	3 100 85                @ C:/Keil_v5/ARM/PACK/Nuvoton/NuMicro_M2351_BSP/1.0.0/Device/M2351/StdDriver/src/crypto.c:100:85
	lsrs	r0, r0, #1
	.loc	3 100 91                @ C:/Keil_v5/ARM/PACK/Nuvoton/NuMicro_M2351_BSP/1.0.0/Device/M2351/StdDriver/src/crypto.c:100:91
	adds	r0, r0, #2
	.loc	3 100 10                @ C:/Keil_v5/ARM/PACK/Nuvoton/NuMicro_M2351_BSP/1.0.0/Device/M2351/StdDriver/src/crypto.c:100:10
	str	r0, [sp, #8]
	movs	r0, #0
.Ltmp8:
	.loc	3 102 11 is_stmt 1      @ C:/Keil_v5/ARM/PACK/Nuvoton/NuMicro_M2351_BSP/1.0.0/Device/M2351/StdDriver/src/crypto.c:102:11
	str	r0, [sp, #12]
	.loc	3 102 9 is_stmt 0       @ C:/Keil_v5/ARM/PACK/Nuvoton/NuMicro_M2351_BSP/1.0.0/Device/M2351/StdDriver/src/crypto.c:102:9
	str	r2, [sp, #4]            @ 4-byte Spill
	str	r3, [sp]                @ 4-byte Spill
	b	.LBB2_1
.LBB2_1:                                @ =>This Inner Loop Header: Depth=1
.Ltmp9:
	.loc	3 102 17                @ C:/Keil_v5/ARM/PACK/Nuvoton/NuMicro_M2351_BSP/1.0.0/Device/M2351/StdDriver/src/crypto.c:102:17
	ldr	r0, [sp, #12]
	.loc	3 102 21                @ C:/Keil_v5/ARM/PACK/Nuvoton/NuMicro_M2351_BSP/1.0.0/Device/M2351/StdDriver/src/crypto.c:102:21
	ldr	r1, [sp, #8]
.Ltmp10:
	.loc	3 102 5                 @ C:/Keil_v5/ARM/PACK/Nuvoton/NuMicro_M2351_BSP/1.0.0/Device/M2351/StdDriver/src/crypto.c:102:5
	cmp	r0, r1
	bhs	.LBB2_4
	b	.LBB2_2
.LBB2_2:                                @   in Loop: Header=BB2_1 Depth=1
.Ltmp11:
	.loc	3 104 25 is_stmt 1      @ C:/Keil_v5/ARM/PACK/Nuvoton/NuMicro_M2351_BSP/1.0.0/Device/M2351/StdDriver/src/crypto.c:104:25
	ldr	r0, [sp, #20]
	.loc	3 104 40 is_stmt 0      @ C:/Keil_v5/ARM/PACK/Nuvoton/NuMicro_M2351_BSP/1.0.0/Device/M2351/StdDriver/src/crypto.c:104:40
	ldr	r1, [sp, #12]
	.loc	3 104 25                @ C:/Keil_v5/ARM/PACK/Nuvoton/NuMicro_M2351_BSP/1.0.0/Device/M2351/StdDriver/src/crypto.c:104:25
	lsls	r1, r1, #2
	.loc	3 104 31                @ C:/Keil_v5/ARM/PACK/Nuvoton/NuMicro_M2351_BSP/1.0.0/Device/M2351/StdDriver/src/crypto.c:104:31
	adds	r0, r0, r1
	.loc	3 104 25                @ C:/Keil_v5/ARM/PACK/Nuvoton/NuMicro_M2351_BSP/1.0.0/Device/M2351/StdDriver/src/crypto.c:104:25
	ldr	r0, [r0, #16]
	.loc	3 104 9                 @ C:/Keil_v5/ARM/PACK/Nuvoton/NuMicro_M2351_BSP/1.0.0/Device/M2351/StdDriver/src/crypto.c:104:9
	ldr	r1, [sp, #16]
	.loc	3 104 20                @ C:/Keil_v5/ARM/PACK/Nuvoton/NuMicro_M2351_BSP/1.0.0/Device/M2351/StdDriver/src/crypto.c:104:20
	ldr	r2, [sp, #12]
	.loc	3 104 9                 @ C:/Keil_v5/ARM/PACK/Nuvoton/NuMicro_M2351_BSP/1.0.0/Device/M2351/StdDriver/src/crypto.c:104:9
	lsls	r2, r2, #2
	.loc	3 104 23                @ C:/Keil_v5/ARM/PACK/Nuvoton/NuMicro_M2351_BSP/1.0.0/Device/M2351/StdDriver/src/crypto.c:104:23
	str	r0, [r1, r2]
	.loc	3 105 5 is_stmt 1       @ C:/Keil_v5/ARM/PACK/Nuvoton/NuMicro_M2351_BSP/1.0.0/Device/M2351/StdDriver/src/crypto.c:105:5
	b	.LBB2_3
.Ltmp12:
.LBB2_3:                                @   in Loop: Header=BB2_1 Depth=1
	.loc	3 102 28                @ C:/Keil_v5/ARM/PACK/Nuvoton/NuMicro_M2351_BSP/1.0.0/Device/M2351/StdDriver/src/crypto.c:102:28
	ldr	r0, [sp, #12]
	adds	r0, r0, #1
	str	r0, [sp, #12]
	.loc	3 102 5 is_stmt 0       @ C:/Keil_v5/ARM/PACK/Nuvoton/NuMicro_M2351_BSP/1.0.0/Device/M2351/StdDriver/src/crypto.c:102:5
	b	.LBB2_1
.Ltmp13:
.LBB2_4:
	.loc	3 107 5 is_stmt 1       @ C:/Keil_v5/ARM/PACK/Nuvoton/NuMicro_M2351_BSP/1.0.0/Device/M2351/StdDriver/src/crypto.c:107:5
	ldr	r0, [sp, #20]
	.loc	3 107 20 is_stmt 0      @ C:/Keil_v5/ARM/PACK/Nuvoton/NuMicro_M2351_BSP/1.0.0/Device/M2351/StdDriver/src/crypto.c:107:20
	ldr	r1, [r0, #8]
	movs	r2, #2
	bics	r1, r2
	str	r1, [r0, #8]
	.loc	3 108 1 is_stmt 1       @ C:/Keil_v5/ARM/PACK/Nuvoton/NuMicro_M2351_BSP/1.0.0/Device/M2351/StdDriver/src/crypto.c:108:1
	add	sp, #24
	bx	lr
.Ltmp14:
.Lfunc_end2:
	.size	PRNG_Read, .Lfunc_end2-PRNG_Read
	.cfi_endproc
	.cantunwind
	.fnend
                                        @ -- End function
	.section	.text.AES_Open,"ax",%progbits
	.hidden	AES_Open                @ -- Begin function AES_Open
	.globl	AES_Open
	.p2align	2
	.type	AES_Open,%function
	.code	16                      @ @AES_Open
	.thumb_func
AES_Open:
.Lfunc_begin3:
	.loc	3 137 0                 @ C:/Keil_v5/ARM/PACK/Nuvoton/NuMicro_M2351_BSP/1.0.0/Device/M2351/StdDriver/src/crypto.c:137:0
	.fnstart
	.cfi_startproc
@ %bb.0:
	.save	{r4, r5, r6, r7, lr}
	push	{r4, r5, r6, r7, lr}
	.cfi_def_cfa_offset 20
	.cfi_offset lr, -4
	.cfi_offset r7, -8
	.cfi_offset r6, -12
	.cfi_offset r5, -16
	.cfi_offset r4, -20
	.pad	#44
	sub	sp, #44
	.cfi_def_cfa_offset 64
	ldr	r4, [sp, #68]
	ldr	r5, [sp, #64]
	mov	r6, r3
	mov	r7, r2
	str	r0, [sp, #24]           @ 4-byte Spill
	mov	r0, r1
	str	r0, [sp, #20]           @ 4-byte Spill
	ldr	r0, [sp, #24]           @ 4-byte Reload
	str	r0, [sp, #16]           @ 4-byte Spill
	ldr	r0, [sp, #24]           @ 4-byte Reload
	str	r0, [sp, #40]
	str	r1, [sp, #36]
	str	r2, [sp, #32]
	str	r3, [sp, #28]
.Ltmp15:
	.loc	3 138 22 prologue_end   @ C:/Keil_v5/ARM/PACK/Nuvoton/NuMicro_M2351_BSP/1.0.0/Device/M2351/StdDriver/src/crypto.c:138:22
	ldr	r1, [sp, #36]
	.loc	3 138 33 is_stmt 0      @ C:/Keil_v5/ARM/PACK/Nuvoton/NuMicro_M2351_BSP/1.0.0/Device/M2351/StdDriver/src/crypto.c:138:33
	lsls	r1, r1, #24
	.loc	3 139 22 is_stmt 1      @ C:/Keil_v5/ARM/PACK/Nuvoton/NuMicro_M2351_BSP/1.0.0/Device/M2351/StdDriver/src/crypto.c:139:22
	ldr	r2, [sp, #32]
	.loc	3 139 32 is_stmt 0      @ C:/Keil_v5/ARM/PACK/Nuvoton/NuMicro_M2351_BSP/1.0.0/Device/M2351/StdDriver/src/crypto.c:139:32
	lsls	r2, r2, #16
	.loc	3 138 62 is_stmt 1      @ C:/Keil_v5/ARM/PACK/Nuvoton/NuMicro_M2351_BSP/1.0.0/Device/M2351/StdDriver/src/crypto.c:138:62
	orrs	r1, r2
	.loc	3 140 22                @ C:/Keil_v5/ARM/PACK/Nuvoton/NuMicro_M2351_BSP/1.0.0/Device/M2351/StdDriver/src/crypto.c:140:22
	ldr	r2, [sp, #28]
	.loc	3 140 32 is_stmt 0      @ C:/Keil_v5/ARM/PACK/Nuvoton/NuMicro_M2351_BSP/1.0.0/Device/M2351/StdDriver/src/crypto.c:140:32
	lsls	r2, r2, #8
	.loc	3 139 60 is_stmt 1      @ C:/Keil_v5/ARM/PACK/Nuvoton/NuMicro_M2351_BSP/1.0.0/Device/M2351/StdDriver/src/crypto.c:139:60
	orrs	r1, r2
	.loc	3 141 22                @ C:/Keil_v5/ARM/PACK/Nuvoton/NuMicro_M2351_BSP/1.0.0/Device/M2351/StdDriver/src/crypto.c:141:22
	ldr	r2, [sp, #64]
	.loc	3 141 33 is_stmt 0      @ C:/Keil_v5/ARM/PACK/Nuvoton/NuMicro_M2351_BSP/1.0.0/Device/M2351/StdDriver/src/crypto.c:141:33
	lsls	r2, r2, #2
	.loc	3 140 60 is_stmt 1      @ C:/Keil_v5/ARM/PACK/Nuvoton/NuMicro_M2351_BSP/1.0.0/Device/M2351/StdDriver/src/crypto.c:140:60
	orrs	r1, r2
	.loc	3 142 22                @ C:/Keil_v5/ARM/PACK/Nuvoton/NuMicro_M2351_BSP/1.0.0/Device/M2351/StdDriver/src/crypto.c:142:22
	ldr	r2, [sp, #68]
	.loc	3 142 34 is_stmt 0      @ C:/Keil_v5/ARM/PACK/Nuvoton/NuMicro_M2351_BSP/1.0.0/Device/M2351/StdDriver/src/crypto.c:142:34
	lsls	r2, r2, #22
	.loc	3 141 60 is_stmt 1      @ C:/Keil_v5/ARM/PACK/Nuvoton/NuMicro_M2351_BSP/1.0.0/Device/M2351/StdDriver/src/crypto.c:141:60
	orrs	r1, r2
	.loc	3 138 5                 @ C:/Keil_v5/ARM/PACK/Nuvoton/NuMicro_M2351_BSP/1.0.0/Device/M2351/StdDriver/src/crypto.c:138:5
	ldr	r2, [sp, #40]
	movw	r3, #256
	.loc	3 138 19 is_stmt 0      @ C:/Keil_v5/ARM/PACK/Nuvoton/NuMicro_M2351_BSP/1.0.0/Device/M2351/StdDriver/src/crypto.c:138:19
	str	r1, [r2, r3]
	.loc	3 143 29 is_stmt 1      @ C:/Keil_v5/ARM/PACK/Nuvoton/NuMicro_M2351_BSP/1.0.0/Device/M2351/StdDriver/src/crypto.c:143:29
	ldr	r1, [sp, #40]
	.loc	3 143 35 is_stmt 0      @ C:/Keil_v5/ARM/PACK/Nuvoton/NuMicro_M2351_BSP/1.0.0/Device/M2351/StdDriver/src/crypto.c:143:35
	ldr	r1, [r1, r3]
	.loc	3 143 15                @ C:/Keil_v5/ARM/PACK/Nuvoton/NuMicro_M2351_BSP/1.0.0/Device/M2351/StdDriver/src/crypto.c:143:15
	ldr	r2, [sp, #36]
	.loc	3 143 5                 @ C:/Keil_v5/ARM/PACK/Nuvoton/NuMicro_M2351_BSP/1.0.0/Device/M2351/StdDriver/src/crypto.c:143:5
	lsls	r2, r2, #2
	ldr	r3, __arm_cp.3_0
	.loc	3 143 27                @ C:/Keil_v5/ARM/PACK/Nuvoton/NuMicro_M2351_BSP/1.0.0/Device/M2351/StdDriver/src/crypto.c:143:27
	str	r1, [r3, r2]
	.loc	3 144 1 is_stmt 1       @ C:/Keil_v5/ARM/PACK/Nuvoton/NuMicro_M2351_BSP/1.0.0/Device/M2351/StdDriver/src/crypto.c:144:1
	str	r5, [sp, #12]           @ 4-byte Spill
	str	r6, [sp, #8]            @ 4-byte Spill
	str	r7, [sp, #4]            @ 4-byte Spill
	str	r4, [sp]                @ 4-byte Spill
	add	sp, #44
	pop	{r4, r5, r6, r7, pc}
.Ltmp16:
	.p2align	2
@ %bb.1:
	.loc	3 0 1 is_stmt 0         @ C:/Keil_v5/ARM/PACK/Nuvoton/NuMicro_M2351_BSP/1.0.0/Device/M2351/StdDriver/src/crypto.c:0:1
__arm_cp.3_0:
	.long	g_AES_CTL
.Lcpi_end0:
	.size	__arm_cp.3_0, .Lcpi_end0-__arm_cp.3_0
.Lfunc_end3:
	.size	AES_Open, .Lfunc_end3-AES_Open
	.cfi_endproc
	.cantunwind
	.fnend
                                        @ -- End function
	.section	.text.AES_Start,"ax",%progbits
	.hidden	AES_Start               @ -- Begin function AES_Start
	.globl	AES_Start
	.p2align	2
	.type	AES_Start,%function
	.code	16                      @ @AES_Start
	.thumb_func
AES_Start:
.Lfunc_begin4:
	.loc	3 156 0 is_stmt 1       @ C:/Keil_v5/ARM/PACK/Nuvoton/NuMicro_M2351_BSP/1.0.0/Device/M2351/StdDriver/src/crypto.c:156:0
	.fnstart
	.cfi_startproc
@ %bb.0:
	.save	{r4, r5, r6, lr}
	push	{r4, r5, r6, lr}
	.cfi_def_cfa_offset 16
	.cfi_offset lr, -4
	.cfi_offset r6, -8
	.cfi_offset r5, -12
	.cfi_offset r4, -16
	.pad	#24
	sub	sp, #24
	.cfi_def_cfa_offset 40
	mov	r3, r2
	mov	r4, r1
	mov	r5, r0
	str	r0, [sp, #20]
	str	r1, [sp, #16]
	str	r2, [sp, #12]
.Ltmp17:
	.loc	3 157 31 prologue_end   @ C:/Keil_v5/ARM/PACK/Nuvoton/NuMicro_M2351_BSP/1.0.0/Device/M2351/StdDriver/src/crypto.c:157:31
	ldr	r0, [sp, #16]
	.loc	3 157 21 is_stmt 0      @ C:/Keil_v5/ARM/PACK/Nuvoton/NuMicro_M2351_BSP/1.0.0/Device/M2351/StdDriver/src/crypto.c:157:21
	lsls	r0, r0, #2
	ldr	r1, __arm_cp.4_0
	ldr	r0, [r1, r0]
	.loc	3 157 5                 @ C:/Keil_v5/ARM/PACK/Nuvoton/NuMicro_M2351_BSP/1.0.0/Device/M2351/StdDriver/src/crypto.c:157:5
	ldr	r1, [sp, #20]
	movw	r2, #256
	.loc	3 157 19                @ C:/Keil_v5/ARM/PACK/Nuvoton/NuMicro_M2351_BSP/1.0.0/Device/M2351/StdDriver/src/crypto.c:157:19
	str	r0, [r1, r2]
	.loc	3 158 48 is_stmt 1      @ C:/Keil_v5/ARM/PACK/Nuvoton/NuMicro_M2351_BSP/1.0.0/Device/M2351/StdDriver/src/crypto.c:158:48
	ldr	r0, [sp, #12]
	.loc	3 158 59 is_stmt 0      @ C:/Keil_v5/ARM/PACK/Nuvoton/NuMicro_M2351_BSP/1.0.0/Device/M2351/StdDriver/src/crypto.c:158:59
	lsls	r0, r0, #5
	.loc	3 158 5                 @ C:/Keil_v5/ARM/PACK/Nuvoton/NuMicro_M2351_BSP/1.0.0/Device/M2351/StdDriver/src/crypto.c:158:5
	ldr	r1, [sp, #20]
	.loc	3 158 19                @ C:/Keil_v5/ARM/PACK/Nuvoton/NuMicro_M2351_BSP/1.0.0/Device/M2351/StdDriver/src/crypto.c:158:19
	ldr	r6, [r1, r2]
	orrs	r6, r0
	.loc	3 158 45                @ C:/Keil_v5/ARM/PACK/Nuvoton/NuMicro_M2351_BSP/1.0.0/Device/M2351/StdDriver/src/crypto.c:158:45
	movs	r0, #1
	.loc	3 158 19                @ C:/Keil_v5/ARM/PACK/Nuvoton/NuMicro_M2351_BSP/1.0.0/Device/M2351/StdDriver/src/crypto.c:158:19
	orrs	r6, r0
	str	r6, [r1, r2]
	.loc	3 159 1 is_stmt 1       @ C:/Keil_v5/ARM/PACK/Nuvoton/NuMicro_M2351_BSP/1.0.0/Device/M2351/StdDriver/src/crypto.c:159:1
	str	r3, [sp, #8]            @ 4-byte Spill
	str	r4, [sp, #4]            @ 4-byte Spill
	str	r5, [sp]                @ 4-byte Spill
	add	sp, #24
	pop	{r4, r5, r6, pc}
.Ltmp18:
	.p2align	2
@ %bb.1:
	.loc	3 0 1 is_stmt 0         @ C:/Keil_v5/ARM/PACK/Nuvoton/NuMicro_M2351_BSP/1.0.0/Device/M2351/StdDriver/src/crypto.c:0:1
__arm_cp.4_0:
	.long	g_AES_CTL
.Lcpi_end1:
	.size	__arm_cp.4_0, .Lcpi_end1-__arm_cp.4_0
.Lfunc_end4:
	.size	AES_Start, .Lfunc_end4-AES_Start
	.cfi_endproc
	.cantunwind
	.fnend
                                        @ -- End function
	.section	.text.AES_SetKey,"ax",%progbits
	.hidden	AES_SetKey              @ -- Begin function AES_SetKey
	.globl	AES_SetKey
	.p2align	1
	.type	AES_SetKey,%function
	.code	16                      @ @AES_SetKey
	.thumb_func
AES_SetKey:
.Lfunc_begin5:
	.loc	3 172 0 is_stmt 1       @ C:/Keil_v5/ARM/PACK/Nuvoton/NuMicro_M2351_BSP/1.0.0/Device/M2351/StdDriver/src/crypto.c:172:0
	.fnstart
	.cfi_startproc
@ %bb.0:
	.save	{r4, r5, r6, r7, lr}
	push	{r4, r5, r6, r7, lr}
	.cfi_def_cfa_offset 20
	.cfi_offset lr, -4
	.cfi_offset r7, -8
	.cfi_offset r6, -12
	.cfi_offset r5, -16
	.cfi_offset r4, -20
	.pad	#44
	sub	sp, #44
	.cfi_def_cfa_offset 64
	mov	r4, r3
	mov	r5, r2
	mov	r6, r1
	mov	r7, r0
	str	r0, [sp, #40]
	str	r1, [sp, #36]
	str	r2, [sp, #32]
	str	r3, [sp, #28]
.Ltmp19:
	.loc	3 175 31 prologue_end   @ C:/Keil_v5/ARM/PACK/Nuvoton/NuMicro_M2351_BSP/1.0.0/Device/M2351/StdDriver/src/crypto.c:175:31
	ldr	r0, [sp, #40]
	.loc	3 175 52 is_stmt 0      @ C:/Keil_v5/ARM/PACK/Nuvoton/NuMicro_M2351_BSP/1.0.0/Device/M2351/StdDriver/src/crypto.c:175:52
	ldr	r1, [sp, #36]
	.loc	3 175 63                @ C:/Keil_v5/ARM/PACK/Nuvoton/NuMicro_M2351_BSP/1.0.0/Device/M2351/StdDriver/src/crypto.c:175:63
	movs	r2, #60
	muls	r2, r1, r2
	.loc	3 175 37                @ C:/Keil_v5/ARM/PACK/Nuvoton/NuMicro_M2351_BSP/1.0.0/Device/M2351/StdDriver/src/crypto.c:175:37
	adds	r0, r0, r2
	movw	r1, #272
	.loc	3 175 49                @ C:/Keil_v5/ARM/PACK/Nuvoton/NuMicro_M2351_BSP/1.0.0/Device/M2351/StdDriver/src/crypto.c:175:49
	adds	r0, r0, r1
	.loc	3 175 18                @ C:/Keil_v5/ARM/PACK/Nuvoton/NuMicro_M2351_BSP/1.0.0/Device/M2351/StdDriver/src/crypto.c:175:18
	str	r0, [sp, #16]
	.loc	3 176 18 is_stmt 1      @ C:/Keil_v5/ARM/PACK/Nuvoton/NuMicro_M2351_BSP/1.0.0/Device/M2351/StdDriver/src/crypto.c:176:18
	ldr	r0, [sp, #28]
	.loc	3 176 29 is_stmt 0      @ C:/Keil_v5/ARM/PACK/Nuvoton/NuMicro_M2351_BSP/1.0.0/Device/M2351/StdDriver/src/crypto.c:176:29
	lsls	r0, r0, #1
	.loc	3 176 16                @ C:/Keil_v5/ARM/PACK/Nuvoton/NuMicro_M2351_BSP/1.0.0/Device/M2351/StdDriver/src/crypto.c:176:16
	adds	r0, r0, #4
	.loc	3 176 10                @ C:/Keil_v5/ARM/PACK/Nuvoton/NuMicro_M2351_BSP/1.0.0/Device/M2351/StdDriver/src/crypto.c:176:10
	str	r0, [sp, #20]
	movs	r0, #0
.Ltmp20:
	.loc	3 178 11 is_stmt 1      @ C:/Keil_v5/ARM/PACK/Nuvoton/NuMicro_M2351_BSP/1.0.0/Device/M2351/StdDriver/src/crypto.c:178:11
	str	r0, [sp, #24]
	.loc	3 178 9 is_stmt 0       @ C:/Keil_v5/ARM/PACK/Nuvoton/NuMicro_M2351_BSP/1.0.0/Device/M2351/StdDriver/src/crypto.c:178:9
	str	r4, [sp, #12]           @ 4-byte Spill
	str	r5, [sp, #8]            @ 4-byte Spill
	str	r6, [sp, #4]            @ 4-byte Spill
	str	r7, [sp]                @ 4-byte Spill
	b	.LBB5_1
.LBB5_1:                                @ =>This Inner Loop Header: Depth=1
.Ltmp21:
	.loc	3 178 17                @ C:/Keil_v5/ARM/PACK/Nuvoton/NuMicro_M2351_BSP/1.0.0/Device/M2351/StdDriver/src/crypto.c:178:17
	ldr	r0, [sp, #24]
	.loc	3 178 21                @ C:/Keil_v5/ARM/PACK/Nuvoton/NuMicro_M2351_BSP/1.0.0/Device/M2351/StdDriver/src/crypto.c:178:21
	ldr	r1, [sp, #20]
.Ltmp22:
	.loc	3 178 5                 @ C:/Keil_v5/ARM/PACK/Nuvoton/NuMicro_M2351_BSP/1.0.0/Device/M2351/StdDriver/src/crypto.c:178:5
	cmp	r0, r1
	bhs	.LBB5_4
	b	.LBB5_2
.LBB5_2:                                @   in Loop: Header=BB5_1 Depth=1
.Ltmp23:
	.loc	3 180 9 is_stmt 1       @ C:/Keil_v5/ARM/PACK/Nuvoton/NuMicro_M2351_BSP/1.0.0/Device/M2351/StdDriver/src/crypto.c:180:9
	ldr	r0, [sp, #32]
	ldr	r1, [sp, #24]
	lsls	r1, r1, #2
	ldr	r0, [r0, r1]
	ldr	r1, [sp, #16]
	str	r0, [r1]
	.loc	3 181 22                @ C:/Keil_v5/ARM/PACK/Nuvoton/NuMicro_M2351_BSP/1.0.0/Device/M2351/StdDriver/src/crypto.c:181:22
	ldr	r0, [sp, #16]
	adds	r0, r0, #4
	str	r0, [sp, #16]
	.loc	3 182 5                 @ C:/Keil_v5/ARM/PACK/Nuvoton/NuMicro_M2351_BSP/1.0.0/Device/M2351/StdDriver/src/crypto.c:182:5
	b	.LBB5_3
.Ltmp24:
.LBB5_3:                                @   in Loop: Header=BB5_1 Depth=1
	.loc	3 178 28                @ C:/Keil_v5/ARM/PACK/Nuvoton/NuMicro_M2351_BSP/1.0.0/Device/M2351/StdDriver/src/crypto.c:178:28
	ldr	r0, [sp, #24]
	adds	r0, r0, #1
	str	r0, [sp, #24]
	.loc	3 178 5 is_stmt 0       @ C:/Keil_v5/ARM/PACK/Nuvoton/NuMicro_M2351_BSP/1.0.0/Device/M2351/StdDriver/src/crypto.c:178:5
	b	.LBB5_1
.Ltmp25:
.LBB5_4:
	.loc	3 183 1 is_stmt 1       @ C:/Keil_v5/ARM/PACK/Nuvoton/NuMicro_M2351_BSP/1.0.0/Device/M2351/StdDriver/src/crypto.c:183:1
	add	sp, #44
	pop	{r4, r5, r6, r7, pc}
.Ltmp26:
.Lfunc_end5:
	.size	AES_SetKey, .Lfunc_end5-AES_SetKey
	.cfi_endproc
	.cantunwind
	.fnend
                                        @ -- End function
	.section	.text.AES_SetInitVect,"ax",%progbits
	.hidden	AES_SetInitVect         @ -- Begin function AES_SetInitVect
	.globl	AES_SetInitVect
	.p2align	1
	.type	AES_SetInitVect,%function
	.code	16                      @ @AES_SetInitVect
	.thumb_func
AES_SetInitVect:
.Lfunc_begin6:
	.loc	3 192 0                 @ C:/Keil_v5/ARM/PACK/Nuvoton/NuMicro_M2351_BSP/1.0.0/Device/M2351/StdDriver/src/crypto.c:192:0
	.fnstart
	.cfi_startproc
@ %bb.0:
	.save	{r4, r5, r7, lr}
	push	{r4, r5, r7, lr}
	.cfi_def_cfa_offset 16
	.cfi_offset lr, -4
	.cfi_offset r7, -8
	.cfi_offset r5, -12
	.cfi_offset r4, -16
	.pad	#32
	sub	sp, #32
	.cfi_def_cfa_offset 48
	mov	r3, r2
	mov	r4, r1
	mov	r5, r0
	str	r0, [sp, #28]
	str	r1, [sp, #24]
	str	r2, [sp, #20]
.Ltmp27:
	.loc	3 195 31 prologue_end   @ C:/Keil_v5/ARM/PACK/Nuvoton/NuMicro_M2351_BSP/1.0.0/Device/M2351/StdDriver/src/crypto.c:195:31
	ldr	r0, [sp, #28]
	.loc	3 195 51 is_stmt 0      @ C:/Keil_v5/ARM/PACK/Nuvoton/NuMicro_M2351_BSP/1.0.0/Device/M2351/StdDriver/src/crypto.c:195:51
	ldr	r1, [sp, #24]
	.loc	3 195 62                @ C:/Keil_v5/ARM/PACK/Nuvoton/NuMicro_M2351_BSP/1.0.0/Device/M2351/StdDriver/src/crypto.c:195:62
	movs	r2, #60
	muls	r2, r1, r2
	.loc	3 195 37                @ C:/Keil_v5/ARM/PACK/Nuvoton/NuMicro_M2351_BSP/1.0.0/Device/M2351/StdDriver/src/crypto.c:195:37
	adds	r0, r0, r2
	movw	r1, #304
	.loc	3 195 48                @ C:/Keil_v5/ARM/PACK/Nuvoton/NuMicro_M2351_BSP/1.0.0/Device/M2351/StdDriver/src/crypto.c:195:48
	adds	r0, r0, r1
	.loc	3 195 18                @ C:/Keil_v5/ARM/PACK/Nuvoton/NuMicro_M2351_BSP/1.0.0/Device/M2351/StdDriver/src/crypto.c:195:18
	str	r0, [sp, #12]
	movs	r0, #0
.Ltmp28:
	.loc	3 197 11 is_stmt 1      @ C:/Keil_v5/ARM/PACK/Nuvoton/NuMicro_M2351_BSP/1.0.0/Device/M2351/StdDriver/src/crypto.c:197:11
	str	r0, [sp, #16]
	.loc	3 197 9 is_stmt 0       @ C:/Keil_v5/ARM/PACK/Nuvoton/NuMicro_M2351_BSP/1.0.0/Device/M2351/StdDriver/src/crypto.c:197:9
	str	r3, [sp, #8]            @ 4-byte Spill
	str	r4, [sp, #4]            @ 4-byte Spill
	str	r5, [sp]                @ 4-byte Spill
	b	.LBB6_1
.LBB6_1:                                @ =>This Inner Loop Header: Depth=1
.Ltmp29:
	.loc	3 197 17                @ C:/Keil_v5/ARM/PACK/Nuvoton/NuMicro_M2351_BSP/1.0.0/Device/M2351/StdDriver/src/crypto.c:197:17
	ldr	r0, [sp, #16]
.Ltmp30:
	.loc	3 197 5                 @ C:/Keil_v5/ARM/PACK/Nuvoton/NuMicro_M2351_BSP/1.0.0/Device/M2351/StdDriver/src/crypto.c:197:5
	cmp	r0, #3
	bhi	.LBB6_4
	b	.LBB6_2
.LBB6_2:                                @   in Loop: Header=BB6_1 Depth=1
.Ltmp31:
	.loc	3 199 9 is_stmt 1       @ C:/Keil_v5/ARM/PACK/Nuvoton/NuMicro_M2351_BSP/1.0.0/Device/M2351/StdDriver/src/crypto.c:199:9
	ldr	r0, [sp, #20]
	ldr	r1, [sp, #16]
	lsls	r1, r1, #2
	ldr	r0, [r0, r1]
	ldr	r1, [sp, #12]
	str	r0, [r1]
	.loc	3 200 22                @ C:/Keil_v5/ARM/PACK/Nuvoton/NuMicro_M2351_BSP/1.0.0/Device/M2351/StdDriver/src/crypto.c:200:22
	ldr	r0, [sp, #12]
	adds	r0, r0, #4
	str	r0, [sp, #12]
	.loc	3 201 5                 @ C:/Keil_v5/ARM/PACK/Nuvoton/NuMicro_M2351_BSP/1.0.0/Device/M2351/StdDriver/src/crypto.c:201:5
	b	.LBB6_3
.Ltmp32:
.LBB6_3:                                @   in Loop: Header=BB6_1 Depth=1
	.loc	3 197 26                @ C:/Keil_v5/ARM/PACK/Nuvoton/NuMicro_M2351_BSP/1.0.0/Device/M2351/StdDriver/src/crypto.c:197:26
	ldr	r0, [sp, #16]
	adds	r0, r0, #1
	str	r0, [sp, #16]
	.loc	3 197 5 is_stmt 0       @ C:/Keil_v5/ARM/PACK/Nuvoton/NuMicro_M2351_BSP/1.0.0/Device/M2351/StdDriver/src/crypto.c:197:5
	b	.LBB6_1
.Ltmp33:
.LBB6_4:
	.loc	3 202 1 is_stmt 1       @ C:/Keil_v5/ARM/PACK/Nuvoton/NuMicro_M2351_BSP/1.0.0/Device/M2351/StdDriver/src/crypto.c:202:1
	add	sp, #32
	pop	{r4, r5, r7, pc}
.Ltmp34:
.Lfunc_end6:
	.size	AES_SetInitVect, .Lfunc_end6-AES_SetInitVect
	.cfi_endproc
	.cantunwind
	.fnend
                                        @ -- End function
	.section	.text.AES_SetDMATransfer,"ax",%progbits
	.hidden	AES_SetDMATransfer      @ -- Begin function AES_SetDMATransfer
	.globl	AES_SetDMATransfer
	.p2align	1
	.type	AES_SetDMATransfer,%function
	.code	16                      @ @AES_SetDMATransfer
	.thumb_func
AES_SetDMATransfer:
.Lfunc_begin7:
	.loc	3 214 0                 @ C:/Keil_v5/ARM/PACK/Nuvoton/NuMicro_M2351_BSP/1.0.0/Device/M2351/StdDriver/src/crypto.c:214:0
	.fnstart
	.cfi_startproc
@ %bb.0:
	.save	{r4, r5, r6, r7, lr}
	push	{r4, r5, r6, r7, lr}
	.cfi_def_cfa_offset 20
	.cfi_offset lr, -4
	.cfi_offset r7, -8
	.cfi_offset r6, -12
	.cfi_offset r5, -16
	.cfi_offset r4, -20
	.pad	#44
	sub	sp, #44
	.cfi_def_cfa_offset 64
	ldr	r4, [sp, #64]
	mov	r5, r3
	mov	r6, r2
	mov	r7, r1
	str	r0, [sp, #20]           @ 4-byte Spill
	str	r0, [sp, #16]           @ 4-byte Spill
	ldr	r0, [sp, #20]           @ 4-byte Reload
	str	r0, [sp, #40]
	str	r1, [sp, #36]
	str	r2, [sp, #32]
	str	r3, [sp, #28]
.Ltmp35:
	.loc	3 217 27 prologue_end   @ C:/Keil_v5/ARM/PACK/Nuvoton/NuMicro_M2351_BSP/1.0.0/Device/M2351/StdDriver/src/crypto.c:217:27
	ldr	r1, [sp, #40]
	.loc	3 217 47 is_stmt 0      @ C:/Keil_v5/ARM/PACK/Nuvoton/NuMicro_M2351_BSP/1.0.0/Device/M2351/StdDriver/src/crypto.c:217:47
	ldr	r2, [sp, #36]
	.loc	3 217 58                @ C:/Keil_v5/ARM/PACK/Nuvoton/NuMicro_M2351_BSP/1.0.0/Device/M2351/StdDriver/src/crypto.c:217:58
	movs	r3, #60
	mov	r0, r3
	muls	r0, r2, r0
	.loc	3 217 33                @ C:/Keil_v5/ARM/PACK/Nuvoton/NuMicro_M2351_BSP/1.0.0/Device/M2351/StdDriver/src/crypto.c:217:33
	adds	r0, r1, r0
	movw	r1, #320
	.loc	3 217 44                @ C:/Keil_v5/ARM/PACK/Nuvoton/NuMicro_M2351_BSP/1.0.0/Device/M2351/StdDriver/src/crypto.c:217:44
	adds	r0, r0, r1
	.loc	3 217 14                @ C:/Keil_v5/ARM/PACK/Nuvoton/NuMicro_M2351_BSP/1.0.0/Device/M2351/StdDriver/src/crypto.c:217:14
	str	r0, [sp, #24]
	.loc	3 218 5 is_stmt 1       @ C:/Keil_v5/ARM/PACK/Nuvoton/NuMicro_M2351_BSP/1.0.0/Device/M2351/StdDriver/src/crypto.c:218:5
	ldr	r0, [sp, #32]
	ldr	r1, [sp, #24]
	str	r0, [r1]
	.loc	3 220 27                @ C:/Keil_v5/ARM/PACK/Nuvoton/NuMicro_M2351_BSP/1.0.0/Device/M2351/StdDriver/src/crypto.c:220:27
	ldr	r0, [sp, #40]
	.loc	3 220 47 is_stmt 0      @ C:/Keil_v5/ARM/PACK/Nuvoton/NuMicro_M2351_BSP/1.0.0/Device/M2351/StdDriver/src/crypto.c:220:47
	ldr	r1, [sp, #36]
	.loc	3 220 58                @ C:/Keil_v5/ARM/PACK/Nuvoton/NuMicro_M2351_BSP/1.0.0/Device/M2351/StdDriver/src/crypto.c:220:58
	mov	r2, r3
	muls	r2, r1, r2
	.loc	3 220 33                @ C:/Keil_v5/ARM/PACK/Nuvoton/NuMicro_M2351_BSP/1.0.0/Device/M2351/StdDriver/src/crypto.c:220:33
	adds	r0, r0, r2
	movw	r1, #324
	.loc	3 220 44                @ C:/Keil_v5/ARM/PACK/Nuvoton/NuMicro_M2351_BSP/1.0.0/Device/M2351/StdDriver/src/crypto.c:220:44
	adds	r0, r0, r1
	.loc	3 220 14                @ C:/Keil_v5/ARM/PACK/Nuvoton/NuMicro_M2351_BSP/1.0.0/Device/M2351/StdDriver/src/crypto.c:220:14
	str	r0, [sp, #24]
	.loc	3 221 5 is_stmt 1       @ C:/Keil_v5/ARM/PACK/Nuvoton/NuMicro_M2351_BSP/1.0.0/Device/M2351/StdDriver/src/crypto.c:221:5
	ldr	r0, [sp, #28]
	ldr	r1, [sp, #24]
	str	r0, [r1]
	.loc	3 223 27                @ C:/Keil_v5/ARM/PACK/Nuvoton/NuMicro_M2351_BSP/1.0.0/Device/M2351/StdDriver/src/crypto.c:223:27
	ldr	r0, [sp, #40]
	.loc	3 223 45 is_stmt 0      @ C:/Keil_v5/ARM/PACK/Nuvoton/NuMicro_M2351_BSP/1.0.0/Device/M2351/StdDriver/src/crypto.c:223:45
	ldr	r1, [sp, #36]
	.loc	3 223 56                @ C:/Keil_v5/ARM/PACK/Nuvoton/NuMicro_M2351_BSP/1.0.0/Device/M2351/StdDriver/src/crypto.c:223:56
	muls	r3, r1, r3
	.loc	3 223 33                @ C:/Keil_v5/ARM/PACK/Nuvoton/NuMicro_M2351_BSP/1.0.0/Device/M2351/StdDriver/src/crypto.c:223:33
	adds	r0, r0, r3
	movw	r1, #328
	.loc	3 223 42                @ C:/Keil_v5/ARM/PACK/Nuvoton/NuMicro_M2351_BSP/1.0.0/Device/M2351/StdDriver/src/crypto.c:223:42
	adds	r0, r0, r1
	.loc	3 223 14                @ C:/Keil_v5/ARM/PACK/Nuvoton/NuMicro_M2351_BSP/1.0.0/Device/M2351/StdDriver/src/crypto.c:223:14
	str	r0, [sp, #24]
	.loc	3 224 5 is_stmt 1       @ C:/Keil_v5/ARM/PACK/Nuvoton/NuMicro_M2351_BSP/1.0.0/Device/M2351/StdDriver/src/crypto.c:224:5
	ldr	r0, [sp, #64]
	ldr	r1, [sp, #24]
	str	r0, [r1]
	.loc	3 225 1                 @ C:/Keil_v5/ARM/PACK/Nuvoton/NuMicro_M2351_BSP/1.0.0/Device/M2351/StdDriver/src/crypto.c:225:1
	str	r5, [sp, #12]           @ 4-byte Spill
	str	r6, [sp, #8]            @ 4-byte Spill
	str	r7, [sp, #4]            @ 4-byte Spill
	str	r4, [sp]                @ 4-byte Spill
	add	sp, #44
	pop	{r4, r5, r6, r7, pc}
.Ltmp36:
.Lfunc_end7:
	.size	AES_SetDMATransfer, .Lfunc_end7-AES_SetDMATransfer
	.cfi_endproc
	.cantunwind
	.fnend
                                        @ -- End function
	.section	.text.TDES_Open,"ax",%progbits
	.hidden	TDES_Open               @ -- Begin function TDES_Open
	.globl	TDES_Open
	.p2align	2
	.type	TDES_Open,%function
	.code	16                      @ @TDES_Open
	.thumb_func
TDES_Open:
.Lfunc_begin8:
	.loc	3 252 0                 @ C:/Keil_v5/ARM/PACK/Nuvoton/NuMicro_M2351_BSP/1.0.0/Device/M2351/StdDriver/src/crypto.c:252:0
	.fnstart
	.cfi_startproc
@ %bb.0:
	.save	{r4, r5, r6, r7, lr}
	push	{r4, r5, r6, r7, lr}
	.cfi_def_cfa_offset 20
	.cfi_offset lr, -4
	.cfi_offset r7, -8
	.cfi_offset r6, -12
	.cfi_offset r5, -16
	.cfi_offset r4, -20
	.pad	#48
	sub	sp, #48
	.cfi_def_cfa_offset 68
	ldr	r4, [sp, #76]
	ldr	r5, [sp, #72]
	ldr	r6, [sp, #68]
	mov	r7, r3
	str	r0, [sp, #28]           @ 4-byte Spill
	mov	r0, r2
	str	r0, [sp, #24]           @ 4-byte Spill
	mov	r0, r1
	str	r0, [sp, #20]           @ 4-byte Spill
	ldr	r0, [sp, #28]           @ 4-byte Reload
	str	r0, [sp, #16]           @ 4-byte Spill
	ldr	r0, [sp, #28]           @ 4-byte Reload
	str	r0, [sp, #44]
	str	r1, [sp, #40]
	str	r2, [sp, #36]
	str	r3, [sp, #32]
.Ltmp37:
	.loc	3 253 31 prologue_end   @ C:/Keil_v5/ARM/PACK/Nuvoton/NuMicro_M2351_BSP/1.0.0/Device/M2351/StdDriver/src/crypto.c:253:31
	ldr	r1, [sp, #40]
	.loc	3 253 42 is_stmt 0      @ C:/Keil_v5/ARM/PACK/Nuvoton/NuMicro_M2351_BSP/1.0.0/Device/M2351/StdDriver/src/crypto.c:253:42
	lsls	r2, r1, #24
	.loc	3 254 31 is_stmt 1      @ C:/Keil_v5/ARM/PACK/Nuvoton/NuMicro_M2351_BSP/1.0.0/Device/M2351/StdDriver/src/crypto.c:254:31
	ldr	r3, [sp, #36]
	.loc	3 254 41 is_stmt 0      @ C:/Keil_v5/ARM/PACK/Nuvoton/NuMicro_M2351_BSP/1.0.0/Device/M2351/StdDriver/src/crypto.c:254:41
	lsls	r3, r3, #16
	.loc	3 253 72 is_stmt 1      @ C:/Keil_v5/ARM/PACK/Nuvoton/NuMicro_M2351_BSP/1.0.0/Device/M2351/StdDriver/src/crypto.c:253:72
	orrs	r2, r3
	.loc	3 255 30                @ C:/Keil_v5/ARM/PACK/Nuvoton/NuMicro_M2351_BSP/1.0.0/Device/M2351/StdDriver/src/crypto.c:255:30
	ldr	r3, [sp, #72]
	.loc	3 254 70                @ C:/Keil_v5/ARM/PACK/Nuvoton/NuMicro_M2351_BSP/1.0.0/Device/M2351/StdDriver/src/crypto.c:254:70
	orrs	r2, r3
	.loc	3 255 43                @ C:/Keil_v5/ARM/PACK/Nuvoton/NuMicro_M2351_BSP/1.0.0/Device/M2351/StdDriver/src/crypto.c:255:43
	ldr	r3, [sp, #76]
	.loc	3 255 55 is_stmt 0      @ C:/Keil_v5/ARM/PACK/Nuvoton/NuMicro_M2351_BSP/1.0.0/Device/M2351/StdDriver/src/crypto.c:255:55
	lsls	r3, r3, #21
	.loc	3 255 40                @ C:/Keil_v5/ARM/PACK/Nuvoton/NuMicro_M2351_BSP/1.0.0/Device/M2351/StdDriver/src/crypto.c:255:40
	orrs	r2, r3
	.loc	3 253 5 is_stmt 1       @ C:/Keil_v5/ARM/PACK/Nuvoton/NuMicro_M2351_BSP/1.0.0/Device/M2351/StdDriver/src/crypto.c:253:5
	lsls	r1, r1, #2
	ldr	r3, __arm_cp.8_0
	.loc	3 253 28 is_stmt 0      @ C:/Keil_v5/ARM/PACK/Nuvoton/NuMicro_M2351_BSP/1.0.0/Device/M2351/StdDriver/src/crypto.c:253:28
	str	r2, [r3, r1]
.Ltmp38:
	.loc	3 256 8 is_stmt 1       @ C:/Keil_v5/ARM/PACK/Nuvoton/NuMicro_M2351_BSP/1.0.0/Device/M2351/StdDriver/src/crypto.c:256:8
	ldr	r1, [sp, #32]
.Ltmp39:
	.loc	3 256 8 is_stmt 0       @ C:/Keil_v5/ARM/PACK/Nuvoton/NuMicro_M2351_BSP/1.0.0/Device/M2351/StdDriver/src/crypto.c:256:8
	cmp	r1, #0
	str	r5, [sp, #12]           @ 4-byte Spill
	str	r6, [sp, #8]            @ 4-byte Spill
	str	r7, [sp, #4]            @ 4-byte Spill
	str	r4, [sp]                @ 4-byte Spill
	beq	.LBB8_2
	b	.LBB8_1
.LBB8_1:
.Ltmp40:
	.loc	3 258 20 is_stmt 1      @ C:/Keil_v5/ARM/PACK/Nuvoton/NuMicro_M2351_BSP/1.0.0/Device/M2351/StdDriver/src/crypto.c:258:20
	ldr	r0, [sp, #40]
	.loc	3 258 9 is_stmt 0       @ C:/Keil_v5/ARM/PACK/Nuvoton/NuMicro_M2351_BSP/1.0.0/Device/M2351/StdDriver/src/crypto.c:258:9
	lsls	r0, r0, #2
	ldr	r1, __arm_cp.8_0
	.loc	3 258 32                @ C:/Keil_v5/ARM/PACK/Nuvoton/NuMicro_M2351_BSP/1.0.0/Device/M2351/StdDriver/src/crypto.c:258:32
	ldr	r2, [r1, r0]
	movs	r3, #4
	orrs	r2, r3
	str	r2, [r1, r0]
	.loc	3 259 5 is_stmt 1       @ C:/Keil_v5/ARM/PACK/Nuvoton/NuMicro_M2351_BSP/1.0.0/Device/M2351/StdDriver/src/crypto.c:259:5
	b	.LBB8_2
.Ltmp41:
.LBB8_2:
	.loc	3 260 8                 @ C:/Keil_v5/ARM/PACK/Nuvoton/NuMicro_M2351_BSP/1.0.0/Device/M2351/StdDriver/src/crypto.c:260:8
	ldr	r0, [sp, #68]
.Ltmp42:
	.loc	3 260 8 is_stmt 0       @ C:/Keil_v5/ARM/PACK/Nuvoton/NuMicro_M2351_BSP/1.0.0/Device/M2351/StdDriver/src/crypto.c:260:8
	cmp	r0, #0
	beq	.LBB8_4
	b	.LBB8_3
.LBB8_3:
.Ltmp43:
	.loc	3 262 20 is_stmt 1      @ C:/Keil_v5/ARM/PACK/Nuvoton/NuMicro_M2351_BSP/1.0.0/Device/M2351/StdDriver/src/crypto.c:262:20
	ldr	r0, [sp, #40]
	.loc	3 262 9 is_stmt 0       @ C:/Keil_v5/ARM/PACK/Nuvoton/NuMicro_M2351_BSP/1.0.0/Device/M2351/StdDriver/src/crypto.c:262:9
	lsls	r0, r0, #2
	ldr	r1, __arm_cp.8_0
	.loc	3 262 32                @ C:/Keil_v5/ARM/PACK/Nuvoton/NuMicro_M2351_BSP/1.0.0/Device/M2351/StdDriver/src/crypto.c:262:32
	ldr	r2, [r1, r0]
	movs	r3, #8
	orrs	r2, r3
	str	r2, [r1, r0]
	.loc	3 263 5 is_stmt 1       @ C:/Keil_v5/ARM/PACK/Nuvoton/NuMicro_M2351_BSP/1.0.0/Device/M2351/StdDriver/src/crypto.c:263:5
	b	.LBB8_4
.Ltmp44:
.LBB8_4:
	.loc	3 264 1                 @ C:/Keil_v5/ARM/PACK/Nuvoton/NuMicro_M2351_BSP/1.0.0/Device/M2351/StdDriver/src/crypto.c:264:1
	add	sp, #48
	pop	{r4, r5, r6, r7, pc}
.Ltmp45:
	.p2align	2
@ %bb.5:
	.loc	3 0 1 is_stmt 0         @ C:/Keil_v5/ARM/PACK/Nuvoton/NuMicro_M2351_BSP/1.0.0/Device/M2351/StdDriver/src/crypto.c:0:1
__arm_cp.8_0:
	.long	g_TDES_CTL
.Lcpi_end2:
	.size	__arm_cp.8_0, .Lcpi_end2-__arm_cp.8_0
.Lfunc_end8:
	.size	TDES_Open, .Lfunc_end8-TDES_Open
	.cfi_endproc
	.cantunwind
	.fnend
                                        @ -- End function
	.section	.text.TDES_Start,"ax",%progbits
	.hidden	TDES_Start              @ -- Begin function TDES_Start
	.globl	TDES_Start
	.p2align	2
	.type	TDES_Start,%function
	.code	16                      @ @TDES_Start
	.thumb_func
TDES_Start:
.Lfunc_begin9:
	.loc	3 276 0 is_stmt 1       @ C:/Keil_v5/ARM/PACK/Nuvoton/NuMicro_M2351_BSP/1.0.0/Device/M2351/StdDriver/src/crypto.c:276:0
	.fnstart
	.cfi_startproc
@ %bb.0:
	.save	{r4, r5, r6, lr}
	push	{r4, r5, r6, lr}
	.cfi_def_cfa_offset 16
	.cfi_offset lr, -4
	.cfi_offset r6, -8
	.cfi_offset r5, -12
	.cfi_offset r4, -16
	.pad	#24
	sub	sp, #24
	.cfi_def_cfa_offset 40
	mov	r3, r2
	mov	r4, r1
	mov	r5, r0
	str	r0, [sp, #20]
	str	r1, [sp, #16]
	str	r2, [sp, #12]
.Ltmp46:
	.loc	3 277 58 prologue_end   @ C:/Keil_v5/ARM/PACK/Nuvoton/NuMicro_M2351_BSP/1.0.0/Device/M2351/StdDriver/src/crypto.c:277:58
	ldr	r0, [sp, #12]
	.loc	3 277 69 is_stmt 0      @ C:/Keil_v5/ARM/PACK/Nuvoton/NuMicro_M2351_BSP/1.0.0/Device/M2351/StdDriver/src/crypto.c:277:69
	lsls	r0, r0, #5
	.loc	3 277 16                @ C:/Keil_v5/ARM/PACK/Nuvoton/NuMicro_M2351_BSP/1.0.0/Device/M2351/StdDriver/src/crypto.c:277:16
	ldr	r1, [sp, #16]
	.loc	3 277 5                 @ C:/Keil_v5/ARM/PACK/Nuvoton/NuMicro_M2351_BSP/1.0.0/Device/M2351/StdDriver/src/crypto.c:277:5
	lsls	r1, r1, #2
	ldr	r2, __arm_cp.9_0
	.loc	3 277 28                @ C:/Keil_v5/ARM/PACK/Nuvoton/NuMicro_M2351_BSP/1.0.0/Device/M2351/StdDriver/src/crypto.c:277:28
	ldr	r6, [r2, r1]
	orrs	r6, r0
	.loc	3 277 55                @ C:/Keil_v5/ARM/PACK/Nuvoton/NuMicro_M2351_BSP/1.0.0/Device/M2351/StdDriver/src/crypto.c:277:55
	movs	r0, #1
	.loc	3 277 28                @ C:/Keil_v5/ARM/PACK/Nuvoton/NuMicro_M2351_BSP/1.0.0/Device/M2351/StdDriver/src/crypto.c:277:28
	orrs	r6, r0
	str	r6, [r2, r1]
	.loc	3 278 33 is_stmt 1      @ C:/Keil_v5/ARM/PACK/Nuvoton/NuMicro_M2351_BSP/1.0.0/Device/M2351/StdDriver/src/crypto.c:278:33
	ldr	r0, [sp, #16]
	.loc	3 278 22 is_stmt 0      @ C:/Keil_v5/ARM/PACK/Nuvoton/NuMicro_M2351_BSP/1.0.0/Device/M2351/StdDriver/src/crypto.c:278:22
	lsls	r0, r0, #2
	ldr	r0, [r2, r0]
	.loc	3 278 5                 @ C:/Keil_v5/ARM/PACK/Nuvoton/NuMicro_M2351_BSP/1.0.0/Device/M2351/StdDriver/src/crypto.c:278:5
	ldr	r1, [sp, #20]
	.loc	3 278 11                @ C:/Keil_v5/ARM/PACK/Nuvoton/NuMicro_M2351_BSP/1.0.0/Device/M2351/StdDriver/src/crypto.c:278:11
	movw	r2, #512
	.loc	3 278 20                @ C:/Keil_v5/ARM/PACK/Nuvoton/NuMicro_M2351_BSP/1.0.0/Device/M2351/StdDriver/src/crypto.c:278:20
	str	r0, [r1, r2]
	.loc	3 279 1 is_stmt 1       @ C:/Keil_v5/ARM/PACK/Nuvoton/NuMicro_M2351_BSP/1.0.0/Device/M2351/StdDriver/src/crypto.c:279:1
	str	r3, [sp, #8]            @ 4-byte Spill
	str	r4, [sp, #4]            @ 4-byte Spill
	str	r5, [sp]                @ 4-byte Spill
	add	sp, #24
	pop	{r4, r5, r6, pc}
.Ltmp47:
	.p2align	2
@ %bb.1:
	.loc	3 0 1 is_stmt 0         @ C:/Keil_v5/ARM/PACK/Nuvoton/NuMicro_M2351_BSP/1.0.0/Device/M2351/StdDriver/src/crypto.c:0:1
__arm_cp.9_0:
	.long	g_TDES_CTL
.Lcpi_end3:
	.size	__arm_cp.9_0, .Lcpi_end3-__arm_cp.9_0
.Lfunc_end9:
	.size	TDES_Start, .Lfunc_end9-TDES_Start
	.cfi_endproc
	.cantunwind
	.fnend
                                        @ -- End function
	.section	.text.TDES_SetKey,"ax",%progbits
	.hidden	TDES_SetKey             @ -- Begin function TDES_SetKey
	.globl	TDES_SetKey
	.p2align	1
	.type	TDES_SetKey,%function
	.code	16                      @ @TDES_SetKey
	.thumb_func
TDES_SetKey:
.Lfunc_begin10:
	.loc	3 288 0 is_stmt 1       @ C:/Keil_v5/ARM/PACK/Nuvoton/NuMicro_M2351_BSP/1.0.0/Device/M2351/StdDriver/src/crypto.c:288:0
	.fnstart
	.cfi_startproc
@ %bb.0:
	.save	{r4, r5, r7, lr}
	push	{r4, r5, r7, lr}
	.cfi_def_cfa_offset 16
	.cfi_offset lr, -4
	.cfi_offset r7, -8
	.cfi_offset r5, -12
	.cfi_offset r4, -16
	.pad	#32
	sub	sp, #32
	.cfi_def_cfa_offset 48
	mov	r3, r2
	mov	r4, r1
	mov	r5, r0
	str	r0, [sp, #28]
	str	r1, [sp, #24]
	str	r2, [sp, #20]
.Ltmp48:
	.loc	3 291 27 prologue_end   @ C:/Keil_v5/ARM/PACK/Nuvoton/NuMicro_M2351_BSP/1.0.0/Device/M2351/StdDriver/src/crypto.c:291:27
	ldr	r0, [sp, #28]
	.loc	3 291 57 is_stmt 0      @ C:/Keil_v5/ARM/PACK/Nuvoton/NuMicro_M2351_BSP/1.0.0/Device/M2351/StdDriver/src/crypto.c:291:57
	ldr	r1, [sp, #24]
	.loc	3 291 55                @ C:/Keil_v5/ARM/PACK/Nuvoton/NuMicro_M2351_BSP/1.0.0/Device/M2351/StdDriver/src/crypto.c:291:55
	lsls	r1, r1, #6
	.loc	3 291 33                @ C:/Keil_v5/ARM/PACK/Nuvoton/NuMicro_M2351_BSP/1.0.0/Device/M2351/StdDriver/src/crypto.c:291:33
	adds	r0, r0, r1
	movw	r1, #520
	.loc	3 291 45                @ C:/Keil_v5/ARM/PACK/Nuvoton/NuMicro_M2351_BSP/1.0.0/Device/M2351/StdDriver/src/crypto.c:291:45
	adds	r0, r0, r1
	.loc	3 291 14                @ C:/Keil_v5/ARM/PACK/Nuvoton/NuMicro_M2351_BSP/1.0.0/Device/M2351/StdDriver/src/crypto.c:291:14
	str	r0, [sp, #12]
	movs	r0, #0
.Ltmp49:
	.loc	3 293 11 is_stmt 1      @ C:/Keil_v5/ARM/PACK/Nuvoton/NuMicro_M2351_BSP/1.0.0/Device/M2351/StdDriver/src/crypto.c:293:11
	str	r0, [sp, #16]
	.loc	3 293 9 is_stmt 0       @ C:/Keil_v5/ARM/PACK/Nuvoton/NuMicro_M2351_BSP/1.0.0/Device/M2351/StdDriver/src/crypto.c:293:9
	str	r3, [sp, #8]            @ 4-byte Spill
	str	r4, [sp, #4]            @ 4-byte Spill
	str	r5, [sp]                @ 4-byte Spill
	b	.LBB10_1
.LBB10_1:                               @ =>This Inner Loop Header: Depth=1
.Ltmp50:
	.loc	3 293 17                @ C:/Keil_v5/ARM/PACK/Nuvoton/NuMicro_M2351_BSP/1.0.0/Device/M2351/StdDriver/src/crypto.c:293:17
	ldr	r0, [sp, #16]
.Ltmp51:
	.loc	3 293 5                 @ C:/Keil_v5/ARM/PACK/Nuvoton/NuMicro_M2351_BSP/1.0.0/Device/M2351/StdDriver/src/crypto.c:293:5
	cmp	r0, #2
	bhi	.LBB10_4
	b	.LBB10_2
.LBB10_2:                               @   in Loop: Header=BB10_1 Depth=1
.Ltmp52:
	.loc	3 295 9 is_stmt 1       @ C:/Keil_v5/ARM/PACK/Nuvoton/NuMicro_M2351_BSP/1.0.0/Device/M2351/StdDriver/src/crypto.c:295:9
	ldr	r0, [sp, #20]
	ldr	r1, [sp, #16]
	lsls	r1, r1, #3
	ldr	r0, [r0, r1]
	ldr	r1, [sp, #12]
	str	r0, [r1]
	.loc	3 296 18                @ C:/Keil_v5/ARM/PACK/Nuvoton/NuMicro_M2351_BSP/1.0.0/Device/M2351/StdDriver/src/crypto.c:296:18
	ldr	r0, [sp, #12]
	adds	r0, r0, #4
	str	r0, [sp, #12]
	.loc	3 297 9                 @ C:/Keil_v5/ARM/PACK/Nuvoton/NuMicro_M2351_BSP/1.0.0/Device/M2351/StdDriver/src/crypto.c:297:9
	ldr	r0, [sp, #20]
	ldr	r1, [sp, #16]
	lsls	r1, r1, #3
	adds	r0, r0, r1
	ldr	r0, [r0, #4]
	ldr	r1, [sp, #12]
	str	r0, [r1]
	.loc	3 298 18                @ C:/Keil_v5/ARM/PACK/Nuvoton/NuMicro_M2351_BSP/1.0.0/Device/M2351/StdDriver/src/crypto.c:298:18
	ldr	r0, [sp, #12]
	adds	r0, r0, #4
	str	r0, [sp, #12]
	.loc	3 299 5                 @ C:/Keil_v5/ARM/PACK/Nuvoton/NuMicro_M2351_BSP/1.0.0/Device/M2351/StdDriver/src/crypto.c:299:5
	b	.LBB10_3
.Ltmp53:
.LBB10_3:                               @   in Loop: Header=BB10_1 Depth=1
	.loc	3 293 26                @ C:/Keil_v5/ARM/PACK/Nuvoton/NuMicro_M2351_BSP/1.0.0/Device/M2351/StdDriver/src/crypto.c:293:26
	ldr	r0, [sp, #16]
	adds	r0, r0, #1
	str	r0, [sp, #16]
	.loc	3 293 5 is_stmt 0       @ C:/Keil_v5/ARM/PACK/Nuvoton/NuMicro_M2351_BSP/1.0.0/Device/M2351/StdDriver/src/crypto.c:293:5
	b	.LBB10_1
.Ltmp54:
.LBB10_4:
	.loc	3 300 1 is_stmt 1       @ C:/Keil_v5/ARM/PACK/Nuvoton/NuMicro_M2351_BSP/1.0.0/Device/M2351/StdDriver/src/crypto.c:300:1
	add	sp, #32
	pop	{r4, r5, r7, pc}
.Ltmp55:
.Lfunc_end10:
	.size	TDES_SetKey, .Lfunc_end10-TDES_SetKey
	.cfi_endproc
	.cantunwind
	.fnend
                                        @ -- End function
	.section	.text.TDES_SetInitVect,"ax",%progbits
	.hidden	TDES_SetInitVect        @ -- Begin function TDES_SetInitVect
	.globl	TDES_SetInitVect
	.p2align	1
	.type	TDES_SetInitVect,%function
	.code	16                      @ @TDES_SetInitVect
	.thumb_func
TDES_SetInitVect:
.Lfunc_begin11:
	.loc	3 310 0                 @ C:/Keil_v5/ARM/PACK/Nuvoton/NuMicro_M2351_BSP/1.0.0/Device/M2351/StdDriver/src/crypto.c:310:0
	.fnstart
	.cfi_startproc
@ %bb.0:
	.save	{r4, r5, r6, r7, lr}
	push	{r4, r5, r6, r7, lr}
	.cfi_def_cfa_offset 20
	.cfi_offset lr, -4
	.cfi_offset r7, -8
	.cfi_offset r6, -12
	.cfi_offset r5, -16
	.cfi_offset r4, -20
	.pad	#36
	sub	sp, #36
	.cfi_def_cfa_offset 56
	mov	r4, r3
	mov	r5, r2
	mov	r6, r1
	mov	r7, r0
	str	r0, [sp, #32]
	str	r1, [sp, #28]
	str	r2, [sp, #24]
	str	r3, [sp, #20]
.Ltmp56:
	.loc	3 313 27 prologue_end   @ C:/Keil_v5/ARM/PACK/Nuvoton/NuMicro_M2351_BSP/1.0.0/Device/M2351/StdDriver/src/crypto.c:313:27
	ldr	r0, [sp, #32]
	.loc	3 313 46 is_stmt 0      @ C:/Keil_v5/ARM/PACK/Nuvoton/NuMicro_M2351_BSP/1.0.0/Device/M2351/StdDriver/src/crypto.c:313:46
	ldr	r1, [sp, #28]
	.loc	3 313 57                @ C:/Keil_v5/ARM/PACK/Nuvoton/NuMicro_M2351_BSP/1.0.0/Device/M2351/StdDriver/src/crypto.c:313:57
	lsls	r1, r1, #6
	.loc	3 313 33                @ C:/Keil_v5/ARM/PACK/Nuvoton/NuMicro_M2351_BSP/1.0.0/Device/M2351/StdDriver/src/crypto.c:313:33
	adds	r0, r0, r1
	movw	r1, #544
	.loc	3 313 43                @ C:/Keil_v5/ARM/PACK/Nuvoton/NuMicro_M2351_BSP/1.0.0/Device/M2351/StdDriver/src/crypto.c:313:43
	adds	r0, r0, r1
	.loc	3 313 14                @ C:/Keil_v5/ARM/PACK/Nuvoton/NuMicro_M2351_BSP/1.0.0/Device/M2351/StdDriver/src/crypto.c:313:14
	str	r0, [sp, #16]
	.loc	3 314 5 is_stmt 1       @ C:/Keil_v5/ARM/PACK/Nuvoton/NuMicro_M2351_BSP/1.0.0/Device/M2351/StdDriver/src/crypto.c:314:5
	ldr	r0, [sp, #24]
	ldr	r1, [sp, #16]
	str	r0, [r1]
	.loc	3 316 27                @ C:/Keil_v5/ARM/PACK/Nuvoton/NuMicro_M2351_BSP/1.0.0/Device/M2351/StdDriver/src/crypto.c:316:27
	ldr	r0, [sp, #32]
	.loc	3 316 46 is_stmt 0      @ C:/Keil_v5/ARM/PACK/Nuvoton/NuMicro_M2351_BSP/1.0.0/Device/M2351/StdDriver/src/crypto.c:316:46
	ldr	r1, [sp, #28]
	.loc	3 316 57                @ C:/Keil_v5/ARM/PACK/Nuvoton/NuMicro_M2351_BSP/1.0.0/Device/M2351/StdDriver/src/crypto.c:316:57
	lsls	r1, r1, #6
	.loc	3 316 33                @ C:/Keil_v5/ARM/PACK/Nuvoton/NuMicro_M2351_BSP/1.0.0/Device/M2351/StdDriver/src/crypto.c:316:33
	adds	r0, r0, r1
	movw	r1, #548
	.loc	3 316 43                @ C:/Keil_v5/ARM/PACK/Nuvoton/NuMicro_M2351_BSP/1.0.0/Device/M2351/StdDriver/src/crypto.c:316:43
	adds	r0, r0, r1
	.loc	3 316 14                @ C:/Keil_v5/ARM/PACK/Nuvoton/NuMicro_M2351_BSP/1.0.0/Device/M2351/StdDriver/src/crypto.c:316:14
	str	r0, [sp, #16]
	.loc	3 317 5 is_stmt 1       @ C:/Keil_v5/ARM/PACK/Nuvoton/NuMicro_M2351_BSP/1.0.0/Device/M2351/StdDriver/src/crypto.c:317:5
	ldr	r0, [sp, #20]
	ldr	r1, [sp, #16]
	str	r0, [r1]
	.loc	3 318 1                 @ C:/Keil_v5/ARM/PACK/Nuvoton/NuMicro_M2351_BSP/1.0.0/Device/M2351/StdDriver/src/crypto.c:318:1
	str	r4, [sp, #12]           @ 4-byte Spill
	str	r5, [sp, #8]            @ 4-byte Spill
	str	r6, [sp, #4]            @ 4-byte Spill
	str	r7, [sp]                @ 4-byte Spill
	add	sp, #36
	pop	{r4, r5, r6, r7, pc}
.Ltmp57:
.Lfunc_end11:
	.size	TDES_SetInitVect, .Lfunc_end11-TDES_SetInitVect
	.cfi_endproc
	.cantunwind
	.fnend
                                        @ -- End function
	.section	.text.TDES_SetDMATransfer,"ax",%progbits
	.hidden	TDES_SetDMATransfer     @ -- Begin function TDES_SetDMATransfer
	.globl	TDES_SetDMATransfer
	.p2align	1
	.type	TDES_SetDMATransfer,%function
	.code	16                      @ @TDES_SetDMATransfer
	.thumb_func
TDES_SetDMATransfer:
.Lfunc_begin12:
	.loc	3 330 0                 @ C:/Keil_v5/ARM/PACK/Nuvoton/NuMicro_M2351_BSP/1.0.0/Device/M2351/StdDriver/src/crypto.c:330:0
	.fnstart
	.cfi_startproc
@ %bb.0:
	.save	{r4, r5, r6, r7, lr}
	push	{r4, r5, r6, r7, lr}
	.cfi_def_cfa_offset 20
	.cfi_offset lr, -4
	.cfi_offset r7, -8
	.cfi_offset r6, -12
	.cfi_offset r5, -16
	.cfi_offset r4, -20
	.pad	#44
	sub	sp, #44
	.cfi_def_cfa_offset 64
	ldr	r4, [sp, #64]
	mov	r5, r3
	mov	r6, r2
	mov	r7, r1
	str	r0, [sp, #20]           @ 4-byte Spill
	str	r0, [sp, #16]           @ 4-byte Spill
	ldr	r0, [sp, #20]           @ 4-byte Reload
	str	r0, [sp, #40]
	str	r1, [sp, #36]
	str	r2, [sp, #32]
	str	r3, [sp, #28]
.Ltmp58:
	.loc	3 333 27 prologue_end   @ C:/Keil_v5/ARM/PACK/Nuvoton/NuMicro_M2351_BSP/1.0.0/Device/M2351/StdDriver/src/crypto.c:333:27
	ldr	r1, [sp, #40]
	.loc	3 333 48 is_stmt 0      @ C:/Keil_v5/ARM/PACK/Nuvoton/NuMicro_M2351_BSP/1.0.0/Device/M2351/StdDriver/src/crypto.c:333:48
	ldr	r2, [sp, #36]
	.loc	3 333 59                @ C:/Keil_v5/ARM/PACK/Nuvoton/NuMicro_M2351_BSP/1.0.0/Device/M2351/StdDriver/src/crypto.c:333:59
	lsls	r2, r2, #6
	.loc	3 333 33                @ C:/Keil_v5/ARM/PACK/Nuvoton/NuMicro_M2351_BSP/1.0.0/Device/M2351/StdDriver/src/crypto.c:333:33
	adds	r1, r1, r2
	movw	r2, #552
	.loc	3 333 45                @ C:/Keil_v5/ARM/PACK/Nuvoton/NuMicro_M2351_BSP/1.0.0/Device/M2351/StdDriver/src/crypto.c:333:45
	adds	r1, r1, r2
	.loc	3 333 14                @ C:/Keil_v5/ARM/PACK/Nuvoton/NuMicro_M2351_BSP/1.0.0/Device/M2351/StdDriver/src/crypto.c:333:14
	str	r1, [sp, #24]
	.loc	3 334 5 is_stmt 1       @ C:/Keil_v5/ARM/PACK/Nuvoton/NuMicro_M2351_BSP/1.0.0/Device/M2351/StdDriver/src/crypto.c:334:5
	ldr	r1, [sp, #32]
	ldr	r2, [sp, #24]
	str	r1, [r2]
	.loc	3 336 27                @ C:/Keil_v5/ARM/PACK/Nuvoton/NuMicro_M2351_BSP/1.0.0/Device/M2351/StdDriver/src/crypto.c:336:27
	ldr	r1, [sp, #40]
	.loc	3 336 48 is_stmt 0      @ C:/Keil_v5/ARM/PACK/Nuvoton/NuMicro_M2351_BSP/1.0.0/Device/M2351/StdDriver/src/crypto.c:336:48
	ldr	r2, [sp, #36]
	.loc	3 336 59                @ C:/Keil_v5/ARM/PACK/Nuvoton/NuMicro_M2351_BSP/1.0.0/Device/M2351/StdDriver/src/crypto.c:336:59
	lsls	r2, r2, #6
	.loc	3 336 33                @ C:/Keil_v5/ARM/PACK/Nuvoton/NuMicro_M2351_BSP/1.0.0/Device/M2351/StdDriver/src/crypto.c:336:33
	adds	r1, r1, r2
	movw	r2, #556
	.loc	3 336 45                @ C:/Keil_v5/ARM/PACK/Nuvoton/NuMicro_M2351_BSP/1.0.0/Device/M2351/StdDriver/src/crypto.c:336:45
	adds	r1, r1, r2
	.loc	3 336 14                @ C:/Keil_v5/ARM/PACK/Nuvoton/NuMicro_M2351_BSP/1.0.0/Device/M2351/StdDriver/src/crypto.c:336:14
	str	r1, [sp, #24]
	.loc	3 337 5 is_stmt 1       @ C:/Keil_v5/ARM/PACK/Nuvoton/NuMicro_M2351_BSP/1.0.0/Device/M2351/StdDriver/src/crypto.c:337:5
	ldr	r1, [sp, #28]
	ldr	r2, [sp, #24]
	str	r1, [r2]
	.loc	3 339 27                @ C:/Keil_v5/ARM/PACK/Nuvoton/NuMicro_M2351_BSP/1.0.0/Device/M2351/StdDriver/src/crypto.c:339:27
	ldr	r1, [sp, #40]
	.loc	3 339 46 is_stmt 0      @ C:/Keil_v5/ARM/PACK/Nuvoton/NuMicro_M2351_BSP/1.0.0/Device/M2351/StdDriver/src/crypto.c:339:46
	ldr	r2, [sp, #36]
	.loc	3 339 57                @ C:/Keil_v5/ARM/PACK/Nuvoton/NuMicro_M2351_BSP/1.0.0/Device/M2351/StdDriver/src/crypto.c:339:57
	lsls	r2, r2, #6
	.loc	3 339 33                @ C:/Keil_v5/ARM/PACK/Nuvoton/NuMicro_M2351_BSP/1.0.0/Device/M2351/StdDriver/src/crypto.c:339:33
	adds	r1, r1, r2
	movw	r2, #560
	.loc	3 339 43                @ C:/Keil_v5/ARM/PACK/Nuvoton/NuMicro_M2351_BSP/1.0.0/Device/M2351/StdDriver/src/crypto.c:339:43
	adds	r1, r1, r2
	.loc	3 339 14                @ C:/Keil_v5/ARM/PACK/Nuvoton/NuMicro_M2351_BSP/1.0.0/Device/M2351/StdDriver/src/crypto.c:339:14
	str	r1, [sp, #24]
	.loc	3 340 5 is_stmt 1       @ C:/Keil_v5/ARM/PACK/Nuvoton/NuMicro_M2351_BSP/1.0.0/Device/M2351/StdDriver/src/crypto.c:340:5
	ldr	r1, [sp, #64]
	ldr	r2, [sp, #24]
	str	r1, [r2]
	.loc	3 341 1                 @ C:/Keil_v5/ARM/PACK/Nuvoton/NuMicro_M2351_BSP/1.0.0/Device/M2351/StdDriver/src/crypto.c:341:1
	str	r5, [sp, #12]           @ 4-byte Spill
	str	r6, [sp, #8]            @ 4-byte Spill
	str	r7, [sp, #4]            @ 4-byte Spill
	str	r4, [sp]                @ 4-byte Spill
	add	sp, #44
	pop	{r4, r5, r6, r7, pc}
.Ltmp59:
.Lfunc_end12:
	.size	TDES_SetDMATransfer, .Lfunc_end12-TDES_SetDMATransfer
	.cfi_endproc
	.cantunwind
	.fnend
                                        @ -- End function
	.section	.text.SHA_Open,"ax",%progbits
	.hidden	SHA_Open                @ -- Begin function SHA_Open
	.globl	SHA_Open
	.p2align	1
	.type	SHA_Open,%function
	.code	16                      @ @SHA_Open
	.thumb_func
SHA_Open:
.Lfunc_begin13:
	.loc	3 358 0                 @ C:/Keil_v5/ARM/PACK/Nuvoton/NuMicro_M2351_BSP/1.0.0/Device/M2351/StdDriver/src/crypto.c:358:0
	.fnstart
	.cfi_startproc
@ %bb.0:
	.save	{r4, r5, r6, r7, lr}
	push	{r4, r5, r6, r7, lr}
	.cfi_def_cfa_offset 20
	.cfi_offset lr, -4
	.cfi_offset r7, -8
	.cfi_offset r6, -12
	.cfi_offset r5, -16
	.cfi_offset r4, -20
	.pad	#32
	sub	sp, #32
	.cfi_def_cfa_offset 52
	mov	r4, r3
	mov	r5, r2
	mov	r6, r1
	mov	r7, r0
	str	r0, [sp, #28]
	str	r1, [sp, #24]
	str	r2, [sp, #20]
	str	r3, [sp, #16]
.Ltmp60:
	.loc	3 359 23 prologue_end   @ C:/Keil_v5/ARM/PACK/Nuvoton/NuMicro_M2351_BSP/1.0.0/Device/M2351/StdDriver/src/crypto.c:359:23
	ldr	r0, [sp, #24]
	.loc	3 359 33 is_stmt 0      @ C:/Keil_v5/ARM/PACK/Nuvoton/NuMicro_M2351_BSP/1.0.0/Device/M2351/StdDriver/src/crypto.c:359:33
	lsls	r0, r0, #8
	.loc	3 360 23 is_stmt 1      @ C:/Keil_v5/ARM/PACK/Nuvoton/NuMicro_M2351_BSP/1.0.0/Device/M2351/StdDriver/src/crypto.c:360:23
	ldr	r1, [sp, #20]
	.loc	3 360 35 is_stmt 0      @ C:/Keil_v5/ARM/PACK/Nuvoton/NuMicro_M2351_BSP/1.0.0/Device/M2351/StdDriver/src/crypto.c:360:35
	lsls	r1, r1, #22
	.loc	3 359 62 is_stmt 1      @ C:/Keil_v5/ARM/PACK/Nuvoton/NuMicro_M2351_BSP/1.0.0/Device/M2351/StdDriver/src/crypto.c:359:62
	orrs	r0, r1
	.loc	3 359 5 is_stmt 0       @ C:/Keil_v5/ARM/PACK/Nuvoton/NuMicro_M2351_BSP/1.0.0/Device/M2351/StdDriver/src/crypto.c:359:5
	ldr	r1, [sp, #28]
	.loc	3 359 11                @ C:/Keil_v5/ARM/PACK/Nuvoton/NuMicro_M2351_BSP/1.0.0/Device/M2351/StdDriver/src/crypto.c:359:11
	movw	r2, #768
	.loc	3 359 20                @ C:/Keil_v5/ARM/PACK/Nuvoton/NuMicro_M2351_BSP/1.0.0/Device/M2351/StdDriver/src/crypto.c:359:20
	str	r0, [r1, r2]
.Ltmp61:
	.loc	3 362 8 is_stmt 1       @ C:/Keil_v5/ARM/PACK/Nuvoton/NuMicro_M2351_BSP/1.0.0/Device/M2351/StdDriver/src/crypto.c:362:8
	ldr	r0, [sp, #16]
.Ltmp62:
	.loc	3 362 8 is_stmt 0       @ C:/Keil_v5/ARM/PACK/Nuvoton/NuMicro_M2351_BSP/1.0.0/Device/M2351/StdDriver/src/crypto.c:362:8
	cmp	r0, #0
	str	r4, [sp, #12]           @ 4-byte Spill
	str	r5, [sp, #8]            @ 4-byte Spill
	str	r6, [sp, #4]            @ 4-byte Spill
	str	r7, [sp]                @ 4-byte Spill
	beq	.LBB13_2
	b	.LBB13_1
.LBB13_1:
.Ltmp63:
	.loc	3 364 29 is_stmt 1      @ C:/Keil_v5/ARM/PACK/Nuvoton/NuMicro_M2351_BSP/1.0.0/Device/M2351/StdDriver/src/crypto.c:364:29
	ldr	r0, [sp, #16]
	.loc	3 364 9 is_stmt 0       @ C:/Keil_v5/ARM/PACK/Nuvoton/NuMicro_M2351_BSP/1.0.0/Device/M2351/StdDriver/src/crypto.c:364:9
	ldr	r1, [sp, #28]
	.loc	3 364 15                @ C:/Keil_v5/ARM/PACK/Nuvoton/NuMicro_M2351_BSP/1.0.0/Device/M2351/StdDriver/src/crypto.c:364:15
	movw	r2, #840
	.loc	3 364 27                @ C:/Keil_v5/ARM/PACK/Nuvoton/NuMicro_M2351_BSP/1.0.0/Device/M2351/StdDriver/src/crypto.c:364:27
	str	r0, [r1, r2]
	.loc	3 365 5 is_stmt 1       @ C:/Keil_v5/ARM/PACK/Nuvoton/NuMicro_M2351_BSP/1.0.0/Device/M2351/StdDriver/src/crypto.c:365:5
	b	.LBB13_2
.Ltmp64:
.LBB13_2:
	.loc	3 366 1                 @ C:/Keil_v5/ARM/PACK/Nuvoton/NuMicro_M2351_BSP/1.0.0/Device/M2351/StdDriver/src/crypto.c:366:1
	add	sp, #32
	pop	{r4, r5, r6, r7, pc}
.Ltmp65:
.Lfunc_end13:
	.size	SHA_Open, .Lfunc_end13-SHA_Open
	.cfi_endproc
	.cantunwind
	.fnend
                                        @ -- End function
	.section	.text.SHA_Start,"ax",%progbits
	.hidden	SHA_Start               @ -- Begin function SHA_Start
	.globl	SHA_Start
	.p2align	1
	.type	SHA_Start,%function
	.code	16                      @ @SHA_Start
	.thumb_func
SHA_Start:
.Lfunc_begin14:
	.loc	3 377 0                 @ C:/Keil_v5/ARM/PACK/Nuvoton/NuMicro_M2351_BSP/1.0.0/Device/M2351/StdDriver/src/crypto.c:377:0
	.fnstart
	.cfi_startproc
@ %bb.0:
	.save	{r4, r5, r7, lr}
	push	{r4, r5, r7, lr}
	.cfi_def_cfa_offset 16
	.cfi_offset lr, -4
	.cfi_offset r7, -8
	.cfi_offset r5, -12
	.cfi_offset r4, -16
	.pad	#16
	sub	sp, #16
	.cfi_def_cfa_offset 32
	mov	r2, r1
	mov	r3, r0
	str	r0, [sp, #12]
	str	r1, [sp, #8]
.Ltmp66:
	.loc	3 378 5 prologue_end    @ C:/Keil_v5/ARM/PACK/Nuvoton/NuMicro_M2351_BSP/1.0.0/Device/M2351/StdDriver/src/crypto.c:378:5
	ldr	r0, [sp, #12]
	movw	r1, #768
	.loc	3 378 20 is_stmt 0      @ C:/Keil_v5/ARM/PACK/Nuvoton/NuMicro_M2351_BSP/1.0.0/Device/M2351/StdDriver/src/crypto.c:378:20
	ldr	r4, [r0, r1]
	movs	r5, #224
	bics	r4, r5
	str	r4, [r0, r1]
	.loc	3 379 50 is_stmt 1      @ C:/Keil_v5/ARM/PACK/Nuvoton/NuMicro_M2351_BSP/1.0.0/Device/M2351/StdDriver/src/crypto.c:379:50
	ldr	r0, [sp, #8]
	.loc	3 379 61 is_stmt 0      @ C:/Keil_v5/ARM/PACK/Nuvoton/NuMicro_M2351_BSP/1.0.0/Device/M2351/StdDriver/src/crypto.c:379:61
	lsls	r0, r0, #5
	.loc	3 379 5                 @ C:/Keil_v5/ARM/PACK/Nuvoton/NuMicro_M2351_BSP/1.0.0/Device/M2351/StdDriver/src/crypto.c:379:5
	ldr	r4, [sp, #12]
	.loc	3 379 20                @ C:/Keil_v5/ARM/PACK/Nuvoton/NuMicro_M2351_BSP/1.0.0/Device/M2351/StdDriver/src/crypto.c:379:20
	ldr	r5, [r4, r1]
	orrs	r5, r0
	.loc	3 379 47                @ C:/Keil_v5/ARM/PACK/Nuvoton/NuMicro_M2351_BSP/1.0.0/Device/M2351/StdDriver/src/crypto.c:379:47
	movs	r0, #1
	.loc	3 379 20                @ C:/Keil_v5/ARM/PACK/Nuvoton/NuMicro_M2351_BSP/1.0.0/Device/M2351/StdDriver/src/crypto.c:379:20
	orrs	r5, r0
	str	r5, [r4, r1]
	.loc	3 380 1 is_stmt 1       @ C:/Keil_v5/ARM/PACK/Nuvoton/NuMicro_M2351_BSP/1.0.0/Device/M2351/StdDriver/src/crypto.c:380:1
	str	r2, [sp, #4]            @ 4-byte Spill
	str	r3, [sp]                @ 4-byte Spill
	add	sp, #16
	pop	{r4, r5, r7, pc}
.Ltmp67:
.Lfunc_end14:
	.size	SHA_Start, .Lfunc_end14-SHA_Start
	.cfi_endproc
	.cantunwind
	.fnend
                                        @ -- End function
	.section	.text.SHA_SetDMATransfer,"ax",%progbits
	.hidden	SHA_SetDMATransfer      @ -- Begin function SHA_SetDMATransfer
	.globl	SHA_SetDMATransfer
	.p2align	1
	.type	SHA_SetDMATransfer,%function
	.code	16                      @ @SHA_SetDMATransfer
	.thumb_func
SHA_SetDMATransfer:
.Lfunc_begin15:
	.loc	3 389 0                 @ C:/Keil_v5/ARM/PACK/Nuvoton/NuMicro_M2351_BSP/1.0.0/Device/M2351/StdDriver/src/crypto.c:389:0
	.fnstart
	.cfi_startproc
@ %bb.0:
	.save	{r4, r5, r7, lr}
	push	{r4, r5, r7, lr}
	.cfi_def_cfa_offset 16
	.cfi_offset lr, -4
	.cfi_offset r7, -8
	.cfi_offset r5, -12
	.cfi_offset r4, -16
	.pad	#24
	sub	sp, #24
	.cfi_def_cfa_offset 40
	mov	r3, r2
	mov	r4, r1
	mov	r5, r0
	str	r0, [sp, #20]
	str	r1, [sp, #16]
	str	r2, [sp, #12]
.Ltmp68:
	.loc	3 390 24 prologue_end   @ C:/Keil_v5/ARM/PACK/Nuvoton/NuMicro_M2351_BSP/1.0.0/Device/M2351/StdDriver/src/crypto.c:390:24
	ldr	r0, [sp, #16]
	.loc	3 390 5 is_stmt 0       @ C:/Keil_v5/ARM/PACK/Nuvoton/NuMicro_M2351_BSP/1.0.0/Device/M2351/StdDriver/src/crypto.c:390:5
	ldr	r1, [sp, #20]
	.loc	3 390 11                @ C:/Keil_v5/ARM/PACK/Nuvoton/NuMicro_M2351_BSP/1.0.0/Device/M2351/StdDriver/src/crypto.c:390:11
	movw	r2, #844
	.loc	3 390 22                @ C:/Keil_v5/ARM/PACK/Nuvoton/NuMicro_M2351_BSP/1.0.0/Device/M2351/StdDriver/src/crypto.c:390:22
	str	r0, [r1, r2]
	.loc	3 391 25 is_stmt 1      @ C:/Keil_v5/ARM/PACK/Nuvoton/NuMicro_M2351_BSP/1.0.0/Device/M2351/StdDriver/src/crypto.c:391:25
	ldr	r0, [sp, #12]
	.loc	3 391 5 is_stmt 0       @ C:/Keil_v5/ARM/PACK/Nuvoton/NuMicro_M2351_BSP/1.0.0/Device/M2351/StdDriver/src/crypto.c:391:5
	ldr	r1, [sp, #20]
	.loc	3 391 11                @ C:/Keil_v5/ARM/PACK/Nuvoton/NuMicro_M2351_BSP/1.0.0/Device/M2351/StdDriver/src/crypto.c:391:11
	movw	r2, #848
	.loc	3 391 23                @ C:/Keil_v5/ARM/PACK/Nuvoton/NuMicro_M2351_BSP/1.0.0/Device/M2351/StdDriver/src/crypto.c:391:23
	str	r0, [r1, r2]
	.loc	3 392 1 is_stmt 1       @ C:/Keil_v5/ARM/PACK/Nuvoton/NuMicro_M2351_BSP/1.0.0/Device/M2351/StdDriver/src/crypto.c:392:1
	str	r3, [sp, #8]            @ 4-byte Spill
	str	r4, [sp, #4]            @ 4-byte Spill
	str	r5, [sp]                @ 4-byte Spill
	add	sp, #24
	pop	{r4, r5, r7, pc}
.Ltmp69:
.Lfunc_end15:
	.size	SHA_SetDMATransfer, .Lfunc_end15-SHA_SetDMATransfer
	.cfi_endproc
	.cantunwind
	.fnend
                                        @ -- End function
	.section	.text.SHA_Read,"ax",%progbits
	.hidden	SHA_Read                @ -- Begin function SHA_Read
	.globl	SHA_Read
	.p2align	1
	.type	SHA_Read,%function
	.code	16                      @ @SHA_Read
	.thumb_func
SHA_Read:
.Lfunc_begin16:
	.loc	3 400 0                 @ C:/Keil_v5/ARM/PACK/Nuvoton/NuMicro_M2351_BSP/1.0.0/Device/M2351/StdDriver/src/crypto.c:400:0
	.fnstart
	.cfi_startproc
@ %bb.0:
	.pad	#28
	sub	sp, #28
	.cfi_def_cfa_offset 28
	mov	r2, r1
	mov	r3, r0
	str	r0, [sp, #24]
	str	r1, [sp, #20]
.Ltmp70:
	.loc	3 403 10 prologue_end   @ C:/Keil_v5/ARM/PACK/Nuvoton/NuMicro_M2351_BSP/1.0.0/Device/M2351/StdDriver/src/crypto.c:403:10
	ldr	r0, [sp, #24]
	.loc	3 403 16 is_stmt 0      @ C:/Keil_v5/ARM/PACK/Nuvoton/NuMicro_M2351_BSP/1.0.0/Device/M2351/StdDriver/src/crypto.c:403:16
	movw	r1, #768
	ldr	r0, [r0, r1]
	.loc	3 403 25                @ C:/Keil_v5/ARM/PACK/Nuvoton/NuMicro_M2351_BSP/1.0.0/Device/M2351/StdDriver/src/crypto.c:403:25
	movw	r1, #1792
	ands	r0, r1
	.loc	3 403 53                @ C:/Keil_v5/ARM/PACK/Nuvoton/NuMicro_M2351_BSP/1.0.0/Device/M2351/StdDriver/src/crypto.c:403:53
	lsrs	r0, r0, #8
	.loc	3 403 7                 @ C:/Keil_v5/ARM/PACK/Nuvoton/NuMicro_M2351_BSP/1.0.0/Device/M2351/StdDriver/src/crypto.c:403:7
	str	r0, [sp, #16]
.Ltmp71:
	.loc	3 405 8 is_stmt 1       @ C:/Keil_v5/ARM/PACK/Nuvoton/NuMicro_M2351_BSP/1.0.0/Device/M2351/StdDriver/src/crypto.c:405:8
	ldr	r0, [sp, #16]
.Ltmp72:
	.loc	3 405 8 is_stmt 0       @ C:/Keil_v5/ARM/PACK/Nuvoton/NuMicro_M2351_BSP/1.0.0/Device/M2351/StdDriver/src/crypto.c:405:8
	cmp	r0, #0
	str	r2, [sp, #4]            @ 4-byte Spill
	str	r3, [sp]                @ 4-byte Spill
	bne	.LBB16_2
	b	.LBB16_1
.LBB16_1:
.Ltmp73:
	.loc	3 407 14 is_stmt 1      @ C:/Keil_v5/ARM/PACK/Nuvoton/NuMicro_M2351_BSP/1.0.0/Device/M2351/StdDriver/src/crypto.c:407:14
	movs	r0, #5
	str	r0, [sp, #12]
	.loc	3 408 5                 @ C:/Keil_v5/ARM/PACK/Nuvoton/NuMicro_M2351_BSP/1.0.0/Device/M2351/StdDriver/src/crypto.c:408:5
	b	.LBB16_12
.Ltmp74:
.LBB16_2:
	.loc	3 409 13                @ C:/Keil_v5/ARM/PACK/Nuvoton/NuMicro_M2351_BSP/1.0.0/Device/M2351/StdDriver/src/crypto.c:409:13
	ldr	r0, [sp, #16]
.Ltmp75:
	.loc	3 409 13 is_stmt 0      @ C:/Keil_v5/ARM/PACK/Nuvoton/NuMicro_M2351_BSP/1.0.0/Device/M2351/StdDriver/src/crypto.c:409:13
	cmp	r0, #5
	bne	.LBB16_4
	b	.LBB16_3
.LBB16_3:
.Ltmp76:
	.loc	3 411 14 is_stmt 1      @ C:/Keil_v5/ARM/PACK/Nuvoton/NuMicro_M2351_BSP/1.0.0/Device/M2351/StdDriver/src/crypto.c:411:14
	movs	r0, #7
	str	r0, [sp, #12]
	.loc	3 412 5                 @ C:/Keil_v5/ARM/PACK/Nuvoton/NuMicro_M2351_BSP/1.0.0/Device/M2351/StdDriver/src/crypto.c:412:5
	b	.LBB16_11
.Ltmp77:
.LBB16_4:
	.loc	3 413 13                @ C:/Keil_v5/ARM/PACK/Nuvoton/NuMicro_M2351_BSP/1.0.0/Device/M2351/StdDriver/src/crypto.c:413:13
	ldr	r0, [sp, #16]
.Ltmp78:
	.loc	3 413 13 is_stmt 0      @ C:/Keil_v5/ARM/PACK/Nuvoton/NuMicro_M2351_BSP/1.0.0/Device/M2351/StdDriver/src/crypto.c:413:13
	cmp	r0, #4
	bne	.LBB16_6
	b	.LBB16_5
.LBB16_5:
.Ltmp79:
	.loc	3 415 14 is_stmt 1      @ C:/Keil_v5/ARM/PACK/Nuvoton/NuMicro_M2351_BSP/1.0.0/Device/M2351/StdDriver/src/crypto.c:415:14
	movs	r0, #8
	str	r0, [sp, #12]
	.loc	3 416 5                 @ C:/Keil_v5/ARM/PACK/Nuvoton/NuMicro_M2351_BSP/1.0.0/Device/M2351/StdDriver/src/crypto.c:416:5
	b	.LBB16_10
.Ltmp80:
.LBB16_6:
	.loc	3 417 13                @ C:/Keil_v5/ARM/PACK/Nuvoton/NuMicro_M2351_BSP/1.0.0/Device/M2351/StdDriver/src/crypto.c:417:13
	ldr	r0, [sp, #16]
.Ltmp81:
	.loc	3 417 13 is_stmt 0      @ C:/Keil_v5/ARM/PACK/Nuvoton/NuMicro_M2351_BSP/1.0.0/Device/M2351/StdDriver/src/crypto.c:417:13
	cmp	r0, #7
	bne	.LBB16_8
	b	.LBB16_7
.LBB16_7:
.Ltmp82:
	.loc	3 419 14 is_stmt 1      @ C:/Keil_v5/ARM/PACK/Nuvoton/NuMicro_M2351_BSP/1.0.0/Device/M2351/StdDriver/src/crypto.c:419:14
	movs	r0, #12
	str	r0, [sp, #12]
	.loc	3 420 5                 @ C:/Keil_v5/ARM/PACK/Nuvoton/NuMicro_M2351_BSP/1.0.0/Device/M2351/StdDriver/src/crypto.c:420:5
	b	.LBB16_9
.Ltmp83:
.LBB16_8:
	.loc	3 424 14                @ C:/Keil_v5/ARM/PACK/Nuvoton/NuMicro_M2351_BSP/1.0.0/Device/M2351/StdDriver/src/crypto.c:424:14
	movs	r0, #16
	str	r0, [sp, #12]
	b	.LBB16_9
.Ltmp84:
.LBB16_9:
	.loc	3 0 14 is_stmt 0        @ C:/Keil_v5/ARM/PACK/Nuvoton/NuMicro_M2351_BSP/1.0.0/Device/M2351/StdDriver/src/crypto.c:0:14
	b	.LBB16_10
.LBB16_10:
	b	.LBB16_11
.LBB16_11:
	b	.LBB16_12
.LBB16_12:
	.loc	3 427 30 is_stmt 1      @ C:/Keil_v5/ARM/PACK/Nuvoton/NuMicro_M2351_BSP/1.0.0/Device/M2351/StdDriver/src/crypto.c:427:30
	ldr	r0, [sp, #24]
	.loc	3 427 36 is_stmt 0      @ C:/Keil_v5/ARM/PACK/Nuvoton/NuMicro_M2351_BSP/1.0.0/Device/M2351/StdDriver/src/crypto.c:427:36
	movw	r1, #776
	adds	r0, r0, r1
	.loc	3 427 14                @ C:/Keil_v5/ARM/PACK/Nuvoton/NuMicro_M2351_BSP/1.0.0/Device/M2351/StdDriver/src/crypto.c:427:14
	str	r0, [sp, #8]
	movs	r0, #0
.Ltmp85:
	.loc	3 428 11 is_stmt 1      @ C:/Keil_v5/ARM/PACK/Nuvoton/NuMicro_M2351_BSP/1.0.0/Device/M2351/StdDriver/src/crypto.c:428:11
	str	r0, [sp, #16]
	.loc	3 428 9 is_stmt 0       @ C:/Keil_v5/ARM/PACK/Nuvoton/NuMicro_M2351_BSP/1.0.0/Device/M2351/StdDriver/src/crypto.c:428:9
	b	.LBB16_13
.LBB16_13:                              @ =>This Inner Loop Header: Depth=1
.Ltmp86:
	.loc	3 428 18                @ C:/Keil_v5/ARM/PACK/Nuvoton/NuMicro_M2351_BSP/1.0.0/Device/M2351/StdDriver/src/crypto.c:428:18
	ldr	r0, [sp, #16]
	.loc	3 428 22                @ C:/Keil_v5/ARM/PACK/Nuvoton/NuMicro_M2351_BSP/1.0.0/Device/M2351/StdDriver/src/crypto.c:428:22
	ldr	r1, [sp, #12]
.Ltmp87:
	.loc	3 428 5                 @ C:/Keil_v5/ARM/PACK/Nuvoton/NuMicro_M2351_BSP/1.0.0/Device/M2351/StdDriver/src/crypto.c:428:5
	cmp	r0, r1
	bhs	.LBB16_16
	b	.LBB16_14
.LBB16_14:                              @   in Loop: Header=BB16_13 Depth=1
.Ltmp88:
	.loc	3 430 24 is_stmt 1      @ C:/Keil_v5/ARM/PACK/Nuvoton/NuMicro_M2351_BSP/1.0.0/Device/M2351/StdDriver/src/crypto.c:430:24
	ldr	r0, [sp, #8]
	ldr	r0, [r0]
	.loc	3 430 9 is_stmt 0       @ C:/Keil_v5/ARM/PACK/Nuvoton/NuMicro_M2351_BSP/1.0.0/Device/M2351/StdDriver/src/crypto.c:430:9
	ldr	r1, [sp, #20]
	.loc	3 430 19                @ C:/Keil_v5/ARM/PACK/Nuvoton/NuMicro_M2351_BSP/1.0.0/Device/M2351/StdDriver/src/crypto.c:430:19
	ldr	r2, [sp, #16]
	.loc	3 430 9                 @ C:/Keil_v5/ARM/PACK/Nuvoton/NuMicro_M2351_BSP/1.0.0/Device/M2351/StdDriver/src/crypto.c:430:9
	lsls	r2, r2, #2
	.loc	3 430 22                @ C:/Keil_v5/ARM/PACK/Nuvoton/NuMicro_M2351_BSP/1.0.0/Device/M2351/StdDriver/src/crypto.c:430:22
	str	r0, [r1, r2]
	.loc	3 431 18 is_stmt 1      @ C:/Keil_v5/ARM/PACK/Nuvoton/NuMicro_M2351_BSP/1.0.0/Device/M2351/StdDriver/src/crypto.c:431:18
	ldr	r0, [sp, #8]
	adds	r0, r0, #4
	str	r0, [sp, #8]
	.loc	3 432 5                 @ C:/Keil_v5/ARM/PACK/Nuvoton/NuMicro_M2351_BSP/1.0.0/Device/M2351/StdDriver/src/crypto.c:432:5
	b	.LBB16_15
.Ltmp89:
.LBB16_15:                              @   in Loop: Header=BB16_13 Depth=1
	.loc	3 428 29                @ C:/Keil_v5/ARM/PACK/Nuvoton/NuMicro_M2351_BSP/1.0.0/Device/M2351/StdDriver/src/crypto.c:428:29
	ldr	r0, [sp, #16]
	adds	r0, r0, #1
	str	r0, [sp, #16]
	.loc	3 428 5 is_stmt 0       @ C:/Keil_v5/ARM/PACK/Nuvoton/NuMicro_M2351_BSP/1.0.0/Device/M2351/StdDriver/src/crypto.c:428:5
	b	.LBB16_13
.Ltmp90:
.LBB16_16:
	.loc	3 433 1 is_stmt 1       @ C:/Keil_v5/ARM/PACK/Nuvoton/NuMicro_M2351_BSP/1.0.0/Device/M2351/StdDriver/src/crypto.c:433:1
	add	sp, #28
	bx	lr
.Ltmp91:
.Lfunc_end16:
	.size	SHA_Read, .Lfunc_end16-SHA_Read
	.cfi_endproc
	.cantunwind
	.fnend
                                        @ -- End function
	.section	.text.ECC_DriverISR,"ax",%progbits
	.hidden	ECC_DriverISR           @ -- Begin function ECC_DriverISR
	.globl	ECC_DriverISR
	.p2align	2
	.type	ECC_DriverISR,%function
	.code	16                      @ @ECC_DriverISR
	.thumb_func
ECC_DriverISR:
.Lfunc_begin17:
	.loc	3 750 0                 @ C:/Keil_v5/ARM/PACK/Nuvoton/NuMicro_M2351_BSP/1.0.0/Device/M2351/StdDriver/src/crypto.c:750:0
	.fnstart
	.cfi_startproc
@ %bb.0:
	.pad	#8
	sub	sp, #8
	.cfi_def_cfa_offset 8
	mov	r1, r0
	str	r0, [sp, #4]
.Ltmp92:
	.loc	3 751 8 prologue_end    @ C:/Keil_v5/ARM/PACK/Nuvoton/NuMicro_M2351_BSP/1.0.0/Device/M2351/StdDriver/src/crypto.c:751:8
	ldr	r0, [sp, #4]
	.loc	3 751 14 is_stmt 0      @ C:/Keil_v5/ARM/PACK/Nuvoton/NuMicro_M2351_BSP/1.0.0/Device/M2351/StdDriver/src/crypto.c:751:14
	ldr	r0, [r0, #4]
	.loc	3 751 21                @ C:/Keil_v5/ARM/PACK/Nuvoton/NuMicro_M2351_BSP/1.0.0/Device/M2351/StdDriver/src/crypto.c:751:21
	movs	r2, #1
	lsls	r2, r2, #22
.Ltmp93:
	.loc	3 751 8                 @ C:/Keil_v5/ARM/PACK/Nuvoton/NuMicro_M2351_BSP/1.0.0/Device/M2351/StdDriver/src/crypto.c:751:8
	tst	r0, r2
	str	r1, [sp]                @ 4-byte Spill
	beq	.LBB17_2
	b	.LBB17_1
.LBB17_1:
.Ltmp94:
	.loc	3 753 20 is_stmt 1      @ C:/Keil_v5/ARM/PACK/Nuvoton/NuMicro_M2351_BSP/1.0.0/Device/M2351/StdDriver/src/crypto.c:753:20
	ldr	r0, __arm_cp.17_0
	movs	r1, #1
	str	r1, [r0]
	.loc	3 754 9                 @ C:/Keil_v5/ARM/PACK/Nuvoton/NuMicro_M2351_BSP/1.0.0/Device/M2351/StdDriver/src/crypto.c:754:9
	ldr	r0, [sp, #4]
	.loc	3 754 22 is_stmt 0      @ C:/Keil_v5/ARM/PACK/Nuvoton/NuMicro_M2351_BSP/1.0.0/Device/M2351/StdDriver/src/crypto.c:754:22
	lsls	r1, r1, #22
	str	r1, [r0, #4]
	.loc	3 756 5 is_stmt 1       @ C:/Keil_v5/ARM/PACK/Nuvoton/NuMicro_M2351_BSP/1.0.0/Device/M2351/StdDriver/src/crypto.c:756:5
	b	.LBB17_2
.Ltmp95:
.LBB17_2:
	.loc	3 758 8                 @ C:/Keil_v5/ARM/PACK/Nuvoton/NuMicro_M2351_BSP/1.0.0/Device/M2351/StdDriver/src/crypto.c:758:8
	ldr	r0, [sp, #4]
	.loc	3 758 14 is_stmt 0      @ C:/Keil_v5/ARM/PACK/Nuvoton/NuMicro_M2351_BSP/1.0.0/Device/M2351/StdDriver/src/crypto.c:758:14
	ldr	r0, [r0, #4]
	.loc	3 758 21                @ C:/Keil_v5/ARM/PACK/Nuvoton/NuMicro_M2351_BSP/1.0.0/Device/M2351/StdDriver/src/crypto.c:758:21
	movs	r1, #1
	lsls	r1, r1, #23
.Ltmp96:
	.loc	3 758 8                 @ C:/Keil_v5/ARM/PACK/Nuvoton/NuMicro_M2351_BSP/1.0.0/Device/M2351/StdDriver/src/crypto.c:758:8
	tst	r0, r1
	beq	.LBB17_4
	b	.LBB17_3
.LBB17_3:
.Ltmp97:
	.loc	3 760 23 is_stmt 1      @ C:/Keil_v5/ARM/PACK/Nuvoton/NuMicro_M2351_BSP/1.0.0/Device/M2351/StdDriver/src/crypto.c:760:23
	ldr	r0, __arm_cp.17_1
	movs	r1, #1
	str	r1, [r0]
	.loc	3 761 9                 @ C:/Keil_v5/ARM/PACK/Nuvoton/NuMicro_M2351_BSP/1.0.0/Device/M2351/StdDriver/src/crypto.c:761:9
	ldr	r0, [sp, #4]
	.loc	3 761 22 is_stmt 0      @ C:/Keil_v5/ARM/PACK/Nuvoton/NuMicro_M2351_BSP/1.0.0/Device/M2351/StdDriver/src/crypto.c:761:22
	lsls	r1, r1, #23
	str	r1, [r0, #4]
	.loc	3 763 5 is_stmt 1       @ C:/Keil_v5/ARM/PACK/Nuvoton/NuMicro_M2351_BSP/1.0.0/Device/M2351/StdDriver/src/crypto.c:763:5
	b	.LBB17_4
.Ltmp98:
.LBB17_4:
	.loc	3 764 1                 @ C:/Keil_v5/ARM/PACK/Nuvoton/NuMicro_M2351_BSP/1.0.0/Device/M2351/StdDriver/src/crypto.c:764:1
	add	sp, #8
	bx	lr
.Ltmp99:
	.p2align	2
@ %bb.5:
	.loc	3 0 1 is_stmt 0         @ C:/Keil_v5/ARM/PACK/Nuvoton/NuMicro_M2351_BSP/1.0.0/Device/M2351/StdDriver/src/crypto.c:0:1
__arm_cp.17_0:
	.long	g_ECC_done
.Lcpi_end4:
	.size	__arm_cp.17_0, .Lcpi_end4-__arm_cp.17_0
__arm_cp.17_1:
	.long	g_ECCERR_done
.Lcpi_end5:
	.size	__arm_cp.17_1, .Lcpi_end5-__arm_cp.17_1
.Lfunc_end17:
	.size	ECC_DriverISR, .Lfunc_end17-ECC_DriverISR
	.cfi_endproc
	.cantunwind
	.fnend
                                        @ -- End function
	.section	.text.ECC_IsPrivateKeyValid,"ax",%progbits
	.hidden	ECC_IsPrivateKeyValid   @ -- Begin function ECC_IsPrivateKeyValid
	.globl	ECC_IsPrivateKeyValid
	.p2align	2
	.type	ECC_IsPrivateKeyValid,%function
	.code	16                      @ @ECC_IsPrivateKeyValid
	.thumb_func
ECC_IsPrivateKeyValid:
.Lfunc_begin18:
	.loc	3 966 0 is_stmt 1       @ C:/Keil_v5/ARM/PACK/Nuvoton/NuMicro_M2351_BSP/1.0.0/Device/M2351/StdDriver/src/crypto.c:966:0
	.fnstart
	.cfi_startproc
@ %bb.0:
	.save	{r4, r5, r7, lr}
	push	{r4, r5, r7, lr}
	.cfi_def_cfa_offset 16
	.cfi_offset lr, -4
	.cfi_offset r7, -8
	.cfi_offset r5, -12
	.cfi_offset r4, -16
	.pad	#56
	sub	sp, #56
	.cfi_def_cfa_offset 72
	mov	r3, r2
	mov	r4, r1
	mov	r5, r0
	str	r0, [sp, #48]
	str	r1, [sp, #44]
	str	r2, [sp, #40]
.Ltmp100:
	.loc	3 970 24 prologue_end   @ C:/Keil_v5/ARM/PACK/Nuvoton/NuMicro_M2351_BSP/1.0.0/Device/M2351/StdDriver/src/crypto.c:970:24
	ldr	r0, [sp, #44]
	.loc	3 970 14 is_stmt 0      @ C:/Keil_v5/ARM/PACK/Nuvoton/NuMicro_M2351_BSP/1.0.0/Device/M2351/StdDriver/src/crypto.c:970:14
	str	r3, [sp, #32]           @ 4-byte Spill
	str	r4, [sp, #28]           @ 4-byte Spill
	str	r5, [sp, #24]           @ 4-byte Spill
	bl	get_curve
	.loc	3 970 12                @ C:/Keil_v5/ARM/PACK/Nuvoton/NuMicro_M2351_BSP/1.0.0/Device/M2351/StdDriver/src/crypto.c:970:12
	ldr	r1, __arm_cp.18_0
	str	r0, [r1]
.Ltmp101:
	.loc	3 971 8 is_stmt 1       @ C:/Keil_v5/ARM/PACK/Nuvoton/NuMicro_M2351_BSP/1.0.0/Device/M2351/StdDriver/src/crypto.c:971:8
	ldr	r0, [r1]
.Ltmp102:
	.loc	3 971 8 is_stmt 0       @ C:/Keil_v5/ARM/PACK/Nuvoton/NuMicro_M2351_BSP/1.0.0/Device/M2351/StdDriver/src/crypto.c:971:8
	cmp	r0, #0
	bne	.LBB18_2
	b	.LBB18_1
.LBB18_1:
.Ltmp103:
	.loc	3 973 9 is_stmt 1       @ C:/Keil_v5/ARM/PACK/Nuvoton/NuMicro_M2351_BSP/1.0.0/Device/M2351/StdDriver/src/crypto.c:973:9
	movs	r0, #0
	mvns	r0, r0
	str	r0, [sp, #52]
	b	.LBB18_15
.Ltmp104:
.LBB18_2:
	.loc	3 976 15                @ C:/Keil_v5/ARM/PACK/Nuvoton/NuMicro_M2351_BSP/1.0.0/Device/M2351/StdDriver/src/crypto.c:976:15
	ldr	r0, [sp, #40]
	.loc	3 976 8 is_stmt 0       @ C:/Keil_v5/ARM/PACK/Nuvoton/NuMicro_M2351_BSP/1.0.0/Device/M2351/StdDriver/src/crypto.c:976:8
	bl	strlen
	.loc	3 976 35                @ C:/Keil_v5/ARM/PACK/Nuvoton/NuMicro_M2351_BSP/1.0.0/Device/M2351/StdDriver/src/crypto.c:976:35
	ldr	r1, __arm_cp.18_0
	ldr	r1, [r1]
	.loc	3 976 43                @ C:/Keil_v5/ARM/PACK/Nuvoton/NuMicro_M2351_BSP/1.0.0/Device/M2351/StdDriver/src/crypto.c:976:43
	movw	r2, #768
	adds	r1, r1, r2
	.loc	3 976 28                @ C:/Keil_v5/ARM/PACK/Nuvoton/NuMicro_M2351_BSP/1.0.0/Device/M2351/StdDriver/src/crypto.c:976:28
	str	r0, [sp, #20]           @ 4-byte Spill
	mov	r0, r1
	bl	strlen
.Ltmp105:
	.loc	3 976 8                 @ C:/Keil_v5/ARM/PACK/Nuvoton/NuMicro_M2351_BSP/1.0.0/Device/M2351/StdDriver/src/crypto.c:976:8
	ldr	r1, [sp, #20]           @ 4-byte Reload
	cmp	r1, r0
	bhs	.LBB18_4
	b	.LBB18_3
.LBB18_3:
.Ltmp106:
	.loc	3 978 9 is_stmt 1       @ C:/Keil_v5/ARM/PACK/Nuvoton/NuMicro_M2351_BSP/1.0.0/Device/M2351/StdDriver/src/crypto.c:978:9
	movs	r0, #1
	str	r0, [sp, #52]
	b	.LBB18_15
.Ltmp107:
.LBB18_4:
	.loc	3 981 15                @ C:/Keil_v5/ARM/PACK/Nuvoton/NuMicro_M2351_BSP/1.0.0/Device/M2351/StdDriver/src/crypto.c:981:15
	ldr	r0, [sp, #40]
	.loc	3 981 8 is_stmt 0       @ C:/Keil_v5/ARM/PACK/Nuvoton/NuMicro_M2351_BSP/1.0.0/Device/M2351/StdDriver/src/crypto.c:981:8
	bl	strlen
	.loc	3 981 35                @ C:/Keil_v5/ARM/PACK/Nuvoton/NuMicro_M2351_BSP/1.0.0/Device/M2351/StdDriver/src/crypto.c:981:35
	ldr	r1, __arm_cp.18_0
	ldr	r1, [r1]
	.loc	3 981 43                @ C:/Keil_v5/ARM/PACK/Nuvoton/NuMicro_M2351_BSP/1.0.0/Device/M2351/StdDriver/src/crypto.c:981:43
	movw	r2, #768
	adds	r1, r1, r2
	.loc	3 981 28                @ C:/Keil_v5/ARM/PACK/Nuvoton/NuMicro_M2351_BSP/1.0.0/Device/M2351/StdDriver/src/crypto.c:981:28
	str	r0, [sp, #16]           @ 4-byte Spill
	mov	r0, r1
	bl	strlen
.Ltmp108:
	.loc	3 981 8                 @ C:/Keil_v5/ARM/PACK/Nuvoton/NuMicro_M2351_BSP/1.0.0/Device/M2351/StdDriver/src/crypto.c:981:8
	ldr	r1, [sp, #16]           @ 4-byte Reload
	cmp	r1, r0
	bls	.LBB18_6
	b	.LBB18_5
.LBB18_5:
.Ltmp109:
	.loc	3 983 9 is_stmt 1       @ C:/Keil_v5/ARM/PACK/Nuvoton/NuMicro_M2351_BSP/1.0.0/Device/M2351/StdDriver/src/crypto.c:983:9
	movs	r0, #0
	str	r0, [sp, #52]
	b	.LBB18_15
.Ltmp110:
.LBB18_6:
	.loc	3 986 11                @ C:/Keil_v5/ARM/PACK/Nuvoton/NuMicro_M2351_BSP/1.0.0/Device/M2351/StdDriver/src/crypto.c:986:11
	movs	r0, #0
	str	r0, [sp, #36]
	.loc	3 986 9 is_stmt 0       @ C:/Keil_v5/ARM/PACK/Nuvoton/NuMicro_M2351_BSP/1.0.0/Device/M2351/StdDriver/src/crypto.c:986:9
	b	.LBB18_7
.LBB18_7:                               @ =>This Inner Loop Header: Depth=1
.Ltmp111:
	.loc	3 986 17                @ C:/Keil_v5/ARM/PACK/Nuvoton/NuMicro_M2351_BSP/1.0.0/Device/M2351/StdDriver/src/crypto.c:986:17
	ldr	r0, [sp, #36]
	.loc	3 986 28                @ C:/Keil_v5/ARM/PACK/Nuvoton/NuMicro_M2351_BSP/1.0.0/Device/M2351/StdDriver/src/crypto.c:986:28
	ldr	r1, [sp, #40]
	.loc	3 986 21                @ C:/Keil_v5/ARM/PACK/Nuvoton/NuMicro_M2351_BSP/1.0.0/Device/M2351/StdDriver/src/crypto.c:986:21
	str	r0, [sp, #12]           @ 4-byte Spill
	mov	r0, r1
	bl	strlen
.Ltmp112:
	.loc	3 986 5                 @ C:/Keil_v5/ARM/PACK/Nuvoton/NuMicro_M2351_BSP/1.0.0/Device/M2351/StdDriver/src/crypto.c:986:5
	ldr	r1, [sp, #12]           @ 4-byte Reload
	cmp	r1, r0
	bhs	.LBB18_14
	b	.LBB18_8
.LBB18_8:                               @   in Loop: Header=BB18_7 Depth=1
.Ltmp113:
	.loc	3 988 29 is_stmt 1      @ C:/Keil_v5/ARM/PACK/Nuvoton/NuMicro_M2351_BSP/1.0.0/Device/M2351/StdDriver/src/crypto.c:988:29
	ldr	r0, [sp, #40]
	.loc	3 988 39 is_stmt 0      @ C:/Keil_v5/ARM/PACK/Nuvoton/NuMicro_M2351_BSP/1.0.0/Device/M2351/StdDriver/src/crypto.c:988:39
	ldr	r1, [sp, #36]
	.loc	3 988 12                @ C:/Keil_v5/ARM/PACK/Nuvoton/NuMicro_M2351_BSP/1.0.0/Device/M2351/StdDriver/src/crypto.c:988:12
	ldrb	r0, [r0, r1]
	bl	get_nibble_value
	.loc	3 988 62                @ C:/Keil_v5/ARM/PACK/Nuvoton/NuMicro_M2351_BSP/1.0.0/Device/M2351/StdDriver/src/crypto.c:988:62
	ldr	r1, __arm_cp.18_0
	ldr	r1, [r1]
	.loc	3 988 77                @ C:/Keil_v5/ARM/PACK/Nuvoton/NuMicro_M2351_BSP/1.0.0/Device/M2351/StdDriver/src/crypto.c:988:77
	ldr	r2, [sp, #36]
	.loc	3 988 70                @ C:/Keil_v5/ARM/PACK/Nuvoton/NuMicro_M2351_BSP/1.0.0/Device/M2351/StdDriver/src/crypto.c:988:70
	adds	r1, r1, r2
	movw	r2, #768
	.loc	3 988 45                @ C:/Keil_v5/ARM/PACK/Nuvoton/NuMicro_M2351_BSP/1.0.0/Device/M2351/StdDriver/src/crypto.c:988:45
	ldrb	r1, [r1, r2]
	str	r0, [sp, #8]            @ 4-byte Spill
	mov	r0, r1
	bl	get_nibble_value
.Ltmp114:
	.loc	3 988 12                @ C:/Keil_v5/ARM/PACK/Nuvoton/NuMicro_M2351_BSP/1.0.0/Device/M2351/StdDriver/src/crypto.c:988:12
	ldr	r1, [sp, #8]            @ 4-byte Reload
	cmp	r1, r0
	bge	.LBB18_10
	b	.LBB18_9
.LBB18_9:
.Ltmp115:
	.loc	3 990 13 is_stmt 1      @ C:/Keil_v5/ARM/PACK/Nuvoton/NuMicro_M2351_BSP/1.0.0/Device/M2351/StdDriver/src/crypto.c:990:13
	movs	r0, #1
	str	r0, [sp, #52]
	b	.LBB18_15
.Ltmp116:
.LBB18_10:                              @   in Loop: Header=BB18_7 Depth=1
	.loc	3 993 29                @ C:/Keil_v5/ARM/PACK/Nuvoton/NuMicro_M2351_BSP/1.0.0/Device/M2351/StdDriver/src/crypto.c:993:29
	ldr	r0, [sp, #40]
	.loc	3 993 39 is_stmt 0      @ C:/Keil_v5/ARM/PACK/Nuvoton/NuMicro_M2351_BSP/1.0.0/Device/M2351/StdDriver/src/crypto.c:993:39
	ldr	r1, [sp, #36]
	.loc	3 993 12                @ C:/Keil_v5/ARM/PACK/Nuvoton/NuMicro_M2351_BSP/1.0.0/Device/M2351/StdDriver/src/crypto.c:993:12
	ldrb	r0, [r0, r1]
	bl	get_nibble_value
	.loc	3 993 62                @ C:/Keil_v5/ARM/PACK/Nuvoton/NuMicro_M2351_BSP/1.0.0/Device/M2351/StdDriver/src/crypto.c:993:62
	ldr	r1, __arm_cp.18_0
	ldr	r1, [r1]
	.loc	3 993 77                @ C:/Keil_v5/ARM/PACK/Nuvoton/NuMicro_M2351_BSP/1.0.0/Device/M2351/StdDriver/src/crypto.c:993:77
	ldr	r2, [sp, #36]
	.loc	3 993 70                @ C:/Keil_v5/ARM/PACK/Nuvoton/NuMicro_M2351_BSP/1.0.0/Device/M2351/StdDriver/src/crypto.c:993:70
	adds	r1, r1, r2
	movw	r2, #768
	.loc	3 993 45                @ C:/Keil_v5/ARM/PACK/Nuvoton/NuMicro_M2351_BSP/1.0.0/Device/M2351/StdDriver/src/crypto.c:993:45
	ldrb	r1, [r1, r2]
	str	r0, [sp, #4]            @ 4-byte Spill
	mov	r0, r1
	bl	get_nibble_value
.Ltmp117:
	.loc	3 993 12                @ C:/Keil_v5/ARM/PACK/Nuvoton/NuMicro_M2351_BSP/1.0.0/Device/M2351/StdDriver/src/crypto.c:993:12
	ldr	r1, [sp, #4]            @ 4-byte Reload
	cmp	r1, r0
	ble	.LBB18_12
	b	.LBB18_11
.LBB18_11:
.Ltmp118:
	.loc	3 995 13 is_stmt 1      @ C:/Keil_v5/ARM/PACK/Nuvoton/NuMicro_M2351_BSP/1.0.0/Device/M2351/StdDriver/src/crypto.c:995:13
	movs	r0, #0
	str	r0, [sp, #52]
	b	.LBB18_15
.Ltmp119:
.LBB18_12:                              @   in Loop: Header=BB18_7 Depth=1
	.loc	3 997 5                 @ C:/Keil_v5/ARM/PACK/Nuvoton/NuMicro_M2351_BSP/1.0.0/Device/M2351/StdDriver/src/crypto.c:997:5
	b	.LBB18_13
.Ltmp120:
.LBB18_13:                              @   in Loop: Header=BB18_7 Depth=1
	.loc	3 986 41                @ C:/Keil_v5/ARM/PACK/Nuvoton/NuMicro_M2351_BSP/1.0.0/Device/M2351/StdDriver/src/crypto.c:986:41
	ldr	r0, [sp, #36]
	adds	r0, r0, #1
	str	r0, [sp, #36]
	.loc	3 986 5 is_stmt 0       @ C:/Keil_v5/ARM/PACK/Nuvoton/NuMicro_M2351_BSP/1.0.0/Device/M2351/StdDriver/src/crypto.c:986:5
	b	.LBB18_7
.Ltmp121:
.LBB18_14:
	.loc	3 998 5 is_stmt 1       @ C:/Keil_v5/ARM/PACK/Nuvoton/NuMicro_M2351_BSP/1.0.0/Device/M2351/StdDriver/src/crypto.c:998:5
	movs	r0, #0
	str	r0, [sp, #52]
	b	.LBB18_15
.LBB18_15:
	.loc	3 999 1                 @ C:/Keil_v5/ARM/PACK/Nuvoton/NuMicro_M2351_BSP/1.0.0/Device/M2351/StdDriver/src/crypto.c:999:1
	ldr	r0, [sp, #52]
	add	sp, #56
	pop	{r4, r5, r7, pc}
.Ltmp122:
	.p2align	2
@ %bb.16:
	.loc	3 0 1 is_stmt 0         @ C:/Keil_v5/ARM/PACK/Nuvoton/NuMicro_M2351_BSP/1.0.0/Device/M2351/StdDriver/src/crypto.c:0:1
__arm_cp.18_0:
	.long	pCurve
.Lcpi_end6:
	.size	__arm_cp.18_0, .Lcpi_end6-__arm_cp.18_0
.Lfunc_end18:
	.size	ECC_IsPrivateKeyValid, .Lfunc_end18-ECC_IsPrivateKeyValid
	.cfi_endproc
	.cantunwind
	.fnend
                                        @ -- End function
	.section	.text.get_curve,"ax",%progbits
	.p2align	2               @ -- Begin function get_curve
	.type	get_curve,%function
	.code	16                      @ @get_curve
	.thumb_func
get_curve:
.Lfunc_begin19:
	.loc	3 3442 0 is_stmt 1      @ C:/Keil_v5/ARM/PACK/Nuvoton/NuMicro_M2351_BSP/1.0.0/Device/M2351/StdDriver/src/crypto.c:3442:0
	.fnstart
	.cfi_startproc
@ %bb.0:
	.save	{r4, lr}
	push	{r4, lr}
	.cfi_def_cfa_offset 8
	.cfi_offset lr, -4
	.cfi_offset r4, -8
	.pad	#32
	sub	sp, #32
	.cfi_def_cfa_offset 40
	mov	r1, r0
	str	r0, [sp, #28]
	movs	r0, #0
.Ltmp123:
	.loc	3 3444 17 prologue_end  @ C:/Keil_v5/ARM/PACK/Nuvoton/NuMicro_M2351_BSP/1.0.0/Device/M2351/StdDriver/src/crypto.c:3444:17
	str	r0, [sp, #20]
.Ltmp124:
	.loc	3 3446 11               @ C:/Keil_v5/ARM/PACK/Nuvoton/NuMicro_M2351_BSP/1.0.0/Device/M2351/StdDriver/src/crypto.c:3446:11
	str	r0, [sp, #24]
	.loc	3 3446 9 is_stmt 0      @ C:/Keil_v5/ARM/PACK/Nuvoton/NuMicro_M2351_BSP/1.0.0/Device/M2351/StdDriver/src/crypto.c:3446:9
	str	r1, [sp, #16]           @ 4-byte Spill
	b	.LBB19_1
.LBB19_1:                               @ =>This Inner Loop Header: Depth=1
.Ltmp125:
	.loc	3 3446 18               @ C:/Keil_v5/ARM/PACK/Nuvoton/NuMicro_M2351_BSP/1.0.0/Device/M2351/StdDriver/src/crypto.c:3446:18
	ldr	r0, [sp, #24]
.Ltmp126:
	.loc	3 3446 5                @ C:/Keil_v5/ARM/PACK/Nuvoton/NuMicro_M2351_BSP/1.0.0/Device/M2351/StdDriver/src/crypto.c:3446:5
	cmp	r0, #14
	bhi	.LBB19_8
	b	.LBB19_2
.LBB19_2:                               @   in Loop: Header=BB19_1 Depth=1
.Ltmp127:
	.loc	3 3448 12 is_stmt 1     @ C:/Keil_v5/ARM/PACK/Nuvoton/NuMicro_M2351_BSP/1.0.0/Device/M2351/StdDriver/src/crypto.c:3448:12
	ldr	r0, [sp, #28]
	.loc	3 3448 32 is_stmt 0     @ C:/Keil_v5/ARM/PACK/Nuvoton/NuMicro_M2351_BSP/1.0.0/Device/M2351/StdDriver/src/crypto.c:3448:32
	ldr	r1, [sp, #24]
	.loc	3 3448 25               @ C:/Keil_v5/ARM/PACK/Nuvoton/NuMicro_M2351_BSP/1.0.0/Device/M2351/StdDriver/src/crypto.c:3448:25
	movw	r2, #964
	muls	r2, r1, r2
	ldr	r1, __arm_cp.19_0
	.loc	3 3448 35               @ C:/Keil_v5/ARM/PACK/Nuvoton/NuMicro_M2351_BSP/1.0.0/Device/M2351/StdDriver/src/crypto.c:3448:35
	ldr	r1, [r1, r2]
.Ltmp128:
	.loc	3 3448 12               @ C:/Keil_v5/ARM/PACK/Nuvoton/NuMicro_M2351_BSP/1.0.0/Device/M2351/StdDriver/src/crypto.c:3448:12
	cmp	r0, r1
	bne	.LBB19_4
	b	.LBB19_3
.LBB19_3:                               @   in Loop: Header=BB19_1 Depth=1
.Ltmp129:
	.loc	3 3450 49 is_stmt 1     @ C:/Keil_v5/ARM/PACK/Nuvoton/NuMicro_M2351_BSP/1.0.0/Device/M2351/StdDriver/src/crypto.c:3450:49
	ldr	r0, [sp, #24]
	movw	r1, #964
	.loc	3 3450 42 is_stmt 0     @ C:/Keil_v5/ARM/PACK/Nuvoton/NuMicro_M2351_BSP/1.0.0/Device/M2351/StdDriver/src/crypto.c:3450:42
	mov	r2, r1
	muls	r2, r0, r2
	ldr	r0, __arm_cp.19_0
	adds	r0, r0, r2
	.loc	3 3450 13               @ C:/Keil_v5/ARM/PACK/Nuvoton/NuMicro_M2351_BSP/1.0.0/Device/M2351/StdDriver/src/crypto.c:3450:13
	ldr	r2, __arm_cp.19_1
	str	r0, [sp, #12]           @ 4-byte Spill
	mov	r0, r2
	ldr	r3, [sp, #12]           @ 4-byte Reload
	str	r1, [sp, #8]            @ 4-byte Spill
	mov	r1, r3
	ldr	r4, [sp, #8]            @ 4-byte Reload
	str	r2, [sp, #4]            @ 4-byte Spill
	mov	r2, r4
	bl	__aeabi_memcpy4
	.loc	3 3451 17 is_stmt 1     @ C:/Keil_v5/ARM/PACK/Nuvoton/NuMicro_M2351_BSP/1.0.0/Device/M2351/StdDriver/src/crypto.c:3451:17
	ldr	r0, [sp, #4]            @ 4-byte Reload
	str	r0, [sp, #20]
	.loc	3 3452 9                @ C:/Keil_v5/ARM/PACK/Nuvoton/NuMicro_M2351_BSP/1.0.0/Device/M2351/StdDriver/src/crypto.c:3452:9
	b	.LBB19_4
.Ltmp130:
.LBB19_4:                               @   in Loop: Header=BB19_1 Depth=1
	.loc	3 3453 12               @ C:/Keil_v5/ARM/PACK/Nuvoton/NuMicro_M2351_BSP/1.0.0/Device/M2351/StdDriver/src/crypto.c:3453:12
	ldr	r0, [sp, #20]
.Ltmp131:
	.loc	3 3453 12 is_stmt 0     @ C:/Keil_v5/ARM/PACK/Nuvoton/NuMicro_M2351_BSP/1.0.0/Device/M2351/StdDriver/src/crypto.c:3453:12
	cmp	r0, #0
	beq	.LBB19_6
	b	.LBB19_5
.LBB19_5:
.Ltmp132:
	.loc	3 3455 13 is_stmt 1     @ C:/Keil_v5/ARM/PACK/Nuvoton/NuMicro_M2351_BSP/1.0.0/Device/M2351/StdDriver/src/crypto.c:3455:13
	b	.LBB19_8
.Ltmp133:
.LBB19_6:                               @   in Loop: Header=BB19_1 Depth=1
	.loc	3 3457 5                @ C:/Keil_v5/ARM/PACK/Nuvoton/NuMicro_M2351_BSP/1.0.0/Device/M2351/StdDriver/src/crypto.c:3457:5
	b	.LBB19_7
.Ltmp134:
.LBB19_7:                               @   in Loop: Header=BB19_1 Depth=1
	.loc	3 3446 59               @ C:/Keil_v5/ARM/PACK/Nuvoton/NuMicro_M2351_BSP/1.0.0/Device/M2351/StdDriver/src/crypto.c:3446:59
	ldr	r0, [sp, #24]
	adds	r0, r0, #1
	str	r0, [sp, #24]
	.loc	3 3446 5 is_stmt 0      @ C:/Keil_v5/ARM/PACK/Nuvoton/NuMicro_M2351_BSP/1.0.0/Device/M2351/StdDriver/src/crypto.c:3446:5
	b	.LBB19_1
.Ltmp135:
.LBB19_8:
	.loc	3 3458 12 is_stmt 1     @ C:/Keil_v5/ARM/PACK/Nuvoton/NuMicro_M2351_BSP/1.0.0/Device/M2351/StdDriver/src/crypto.c:3458:12
	ldr	r0, [sp, #20]
	.loc	3 3458 5 is_stmt 0      @ C:/Keil_v5/ARM/PACK/Nuvoton/NuMicro_M2351_BSP/1.0.0/Device/M2351/StdDriver/src/crypto.c:3458:5
	add	sp, #32
	pop	{r4, pc}
.Ltmp136:
	.p2align	2
@ %bb.9:
	.loc	3 0 5                   @ C:/Keil_v5/ARM/PACK/Nuvoton/NuMicro_M2351_BSP/1.0.0/Device/M2351/StdDriver/src/crypto.c:0:5
__arm_cp.19_0:
	.long	_Curve
.Lcpi_end7:
	.size	__arm_cp.19_0, .Lcpi_end7-__arm_cp.19_0
__arm_cp.19_1:
	.long	Curve_Copy
.Lcpi_end8:
	.size	__arm_cp.19_1, .Lcpi_end8-__arm_cp.19_1
.Lfunc_end19:
	.size	get_curve, .Lfunc_end19-get_curve
	.cfi_endproc
	.cantunwind
	.fnend
                                        @ -- End function
	.section	.text.get_nibble_value,"ax",%progbits
	.p2align	1               @ -- Begin function get_nibble_value
	.type	get_nibble_value,%function
	.code	16                      @ @get_nibble_value
	.thumb_func
get_nibble_value:
.Lfunc_begin20:
	.loc	3 933 0 is_stmt 1       @ C:/Keil_v5/ARM/PACK/Nuvoton/NuMicro_M2351_BSP/1.0.0/Device/M2351/StdDriver/src/crypto.c:933:0
	.fnstart
	.cfi_startproc
@ %bb.0:
	.pad	#16
	sub	sp, #16
	.cfi_def_cfa_offset 16
	mov	r1, r0
	add	r2, sp, #8
	strb	r0, [r2]
.Ltmp137:
	.loc	3 936 9 prologue_end    @ C:/Keil_v5/ARM/PACK/Nuvoton/NuMicro_M2351_BSP/1.0.0/Device/M2351/StdDriver/src/crypto.c:936:9
	ldrb	r0, [r2]
	.loc	3 936 19 is_stmt 0      @ C:/Keil_v5/ARM/PACK/Nuvoton/NuMicro_M2351_BSP/1.0.0/Device/M2351/StdDriver/src/crypto.c:936:19
	cmp	r0, #48
	str	r1, [sp]                @ 4-byte Spill
	blt	.LBB20_3
	b	.LBB20_1
.LBB20_1:
	.loc	3 0 19                  @ C:/Keil_v5/ARM/PACK/Nuvoton/NuMicro_M2351_BSP/1.0.0/Device/M2351/StdDriver/src/crypto.c:0:19
	add	r0, sp, #8
	.loc	3 936 23                @ C:/Keil_v5/ARM/PACK/Nuvoton/NuMicro_M2351_BSP/1.0.0/Device/M2351/StdDriver/src/crypto.c:936:23
	ldrb	r0, [r0]
.Ltmp138:
	.loc	3 936 8                 @ C:/Keil_v5/ARM/PACK/Nuvoton/NuMicro_M2351_BSP/1.0.0/Device/M2351/StdDriver/src/crypto.c:936:8
	cmp	r0, #57
	bgt	.LBB20_3
	b	.LBB20_2
.LBB20_2:
	.loc	3 0 8                   @ C:/Keil_v5/ARM/PACK/Nuvoton/NuMicro_M2351_BSP/1.0.0/Device/M2351/StdDriver/src/crypto.c:0:8
	add	r0, sp, #4
.Ltmp139:
	.loc	3 938 12 is_stmt 1      @ C:/Keil_v5/ARM/PACK/Nuvoton/NuMicro_M2351_BSP/1.0.0/Device/M2351/StdDriver/src/crypto.c:938:12
	movs	r1, #48
	strb	r1, [r0]
	add	r1, sp, #8
	.loc	3 939 17                @ C:/Keil_v5/ARM/PACK/Nuvoton/NuMicro_M2351_BSP/1.0.0/Device/M2351/StdDriver/src/crypto.c:939:17
	ldrb	r1, [r1]
	.loc	3 939 26 is_stmt 0      @ C:/Keil_v5/ARM/PACK/Nuvoton/NuMicro_M2351_BSP/1.0.0/Device/M2351/StdDriver/src/crypto.c:939:26
	ldrb	r0, [r0]
	.loc	3 939 24                @ C:/Keil_v5/ARM/PACK/Nuvoton/NuMicro_M2351_BSP/1.0.0/Device/M2351/StdDriver/src/crypto.c:939:24
	subs	r0, r1, r0
	.loc	3 939 9                 @ C:/Keil_v5/ARM/PACK/Nuvoton/NuMicro_M2351_BSP/1.0.0/Device/M2351/StdDriver/src/crypto.c:939:9
	str	r0, [sp, #12]
	b	.LBB20_10
.Ltmp140:
.LBB20_3:
	.loc	3 0 9                   @ C:/Keil_v5/ARM/PACK/Nuvoton/NuMicro_M2351_BSP/1.0.0/Device/M2351/StdDriver/src/crypto.c:0:9
	add	r0, sp, #8
.Ltmp141:
	.loc	3 942 9 is_stmt 1       @ C:/Keil_v5/ARM/PACK/Nuvoton/NuMicro_M2351_BSP/1.0.0/Device/M2351/StdDriver/src/crypto.c:942:9
	ldrb	r0, [r0]
	.loc	3 942 19 is_stmt 0      @ C:/Keil_v5/ARM/PACK/Nuvoton/NuMicro_M2351_BSP/1.0.0/Device/M2351/StdDriver/src/crypto.c:942:19
	cmp	r0, #97
	blt	.LBB20_6
	b	.LBB20_4
.LBB20_4:
	.loc	3 0 19                  @ C:/Keil_v5/ARM/PACK/Nuvoton/NuMicro_M2351_BSP/1.0.0/Device/M2351/StdDriver/src/crypto.c:0:19
	add	r0, sp, #8
	.loc	3 942 23                @ C:/Keil_v5/ARM/PACK/Nuvoton/NuMicro_M2351_BSP/1.0.0/Device/M2351/StdDriver/src/crypto.c:942:23
	ldrb	r0, [r0]
.Ltmp142:
	.loc	3 942 8                 @ C:/Keil_v5/ARM/PACK/Nuvoton/NuMicro_M2351_BSP/1.0.0/Device/M2351/StdDriver/src/crypto.c:942:8
	cmp	r0, #102
	bgt	.LBB20_6
	b	.LBB20_5
.LBB20_5:
	.loc	3 0 8                   @ C:/Keil_v5/ARM/PACK/Nuvoton/NuMicro_M2351_BSP/1.0.0/Device/M2351/StdDriver/src/crypto.c:0:8
	add	r0, sp, #4
.Ltmp143:
	.loc	3 944 12 is_stmt 1      @ C:/Keil_v5/ARM/PACK/Nuvoton/NuMicro_M2351_BSP/1.0.0/Device/M2351/StdDriver/src/crypto.c:944:12
	movs	r1, #97
	strb	r1, [r0]
	add	r1, sp, #8
	.loc	3 945 17                @ C:/Keil_v5/ARM/PACK/Nuvoton/NuMicro_M2351_BSP/1.0.0/Device/M2351/StdDriver/src/crypto.c:945:17
	ldrb	r1, [r1]
	.loc	3 945 26 is_stmt 0      @ C:/Keil_v5/ARM/PACK/Nuvoton/NuMicro_M2351_BSP/1.0.0/Device/M2351/StdDriver/src/crypto.c:945:26
	ldrb	r0, [r0]
	.loc	3 945 24                @ C:/Keil_v5/ARM/PACK/Nuvoton/NuMicro_M2351_BSP/1.0.0/Device/M2351/StdDriver/src/crypto.c:945:24
	subs	r0, r1, r0
	.loc	3 945 34                @ C:/Keil_v5/ARM/PACK/Nuvoton/NuMicro_M2351_BSP/1.0.0/Device/M2351/StdDriver/src/crypto.c:945:34
	adds	r0, #10
	.loc	3 945 9                 @ C:/Keil_v5/ARM/PACK/Nuvoton/NuMicro_M2351_BSP/1.0.0/Device/M2351/StdDriver/src/crypto.c:945:9
	str	r0, [sp, #12]
	b	.LBB20_10
.Ltmp144:
.LBB20_6:
	.loc	3 0 9                   @ C:/Keil_v5/ARM/PACK/Nuvoton/NuMicro_M2351_BSP/1.0.0/Device/M2351/StdDriver/src/crypto.c:0:9
	add	r0, sp, #8
.Ltmp145:
	.loc	3 948 9 is_stmt 1       @ C:/Keil_v5/ARM/PACK/Nuvoton/NuMicro_M2351_BSP/1.0.0/Device/M2351/StdDriver/src/crypto.c:948:9
	ldrb	r0, [r0]
	.loc	3 948 19 is_stmt 0      @ C:/Keil_v5/ARM/PACK/Nuvoton/NuMicro_M2351_BSP/1.0.0/Device/M2351/StdDriver/src/crypto.c:948:19
	cmp	r0, #65
	blt	.LBB20_9
	b	.LBB20_7
.LBB20_7:
	.loc	3 0 19                  @ C:/Keil_v5/ARM/PACK/Nuvoton/NuMicro_M2351_BSP/1.0.0/Device/M2351/StdDriver/src/crypto.c:0:19
	add	r0, sp, #8
	.loc	3 948 23                @ C:/Keil_v5/ARM/PACK/Nuvoton/NuMicro_M2351_BSP/1.0.0/Device/M2351/StdDriver/src/crypto.c:948:23
	ldrb	r0, [r0]
.Ltmp146:
	.loc	3 948 8                 @ C:/Keil_v5/ARM/PACK/Nuvoton/NuMicro_M2351_BSP/1.0.0/Device/M2351/StdDriver/src/crypto.c:948:8
	cmp	r0, #70
	bgt	.LBB20_9
	b	.LBB20_8
.LBB20_8:
	.loc	3 0 8                   @ C:/Keil_v5/ARM/PACK/Nuvoton/NuMicro_M2351_BSP/1.0.0/Device/M2351/StdDriver/src/crypto.c:0:8
	add	r0, sp, #4
.Ltmp147:
	.loc	3 950 12 is_stmt 1      @ C:/Keil_v5/ARM/PACK/Nuvoton/NuMicro_M2351_BSP/1.0.0/Device/M2351/StdDriver/src/crypto.c:950:12
	movs	r1, #65
	strb	r1, [r0]
	add	r1, sp, #8
	.loc	3 951 17                @ C:/Keil_v5/ARM/PACK/Nuvoton/NuMicro_M2351_BSP/1.0.0/Device/M2351/StdDriver/src/crypto.c:951:17
	ldrb	r1, [r1]
	.loc	3 951 26 is_stmt 0      @ C:/Keil_v5/ARM/PACK/Nuvoton/NuMicro_M2351_BSP/1.0.0/Device/M2351/StdDriver/src/crypto.c:951:26
	ldrb	r0, [r0]
	.loc	3 951 24                @ C:/Keil_v5/ARM/PACK/Nuvoton/NuMicro_M2351_BSP/1.0.0/Device/M2351/StdDriver/src/crypto.c:951:24
	subs	r0, r1, r0
	.loc	3 951 34                @ C:/Keil_v5/ARM/PACK/Nuvoton/NuMicro_M2351_BSP/1.0.0/Device/M2351/StdDriver/src/crypto.c:951:34
	adds	r0, #10
	.loc	3 951 9                 @ C:/Keil_v5/ARM/PACK/Nuvoton/NuMicro_M2351_BSP/1.0.0/Device/M2351/StdDriver/src/crypto.c:951:9
	str	r0, [sp, #12]
	b	.LBB20_10
.Ltmp148:
.LBB20_9:
	.loc	3 953 5 is_stmt 1       @ C:/Keil_v5/ARM/PACK/Nuvoton/NuMicro_M2351_BSP/1.0.0/Device/M2351/StdDriver/src/crypto.c:953:5
	movs	r0, #0
	str	r0, [sp, #12]
	b	.LBB20_10
.LBB20_10:
	.loc	3 954 1                 @ C:/Keil_v5/ARM/PACK/Nuvoton/NuMicro_M2351_BSP/1.0.0/Device/M2351/StdDriver/src/crypto.c:954:1
	ldr	r0, [sp, #12]
	add	sp, #16
	bx	lr
.Ltmp149:
.Lfunc_end20:
	.size	get_nibble_value, .Lfunc_end20-get_nibble_value
	.cfi_endproc
	.cantunwind
	.fnend
                                        @ -- End function
	.section	.text.ECC_GeneratePublicKey,"ax",%progbits
	.hidden	ECC_GeneratePublicKey   @ -- Begin function ECC_GeneratePublicKey
	.globl	ECC_GeneratePublicKey
	.p2align	2
	.type	ECC_GeneratePublicKey,%function
	.code	16                      @ @ECC_GeneratePublicKey
	.thumb_func
ECC_GeneratePublicKey:
.Lfunc_begin21:
	.loc	3 1012 0                @ C:/Keil_v5/ARM/PACK/Nuvoton/NuMicro_M2351_BSP/1.0.0/Device/M2351/StdDriver/src/crypto.c:1012:0
	.fnstart
	.cfi_startproc
@ %bb.0:
	.save	{r4, r5, r6, r7, lr}
	push	{r4, r5, r6, r7, lr}
	.cfi_def_cfa_offset 20
	.cfi_offset lr, -4
	.cfi_offset r7, -8
	.cfi_offset r6, -12
	.cfi_offset r5, -16
	.cfi_offset r4, -20
	.pad	#60
	sub	sp, #60
	.cfi_def_cfa_offset 80
	ldr	r4, [sp, #80]
	mov	r5, r3
	mov	r6, r2
	mov	r7, r1
	str	r0, [sp, #28]           @ 4-byte Spill
	str	r0, [sp, #24]           @ 4-byte Spill
	ldr	r0, [sp, #28]           @ 4-byte Reload
	str	r0, [sp, #56]
	str	r1, [sp, #52]
	str	r2, [sp, #48]
	str	r3, [sp, #44]
	movs	r1, #0
.Ltmp150:
	.loc	3 1013 14 prologue_end  @ C:/Keil_v5/ARM/PACK/Nuvoton/NuMicro_M2351_BSP/1.0.0/Device/M2351/StdDriver/src/crypto.c:1013:14
	str	r1, [sp, #40]
.Ltmp151:
	.loc	3 1016 23               @ C:/Keil_v5/ARM/PACK/Nuvoton/NuMicro_M2351_BSP/1.0.0/Device/M2351/StdDriver/src/crypto.c:1016:23
	ldr	r0, [sp, #56]
	.loc	3 1016 29 is_stmt 0     @ C:/Keil_v5/ARM/PACK/Nuvoton/NuMicro_M2351_BSP/1.0.0/Device/M2351/StdDriver/src/crypto.c:1016:29
	ldr	r1, [sp, #52]
	.loc	3 1016 8                @ C:/Keil_v5/ARM/PACK/Nuvoton/NuMicro_M2351_BSP/1.0.0/Device/M2351/StdDriver/src/crypto.c:1016:8
	str	r5, [sp, #20]           @ 4-byte Spill
	str	r6, [sp, #16]           @ 4-byte Spill
	str	r7, [sp, #12]           @ 4-byte Spill
	str	r4, [sp, #8]            @ 4-byte Spill
	bl	ecc_init_curve
.Ltmp152:
	.loc	3 1016 8                @ C:/Keil_v5/ARM/PACK/Nuvoton/NuMicro_M2351_BSP/1.0.0/Device/M2351/StdDriver/src/crypto.c:1016:8
	cmp	r0, #0
	beq	.LBB21_2
	b	.LBB21_1
.LBB21_1:
.Ltmp153:
	.loc	3 1018 13 is_stmt 1     @ C:/Keil_v5/ARM/PACK/Nuvoton/NuMicro_M2351_BSP/1.0.0/Device/M2351/StdDriver/src/crypto.c:1018:13
	movs	r0, #0
	mvns	r0, r0
	str	r0, [sp, #40]
	.loc	3 1019 5                @ C:/Keil_v5/ARM/PACK/Nuvoton/NuMicro_M2351_BSP/1.0.0/Device/M2351/StdDriver/src/crypto.c:1019:5
	b	.LBB21_2
.Ltmp154:
.LBB21_2:
	.loc	3 1021 8                @ C:/Keil_v5/ARM/PACK/Nuvoton/NuMicro_M2351_BSP/1.0.0/Device/M2351/StdDriver/src/crypto.c:1021:8
	ldr	r0, [sp, #40]
.Ltmp155:
	.loc	3 1021 8 is_stmt 0      @ C:/Keil_v5/ARM/PACK/Nuvoton/NuMicro_M2351_BSP/1.0.0/Device/M2351/StdDriver/src/crypto.c:1021:8
	cmp	r0, #0
	bne	.LBB21_14
	b	.LBB21_3
.LBB21_3:
.Ltmp156:
	.loc	3 1023 15 is_stmt 1     @ C:/Keil_v5/ARM/PACK/Nuvoton/NuMicro_M2351_BSP/1.0.0/Device/M2351/StdDriver/src/crypto.c:1023:15
	movs	r0, #0
	str	r0, [sp, #36]
	.loc	3 1023 13 is_stmt 0     @ C:/Keil_v5/ARM/PACK/Nuvoton/NuMicro_M2351_BSP/1.0.0/Device/M2351/StdDriver/src/crypto.c:1023:13
	b	.LBB21_4
.LBB21_4:                               @ =>This Inner Loop Header: Depth=1
.Ltmp157:
	.loc	3 1023 20               @ C:/Keil_v5/ARM/PACK/Nuvoton/NuMicro_M2351_BSP/1.0.0/Device/M2351/StdDriver/src/crypto.c:1023:20
	ldr	r0, [sp, #36]
.Ltmp158:
	.loc	3 1023 9                @ C:/Keil_v5/ARM/PACK/Nuvoton/NuMicro_M2351_BSP/1.0.0/Device/M2351/StdDriver/src/crypto.c:1023:9
	cmp	r0, #17
	bgt	.LBB21_7
	b	.LBB21_5
.LBB21_5:                               @   in Loop: Header=BB21_4 Depth=1
.Ltmp159:
	.loc	3 1025 13 is_stmt 1     @ C:/Keil_v5/ARM/PACK/Nuvoton/NuMicro_M2351_BSP/1.0.0/Device/M2351/StdDriver/src/crypto.c:1025:13
	ldr	r0, [sp, #56]
	.loc	3 1025 25 is_stmt 0     @ C:/Keil_v5/ARM/PACK/Nuvoton/NuMicro_M2351_BSP/1.0.0/Device/M2351/StdDriver/src/crypto.c:1025:25
	ldr	r1, [sp, #36]
	.loc	3 1025 13               @ C:/Keil_v5/ARM/PACK/Nuvoton/NuMicro_M2351_BSP/1.0.0/Device/M2351/StdDriver/src/crypto.c:1025:13
	lsls	r1, r1, #2
	.loc	3 1025 19               @ C:/Keil_v5/ARM/PACK/Nuvoton/NuMicro_M2351_BSP/1.0.0/Device/M2351/StdDriver/src/crypto.c:1025:19
	adds	r0, r0, r1
	movw	r1, #2560
	movs	r2, #0
	.loc	3 1025 28               @ C:/Keil_v5/ARM/PACK/Nuvoton/NuMicro_M2351_BSP/1.0.0/Device/M2351/StdDriver/src/crypto.c:1025:28
	str	r2, [r0, r1]
	.loc	3 1026 9 is_stmt 1      @ C:/Keil_v5/ARM/PACK/Nuvoton/NuMicro_M2351_BSP/1.0.0/Device/M2351/StdDriver/src/crypto.c:1026:9
	b	.LBB21_6
.Ltmp160:
.LBB21_6:                               @   in Loop: Header=BB21_4 Depth=1
	.loc	3 1023 29               @ C:/Keil_v5/ARM/PACK/Nuvoton/NuMicro_M2351_BSP/1.0.0/Device/M2351/StdDriver/src/crypto.c:1023:29
	ldr	r0, [sp, #36]
	adds	r0, r0, #1
	str	r0, [sp, #36]
	.loc	3 1023 9 is_stmt 0      @ C:/Keil_v5/ARM/PACK/Nuvoton/NuMicro_M2351_BSP/1.0.0/Device/M2351/StdDriver/src/crypto.c:1023:9
	b	.LBB21_4
.Ltmp161:
.LBB21_7:
	.loc	3 1028 17 is_stmt 1     @ C:/Keil_v5/ARM/PACK/Nuvoton/NuMicro_M2351_BSP/1.0.0/Device/M2351/StdDriver/src/crypto.c:1028:17
	ldr	r0, [sp, #48]
	.loc	3 1028 28 is_stmt 0     @ C:/Keil_v5/ARM/PACK/Nuvoton/NuMicro_M2351_BSP/1.0.0/Device/M2351/StdDriver/src/crypto.c:1028:28
	ldr	r1, [sp, #56]
	.loc	3 1028 34               @ C:/Keil_v5/ARM/PACK/Nuvoton/NuMicro_M2351_BSP/1.0.0/Device/M2351/StdDriver/src/crypto.c:1028:34
	movw	r2, #2560
	adds	r1, r1, r2
	.loc	3 1028 9                @ C:/Keil_v5/ARM/PACK/Nuvoton/NuMicro_M2351_BSP/1.0.0/Device/M2351/StdDriver/src/crypto.c:1028:9
	bl	Hex2Reg
.Ltmp162:
	.loc	3 1031 12 is_stmt 1     @ C:/Keil_v5/ARM/PACK/Nuvoton/NuMicro_M2351_BSP/1.0.0/Device/M2351/StdDriver/src/crypto.c:1031:12
	ldr	r0, __arm_cp.21_0
	ldr	r0, [r0]
	.loc	3 1031 20 is_stmt 0     @ C:/Keil_v5/ARM/PACK/Nuvoton/NuMicro_M2351_BSP/1.0.0/Device/M2351/StdDriver/src/crypto.c:1031:20
	movw	r1, #960
	ldr	r0, [r0, r1]
.Ltmp163:
	.loc	3 1031 12               @ C:/Keil_v5/ARM/PACK/Nuvoton/NuMicro_M2351_BSP/1.0.0/Device/M2351/StdDriver/src/crypto.c:1031:12
	cmp	r0, #1
	bne	.LBB21_9
	b	.LBB21_8
.LBB21_8:
.Ltmp164:
	.loc	3 1033 13 is_stmt 1     @ C:/Keil_v5/ARM/PACK/Nuvoton/NuMicro_M2351_BSP/1.0.0/Device/M2351/StdDriver/src/crypto.c:1033:13
	ldr	r0, [sp, #56]
	.loc	3 1033 19 is_stmt 0     @ C:/Keil_v5/ARM/PACK/Nuvoton/NuMicro_M2351_BSP/1.0.0/Device/M2351/StdDriver/src/crypto.c:1033:19
	movw	r1, #2048
	movs	r2, #0
	.loc	3 1033 27               @ C:/Keil_v5/ARM/PACK/Nuvoton/NuMicro_M2351_BSP/1.0.0/Device/M2351/StdDriver/src/crypto.c:1033:27
	str	r2, [r0, r1]
	.loc	3 1034 9 is_stmt 1      @ C:/Keil_v5/ARM/PACK/Nuvoton/NuMicro_M2351_BSP/1.0.0/Device/M2351/StdDriver/src/crypto.c:1034:9
	b	.LBB21_10
.Ltmp165:
.LBB21_9:
	.loc	3 1037 13               @ C:/Keil_v5/ARM/PACK/Nuvoton/NuMicro_M2351_BSP/1.0.0/Device/M2351/StdDriver/src/crypto.c:1037:13
	ldr	r0, [sp, #56]
	.loc	3 1037 19 is_stmt 0     @ C:/Keil_v5/ARM/PACK/Nuvoton/NuMicro_M2351_BSP/1.0.0/Device/M2351/StdDriver/src/crypto.c:1037:19
	movw	r1, #2048
	.loc	3 1037 27               @ C:/Keil_v5/ARM/PACK/Nuvoton/NuMicro_M2351_BSP/1.0.0/Device/M2351/StdDriver/src/crypto.c:1037:27
	movw	r2, #256
	str	r2, [r0, r1]
	b	.LBB21_10
.Ltmp166:
.LBB21_10:
	.loc	3 1040 36 is_stmt 1     @ C:/Keil_v5/ARM/PACK/Nuvoton/NuMicro_M2351_BSP/1.0.0/Device/M2351/StdDriver/src/crypto.c:1040:36
	ldr	r0, __arm_cp.21_1
	movs	r1, #0
	str	r1, [r0]
	.loc	3 1040 20 is_stmt 0     @ C:/Keil_v5/ARM/PACK/Nuvoton/NuMicro_M2351_BSP/1.0.0/Device/M2351/StdDriver/src/crypto.c:1040:20
	ldr	r0, __arm_cp.21_2
	str	r1, [r0]
	.loc	3 1041 37 is_stmt 1     @ C:/Keil_v5/ARM/PACK/Nuvoton/NuMicro_M2351_BSP/1.0.0/Device/M2351/StdDriver/src/crypto.c:1041:37
	ldr	r0, __arm_cp.21_0
	ldr	r0, [r0]
	.loc	3 1041 45 is_stmt 0     @ C:/Keil_v5/ARM/PACK/Nuvoton/NuMicro_M2351_BSP/1.0.0/Device/M2351/StdDriver/src/crypto.c:1041:45
	movw	r1, #944
	ldr	r0, [r0, r1]
	.loc	3 1041 53               @ C:/Keil_v5/ARM/PACK/Nuvoton/NuMicro_M2351_BSP/1.0.0/Device/M2351/StdDriver/src/crypto.c:1041:53
	lsls	r0, r0, #22
	.loc	3 1041 9                @ C:/Keil_v5/ARM/PACK/Nuvoton/NuMicro_M2351_BSP/1.0.0/Device/M2351/StdDriver/src/crypto.c:1041:9
	ldr	r1, [sp, #56]
	.loc	3 1041 15               @ C:/Keil_v5/ARM/PACK/Nuvoton/NuMicro_M2351_BSP/1.0.0/Device/M2351/StdDriver/src/crypto.c:1041:15
	movw	r2, #2048
	.loc	3 1041 23               @ C:/Keil_v5/ARM/PACK/Nuvoton/NuMicro_M2351_BSP/1.0.0/Device/M2351/StdDriver/src/crypto.c:1041:23
	ldr	r3, [r1, r2]
	orrs	r3, r0
	.loc	3 1042 42 is_stmt 1     @ C:/Keil_v5/ARM/PACK/Nuvoton/NuMicro_M2351_BSP/1.0.0/Device/M2351/StdDriver/src/crypto.c:1042:42
	movs	r0, #1
	.loc	3 1041 23               @ C:/Keil_v5/ARM/PACK/Nuvoton/NuMicro_M2351_BSP/1.0.0/Device/M2351/StdDriver/src/crypto.c:1041:23
	orrs	r3, r0
	str	r3, [r1, r2]
	.loc	3 1044 9                @ C:/Keil_v5/ARM/PACK/Nuvoton/NuMicro_M2351_BSP/1.0.0/Device/M2351/StdDriver/src/crypto.c:1044:9
	b	.LBB21_11
.LBB21_11:                              @ =>This Inner Loop Header: Depth=1
.Ltmp167:
	.loc	3 1046 22               @ C:/Keil_v5/ARM/PACK/Nuvoton/NuMicro_M2351_BSP/1.0.0/Device/M2351/StdDriver/src/crypto.c:1046:22
	ldr	r0, __arm_cp.21_2
	ldr	r0, [r0]
	.loc	3 1046 20 is_stmt 0     @ C:/Keil_v5/ARM/PACK/Nuvoton/NuMicro_M2351_BSP/1.0.0/Device/M2351/StdDriver/src/crypto.c:1046:20
	str	r0, [sp, #32]
	.loc	3 1047 23 is_stmt 1     @ C:/Keil_v5/ARM/PACK/Nuvoton/NuMicro_M2351_BSP/1.0.0/Device/M2351/StdDriver/src/crypto.c:1047:23
	ldr	r0, __arm_cp.21_1
	ldr	r0, [r0]
	.loc	3 1047 20 is_stmt 0     @ C:/Keil_v5/ARM/PACK/Nuvoton/NuMicro_M2351_BSP/1.0.0/Device/M2351/StdDriver/src/crypto.c:1047:20
	ldr	r1, [sp, #32]
	orrs	r1, r0
	str	r1, [sp, #32]
	.loc	3 1048 9 is_stmt 1      @ C:/Keil_v5/ARM/PACK/Nuvoton/NuMicro_M2351_BSP/1.0.0/Device/M2351/StdDriver/src/crypto.c:1048:9
	b	.LBB21_12
.Ltmp168:
.LBB21_12:                              @   in Loop: Header=BB21_11 Depth=1
	.loc	3 1049 15               @ C:/Keil_v5/ARM/PACK/Nuvoton/NuMicro_M2351_BSP/1.0.0/Device/M2351/StdDriver/src/crypto.c:1049:15
	ldr	r0, [sp, #32]
.Ltmp169:
	.loc	3 1048 9                @ C:/Keil_v5/ARM/PACK/Nuvoton/NuMicro_M2351_BSP/1.0.0/Device/M2351/StdDriver/src/crypto.c:1048:9
	cmp	r0, #0
	beq	.LBB21_11
	b	.LBB21_13
.Ltmp170:
.LBB21_13:
	.loc	3 1051 17               @ C:/Keil_v5/ARM/PACK/Nuvoton/NuMicro_M2351_BSP/1.0.0/Device/M2351/StdDriver/src/crypto.c:1051:17
	ldr	r0, __arm_cp.21_0
	ldr	r1, [r0]
	.loc	3 1051 25 is_stmt 0     @ C:/Keil_v5/ARM/PACK/Nuvoton/NuMicro_M2351_BSP/1.0.0/Device/M2351/StdDriver/src/crypto.c:1051:25
	ldr	r1, [r1, #4]
	.loc	3 1051 32               @ C:/Keil_v5/ARM/PACK/Nuvoton/NuMicro_M2351_BSP/1.0.0/Device/M2351/StdDriver/src/crypto.c:1051:32
	ldr	r2, [sp, #56]
	.loc	3 1051 38               @ C:/Keil_v5/ARM/PACK/Nuvoton/NuMicro_M2351_BSP/1.0.0/Device/M2351/StdDriver/src/crypto.c:1051:38
	ldr	r3, __arm_cp.21_3
	adds	r2, r2, r3
	.loc	3 1051 46               @ C:/Keil_v5/ARM/PACK/Nuvoton/NuMicro_M2351_BSP/1.0.0/Device/M2351/StdDriver/src/crypto.c:1051:46
	ldr	r3, [sp, #44]
	.loc	3 1051 9                @ C:/Keil_v5/ARM/PACK/Nuvoton/NuMicro_M2351_BSP/1.0.0/Device/M2351/StdDriver/src/crypto.c:1051:9
	str	r0, [sp, #4]            @ 4-byte Spill
	mov	r0, r1
	mov	r1, r2
	mov	r2, r3
	bl	Reg2Hex
	.loc	3 1052 17 is_stmt 1     @ C:/Keil_v5/ARM/PACK/Nuvoton/NuMicro_M2351_BSP/1.0.0/Device/M2351/StdDriver/src/crypto.c:1052:17
	ldr	r0, [sp, #4]            @ 4-byte Reload
	ldr	r1, [r0]
	.loc	3 1052 25 is_stmt 0     @ C:/Keil_v5/ARM/PACK/Nuvoton/NuMicro_M2351_BSP/1.0.0/Device/M2351/StdDriver/src/crypto.c:1052:25
	ldr	r0, [r1, #4]
	.loc	3 1052 32               @ C:/Keil_v5/ARM/PACK/Nuvoton/NuMicro_M2351_BSP/1.0.0/Device/M2351/StdDriver/src/crypto.c:1052:32
	ldr	r1, [sp, #56]
	.loc	3 1052 38               @ C:/Keil_v5/ARM/PACK/Nuvoton/NuMicro_M2351_BSP/1.0.0/Device/M2351/StdDriver/src/crypto.c:1052:38
	movw	r2, #2128
	adds	r1, r1, r2
	.loc	3 1052 46               @ C:/Keil_v5/ARM/PACK/Nuvoton/NuMicro_M2351_BSP/1.0.0/Device/M2351/StdDriver/src/crypto.c:1052:46
	ldr	r2, [sp, #80]
	.loc	3 1052 9                @ C:/Keil_v5/ARM/PACK/Nuvoton/NuMicro_M2351_BSP/1.0.0/Device/M2351/StdDriver/src/crypto.c:1052:9
	bl	Reg2Hex
	.loc	3 1053 5 is_stmt 1      @ C:/Keil_v5/ARM/PACK/Nuvoton/NuMicro_M2351_BSP/1.0.0/Device/M2351/StdDriver/src/crypto.c:1053:5
	b	.LBB21_14
.Ltmp171:
.LBB21_14:
	.loc	3 1055 12               @ C:/Keil_v5/ARM/PACK/Nuvoton/NuMicro_M2351_BSP/1.0.0/Device/M2351/StdDriver/src/crypto.c:1055:12
	ldr	r0, [sp, #40]
	.loc	3 1055 5 is_stmt 0      @ C:/Keil_v5/ARM/PACK/Nuvoton/NuMicro_M2351_BSP/1.0.0/Device/M2351/StdDriver/src/crypto.c:1055:5
	add	sp, #60
	pop	{r4, r5, r6, r7, pc}
.Ltmp172:
	.p2align	2
@ %bb.15:
	.loc	3 0 5                   @ C:/Keil_v5/ARM/PACK/Nuvoton/NuMicro_M2351_BSP/1.0.0/Device/M2351/StdDriver/src/crypto.c:0:5
__arm_cp.21_0:
	.long	pCurve
.Lcpi_end9:
	.size	__arm_cp.21_0, .Lcpi_end9-__arm_cp.21_0
__arm_cp.21_1:
	.long	g_ECCERR_done
.Lcpi_end10:
	.size	__arm_cp.21_1, .Lcpi_end10-__arm_cp.21_1
__arm_cp.21_2:
	.long	g_ECC_done
.Lcpi_end11:
	.size	__arm_cp.21_2, .Lcpi_end11-__arm_cp.21_2
__arm_cp.21_3:
	.long	2056                    @ 0x808
.Lcpi_end12:
	.size	__arm_cp.21_3, .Lcpi_end12-__arm_cp.21_3
.Lfunc_end21:
	.size	ECC_GeneratePublicKey, .Lfunc_end21-ECC_GeneratePublicKey
	.cfi_endproc
	.cantunwind
	.fnend
                                        @ -- End function
	.section	.text.ecc_init_curve,"ax",%progbits
	.p2align	2               @ -- Begin function ecc_init_curve
	.type	ecc_init_curve,%function
	.code	16                      @ @ecc_init_curve
	.thumb_func
ecc_init_curve:
.Lfunc_begin22:
	.loc	3 882 0 is_stmt 1       @ C:/Keil_v5/ARM/PACK/Nuvoton/NuMicro_M2351_BSP/1.0.0/Device/M2351/StdDriver/src/crypto.c:882:0
	.fnstart
	.cfi_startproc
@ %bb.0:
	.save	{r4, r5, r6, lr}
	push	{r4, r5, r6, lr}
	.cfi_def_cfa_offset 16
	.cfi_offset lr, -4
	.cfi_offset r6, -8
	.cfi_offset r5, -12
	.cfi_offset r4, -16
	.pad	#32
	sub	sp, #32
	.cfi_def_cfa_offset 48
	mov	r2, r1
	mov	r3, r0
	str	r0, [sp, #28]
	str	r1, [sp, #24]
	movs	r0, #0
.Ltmp173:
	.loc	3 883 17 prologue_end   @ C:/Keil_v5/ARM/PACK/Nuvoton/NuMicro_M2351_BSP/1.0.0/Device/M2351/StdDriver/src/crypto.c:883:17
	str	r0, [sp, #16]
	.loc	3 885 24                @ C:/Keil_v5/ARM/PACK/Nuvoton/NuMicro_M2351_BSP/1.0.0/Device/M2351/StdDriver/src/crypto.c:885:24
	ldr	r0, [sp, #24]
	.loc	3 885 14 is_stmt 0      @ C:/Keil_v5/ARM/PACK/Nuvoton/NuMicro_M2351_BSP/1.0.0/Device/M2351/StdDriver/src/crypto.c:885:14
	str	r2, [sp, #12]           @ 4-byte Spill
	str	r3, [sp, #8]            @ 4-byte Spill
	bl	get_curve
	.loc	3 885 12                @ C:/Keil_v5/ARM/PACK/Nuvoton/NuMicro_M2351_BSP/1.0.0/Device/M2351/StdDriver/src/crypto.c:885:12
	ldr	r1, __arm_cp.22_0
	str	r0, [r1]
.Ltmp174:
	.loc	3 886 8 is_stmt 1       @ C:/Keil_v5/ARM/PACK/Nuvoton/NuMicro_M2351_BSP/1.0.0/Device/M2351/StdDriver/src/crypto.c:886:8
	ldr	r0, [r1]
.Ltmp175:
	.loc	3 886 8 is_stmt 0       @ C:/Keil_v5/ARM/PACK/Nuvoton/NuMicro_M2351_BSP/1.0.0/Device/M2351/StdDriver/src/crypto.c:886:8
	cmp	r0, #0
	bne	.LBB22_4
	b	.LBB22_1
.LBB22_1:
.Ltmp176:
	.loc	3 888 9 is_stmt 1       @ C:/Keil_v5/ARM/PACK/Nuvoton/NuMicro_M2351_BSP/1.0.0/Device/M2351/StdDriver/src/crypto.c:888:9
	b	.LBB22_2
.LBB22_2:
.Ltmp177:
	.loc	3 888 9 is_stmt 0       @ C:/Keil_v5/ARM/PACK/Nuvoton/NuMicro_M2351_BSP/1.0.0/Device/M2351/StdDriver/src/crypto.c:888:9
	b	.LBB22_3
.Ltmp178:
.LBB22_3:
	.loc	3 889 13 is_stmt 1      @ C:/Keil_v5/ARM/PACK/Nuvoton/NuMicro_M2351_BSP/1.0.0/Device/M2351/StdDriver/src/crypto.c:889:13
	movs	r0, #0
	mvns	r0, r0
	str	r0, [sp, #16]
	.loc	3 890 5                 @ C:/Keil_v5/ARM/PACK/Nuvoton/NuMicro_M2351_BSP/1.0.0/Device/M2351/StdDriver/src/crypto.c:890:5
	b	.LBB22_4
.Ltmp179:
.LBB22_4:
	.loc	3 892 8                 @ C:/Keil_v5/ARM/PACK/Nuvoton/NuMicro_M2351_BSP/1.0.0/Device/M2351/StdDriver/src/crypto.c:892:8
	ldr	r0, [sp, #16]
.Ltmp180:
	.loc	3 892 8 is_stmt 0       @ C:/Keil_v5/ARM/PACK/Nuvoton/NuMicro_M2351_BSP/1.0.0/Device/M2351/StdDriver/src/crypto.c:892:8
	cmp	r0, #0
	beq	.LBB22_5
	b	.LBB22_15
.LBB22_5:
.Ltmp181:
	.loc	3 894 15 is_stmt 1      @ C:/Keil_v5/ARM/PACK/Nuvoton/NuMicro_M2351_BSP/1.0.0/Device/M2351/StdDriver/src/crypto.c:894:15
	movs	r0, #0
	str	r0, [sp, #20]
	.loc	3 894 13 is_stmt 0      @ C:/Keil_v5/ARM/PACK/Nuvoton/NuMicro_M2351_BSP/1.0.0/Device/M2351/StdDriver/src/crypto.c:894:13
	b	.LBB22_6
.LBB22_6:                               @ =>This Inner Loop Header: Depth=1
.Ltmp182:
	.loc	3 894 20                @ C:/Keil_v5/ARM/PACK/Nuvoton/NuMicro_M2351_BSP/1.0.0/Device/M2351/StdDriver/src/crypto.c:894:20
	ldr	r0, [sp, #20]
.Ltmp183:
	.loc	3 894 9                 @ C:/Keil_v5/ARM/PACK/Nuvoton/NuMicro_M2351_BSP/1.0.0/Device/M2351/StdDriver/src/crypto.c:894:9
	cmp	r0, #17
	bgt	.LBB22_9
	b	.LBB22_7
.LBB22_7:                               @   in Loop: Header=BB22_6 Depth=1
.Ltmp184:
	.loc	3 896 13 is_stmt 1      @ C:/Keil_v5/ARM/PACK/Nuvoton/NuMicro_M2351_BSP/1.0.0/Device/M2351/StdDriver/src/crypto.c:896:13
	ldr	r0, [sp, #28]
	.loc	3 896 25 is_stmt 0      @ C:/Keil_v5/ARM/PACK/Nuvoton/NuMicro_M2351_BSP/1.0.0/Device/M2351/StdDriver/src/crypto.c:896:25
	ldr	r1, [sp, #20]
	.loc	3 896 13                @ C:/Keil_v5/ARM/PACK/Nuvoton/NuMicro_M2351_BSP/1.0.0/Device/M2351/StdDriver/src/crypto.c:896:13
	lsls	r1, r1, #2
	.loc	3 896 19                @ C:/Keil_v5/ARM/PACK/Nuvoton/NuMicro_M2351_BSP/1.0.0/Device/M2351/StdDriver/src/crypto.c:896:19
	adds	r0, r0, r1
	ldr	r1, __arm_cp.22_1
	movs	r2, #0
	.loc	3 896 28                @ C:/Keil_v5/ARM/PACK/Nuvoton/NuMicro_M2351_BSP/1.0.0/Device/M2351/StdDriver/src/crypto.c:896:28
	str	r2, [r0, r1]
	.loc	3 897 13 is_stmt 1      @ C:/Keil_v5/ARM/PACK/Nuvoton/NuMicro_M2351_BSP/1.0.0/Device/M2351/StdDriver/src/crypto.c:897:13
	ldr	r0, [sp, #28]
	.loc	3 897 25 is_stmt 0      @ C:/Keil_v5/ARM/PACK/Nuvoton/NuMicro_M2351_BSP/1.0.0/Device/M2351/StdDriver/src/crypto.c:897:25
	ldr	r1, [sp, #20]
	.loc	3 897 13                @ C:/Keil_v5/ARM/PACK/Nuvoton/NuMicro_M2351_BSP/1.0.0/Device/M2351/StdDriver/src/crypto.c:897:13
	lsls	r1, r1, #2
	.loc	3 897 19                @ C:/Keil_v5/ARM/PACK/Nuvoton/NuMicro_M2351_BSP/1.0.0/Device/M2351/StdDriver/src/crypto.c:897:19
	adds	r0, r0, r1
	movw	r1, #2416
	.loc	3 897 28                @ C:/Keil_v5/ARM/PACK/Nuvoton/NuMicro_M2351_BSP/1.0.0/Device/M2351/StdDriver/src/crypto.c:897:28
	str	r2, [r0, r1]
	.loc	3 898 13 is_stmt 1      @ C:/Keil_v5/ARM/PACK/Nuvoton/NuMicro_M2351_BSP/1.0.0/Device/M2351/StdDriver/src/crypto.c:898:13
	ldr	r0, [sp, #28]
	.loc	3 898 26 is_stmt 0      @ C:/Keil_v5/ARM/PACK/Nuvoton/NuMicro_M2351_BSP/1.0.0/Device/M2351/StdDriver/src/crypto.c:898:26
	ldr	r1, [sp, #20]
	.loc	3 898 13                @ C:/Keil_v5/ARM/PACK/Nuvoton/NuMicro_M2351_BSP/1.0.0/Device/M2351/StdDriver/src/crypto.c:898:13
	lsls	r1, r1, #2
	.loc	3 898 19                @ C:/Keil_v5/ARM/PACK/Nuvoton/NuMicro_M2351_BSP/1.0.0/Device/M2351/StdDriver/src/crypto.c:898:19
	adds	r0, r0, r1
	ldr	r1, __arm_cp.22_2
	.loc	3 898 29                @ C:/Keil_v5/ARM/PACK/Nuvoton/NuMicro_M2351_BSP/1.0.0/Device/M2351/StdDriver/src/crypto.c:898:29
	str	r2, [r0, r1]
	.loc	3 899 13 is_stmt 1      @ C:/Keil_v5/ARM/PACK/Nuvoton/NuMicro_M2351_BSP/1.0.0/Device/M2351/StdDriver/src/crypto.c:899:13
	ldr	r0, [sp, #28]
	.loc	3 899 26 is_stmt 0      @ C:/Keil_v5/ARM/PACK/Nuvoton/NuMicro_M2351_BSP/1.0.0/Device/M2351/StdDriver/src/crypto.c:899:26
	ldr	r1, [sp, #20]
	.loc	3 899 13                @ C:/Keil_v5/ARM/PACK/Nuvoton/NuMicro_M2351_BSP/1.0.0/Device/M2351/StdDriver/src/crypto.c:899:13
	lsls	r1, r1, #2
	.loc	3 899 19                @ C:/Keil_v5/ARM/PACK/Nuvoton/NuMicro_M2351_BSP/1.0.0/Device/M2351/StdDriver/src/crypto.c:899:19
	adds	r0, r0, r1
	movw	r1, #2128
	.loc	3 899 29                @ C:/Keil_v5/ARM/PACK/Nuvoton/NuMicro_M2351_BSP/1.0.0/Device/M2351/StdDriver/src/crypto.c:899:29
	str	r2, [r0, r1]
	.loc	3 900 13 is_stmt 1      @ C:/Keil_v5/ARM/PACK/Nuvoton/NuMicro_M2351_BSP/1.0.0/Device/M2351/StdDriver/src/crypto.c:900:13
	ldr	r0, [sp, #28]
	.loc	3 900 25 is_stmt 0      @ C:/Keil_v5/ARM/PACK/Nuvoton/NuMicro_M2351_BSP/1.0.0/Device/M2351/StdDriver/src/crypto.c:900:25
	ldr	r1, [sp, #20]
	.loc	3 900 13                @ C:/Keil_v5/ARM/PACK/Nuvoton/NuMicro_M2351_BSP/1.0.0/Device/M2351/StdDriver/src/crypto.c:900:13
	lsls	r1, r1, #2
	.loc	3 900 19                @ C:/Keil_v5/ARM/PACK/Nuvoton/NuMicro_M2351_BSP/1.0.0/Device/M2351/StdDriver/src/crypto.c:900:19
	adds	r0, r0, r1
	ldr	r1, __arm_cp.22_7
	.loc	3 900 28                @ C:/Keil_v5/ARM/PACK/Nuvoton/NuMicro_M2351_BSP/1.0.0/Device/M2351/StdDriver/src/crypto.c:900:28
	str	r2, [r0, r1]
	.loc	3 901 9 is_stmt 1       @ C:/Keil_v5/ARM/PACK/Nuvoton/NuMicro_M2351_BSP/1.0.0/Device/M2351/StdDriver/src/crypto.c:901:9
	b	.LBB22_8
.Ltmp185:
.LBB22_8:                               @   in Loop: Header=BB22_6 Depth=1
	.loc	3 894 29                @ C:/Keil_v5/ARM/PACK/Nuvoton/NuMicro_M2351_BSP/1.0.0/Device/M2351/StdDriver/src/crypto.c:894:29
	ldr	r0, [sp, #20]
	adds	r0, r0, #1
	str	r0, [sp, #20]
	.loc	3 894 9 is_stmt 0       @ C:/Keil_v5/ARM/PACK/Nuvoton/NuMicro_M2351_BSP/1.0.0/Device/M2351/StdDriver/src/crypto.c:894:9
	b	.LBB22_6
.Ltmp186:
.LBB22_9:
	.loc	3 903 17 is_stmt 1      @ C:/Keil_v5/ARM/PACK/Nuvoton/NuMicro_M2351_BSP/1.0.0/Device/M2351/StdDriver/src/crypto.c:903:17
	ldr	r0, __arm_cp.22_0
	ldr	r1, [r0]
	.loc	3 903 25 is_stmt 0      @ C:/Keil_v5/ARM/PACK/Nuvoton/NuMicro_M2351_BSP/1.0.0/Device/M2351/StdDriver/src/crypto.c:903:25
	adds	r1, #8
	.loc	3 903 29                @ C:/Keil_v5/ARM/PACK/Nuvoton/NuMicro_M2351_BSP/1.0.0/Device/M2351/StdDriver/src/crypto.c:903:29
	ldr	r2, [sp, #28]
	.loc	3 903 35                @ C:/Keil_v5/ARM/PACK/Nuvoton/NuMicro_M2351_BSP/1.0.0/Device/M2351/StdDriver/src/crypto.c:903:35
	ldr	r3, __arm_cp.22_1
	adds	r2, r2, r3
	.loc	3 903 9                 @ C:/Keil_v5/ARM/PACK/Nuvoton/NuMicro_M2351_BSP/1.0.0/Device/M2351/StdDriver/src/crypto.c:903:9
	str	r0, [sp, #4]            @ 4-byte Spill
	mov	r0, r1
	mov	r1, r2
	bl	Hex2Reg
	.loc	3 904 17 is_stmt 1      @ C:/Keil_v5/ARM/PACK/Nuvoton/NuMicro_M2351_BSP/1.0.0/Device/M2351/StdDriver/src/crypto.c:904:17
	ldr	r0, [sp, #4]            @ 4-byte Reload
	ldr	r1, [r0]
	.loc	3 904 25 is_stmt 0      @ C:/Keil_v5/ARM/PACK/Nuvoton/NuMicro_M2351_BSP/1.0.0/Device/M2351/StdDriver/src/crypto.c:904:25
	adds	r1, #152
	.loc	3 904 29                @ C:/Keil_v5/ARM/PACK/Nuvoton/NuMicro_M2351_BSP/1.0.0/Device/M2351/StdDriver/src/crypto.c:904:29
	ldr	r2, [sp, #28]
	.loc	3 904 35                @ C:/Keil_v5/ARM/PACK/Nuvoton/NuMicro_M2351_BSP/1.0.0/Device/M2351/StdDriver/src/crypto.c:904:35
	movw	r3, #2416
	adds	r2, r2, r3
	.loc	3 904 9                 @ C:/Keil_v5/ARM/PACK/Nuvoton/NuMicro_M2351_BSP/1.0.0/Device/M2351/StdDriver/src/crypto.c:904:9
	mov	r0, r1
	mov	r1, r2
	bl	Hex2Reg
	.loc	3 905 17 is_stmt 1      @ C:/Keil_v5/ARM/PACK/Nuvoton/NuMicro_M2351_BSP/1.0.0/Device/M2351/StdDriver/src/crypto.c:905:17
	ldr	r0, [sp, #4]            @ 4-byte Reload
	ldr	r1, [r0]
	.loc	3 905 25 is_stmt 0      @ C:/Keil_v5/ARM/PACK/Nuvoton/NuMicro_M2351_BSP/1.0.0/Device/M2351/StdDriver/src/crypto.c:905:25
	movw	r2, #296
	adds	r0, r1, r2
	.loc	3 905 29                @ C:/Keil_v5/ARM/PACK/Nuvoton/NuMicro_M2351_BSP/1.0.0/Device/M2351/StdDriver/src/crypto.c:905:29
	ldr	r1, [sp, #28]
	.loc	3 905 35                @ C:/Keil_v5/ARM/PACK/Nuvoton/NuMicro_M2351_BSP/1.0.0/Device/M2351/StdDriver/src/crypto.c:905:35
	ldr	r2, __arm_cp.22_2
	adds	r1, r1, r2
	.loc	3 905 9                 @ C:/Keil_v5/ARM/PACK/Nuvoton/NuMicro_M2351_BSP/1.0.0/Device/M2351/StdDriver/src/crypto.c:905:9
	bl	Hex2Reg
	.loc	3 906 17 is_stmt 1      @ C:/Keil_v5/ARM/PACK/Nuvoton/NuMicro_M2351_BSP/1.0.0/Device/M2351/StdDriver/src/crypto.c:906:17
	ldr	r0, [sp, #4]            @ 4-byte Reload
	ldr	r1, [r0]
	.loc	3 906 25 is_stmt 0      @ C:/Keil_v5/ARM/PACK/Nuvoton/NuMicro_M2351_BSP/1.0.0/Device/M2351/StdDriver/src/crypto.c:906:25
	movw	r2, #440
	adds	r0, r1, r2
	.loc	3 906 29                @ C:/Keil_v5/ARM/PACK/Nuvoton/NuMicro_M2351_BSP/1.0.0/Device/M2351/StdDriver/src/crypto.c:906:29
	ldr	r1, [sp, #28]
	.loc	3 906 35                @ C:/Keil_v5/ARM/PACK/Nuvoton/NuMicro_M2351_BSP/1.0.0/Device/M2351/StdDriver/src/crypto.c:906:35
	movw	r2, #2128
	adds	r1, r1, r2
	.loc	3 906 9                 @ C:/Keil_v5/ARM/PACK/Nuvoton/NuMicro_M2351_BSP/1.0.0/Device/M2351/StdDriver/src/crypto.c:906:9
	bl	Hex2Reg
	.loc	3 908 9 is_stmt 1       @ C:/Keil_v5/ARM/PACK/Nuvoton/NuMicro_M2351_BSP/1.0.0/Device/M2351/StdDriver/src/crypto.c:908:9
	b	.LBB22_10
.LBB22_10:
.Ltmp187:
	.loc	3 908 9 is_stmt 0       @ C:/Keil_v5/ARM/PACK/Nuvoton/NuMicro_M2351_BSP/1.0.0/Device/M2351/StdDriver/src/crypto.c:908:9
	b	.LBB22_11
.Ltmp188:
.LBB22_11:
	.loc	3 909 42 is_stmt 1      @ C:/Keil_v5/ARM/PACK/Nuvoton/NuMicro_M2351_BSP/1.0.0/Device/M2351/StdDriver/src/crypto.c:909:42
	ldr	r0, [sp, #28]
	.loc	3 909 48 is_stmt 0      @ C:/Keil_v5/ARM/PACK/Nuvoton/NuMicro_M2351_BSP/1.0.0/Device/M2351/StdDriver/src/crypto.c:909:48
	ldr	r1, __arm_cp.22_1
	adds	r1, r0, r1
	.loc	3 909 9                 @ C:/Keil_v5/ARM/PACK/Nuvoton/NuMicro_M2351_BSP/1.0.0/Device/M2351/StdDriver/src/crypto.c:909:9
	ldr	r0, __arm_cp.22_3
	movs	r2, #10
	str	r2, [sp]                @ 4-byte Spill
	bl	dump_ecc_reg
	.loc	3 910 42 is_stmt 1      @ C:/Keil_v5/ARM/PACK/Nuvoton/NuMicro_M2351_BSP/1.0.0/Device/M2351/StdDriver/src/crypto.c:910:42
	ldr	r0, [sp, #28]
	.loc	3 910 48 is_stmt 0      @ C:/Keil_v5/ARM/PACK/Nuvoton/NuMicro_M2351_BSP/1.0.0/Device/M2351/StdDriver/src/crypto.c:910:48
	movw	r1, #2416
	adds	r1, r0, r1
	.loc	3 910 9                 @ C:/Keil_v5/ARM/PACK/Nuvoton/NuMicro_M2351_BSP/1.0.0/Device/M2351/StdDriver/src/crypto.c:910:9
	ldr	r0, __arm_cp.22_4
	ldr	r2, [sp]                @ 4-byte Reload
	bl	dump_ecc_reg
	.loc	3 911 43 is_stmt 1      @ C:/Keil_v5/ARM/PACK/Nuvoton/NuMicro_M2351_BSP/1.0.0/Device/M2351/StdDriver/src/crypto.c:911:43
	ldr	r0, [sp, #28]
	.loc	3 911 49 is_stmt 0      @ C:/Keil_v5/ARM/PACK/Nuvoton/NuMicro_M2351_BSP/1.0.0/Device/M2351/StdDriver/src/crypto.c:911:49
	ldr	r1, __arm_cp.22_2
	adds	r1, r0, r1
	.loc	3 911 9                 @ C:/Keil_v5/ARM/PACK/Nuvoton/NuMicro_M2351_BSP/1.0.0/Device/M2351/StdDriver/src/crypto.c:911:9
	ldr	r0, __arm_cp.22_5
	ldr	r2, [sp]                @ 4-byte Reload
	bl	dump_ecc_reg
	.loc	3 912 43 is_stmt 1      @ C:/Keil_v5/ARM/PACK/Nuvoton/NuMicro_M2351_BSP/1.0.0/Device/M2351/StdDriver/src/crypto.c:912:43
	ldr	r0, [sp, #28]
	.loc	3 912 49 is_stmt 0      @ C:/Keil_v5/ARM/PACK/Nuvoton/NuMicro_M2351_BSP/1.0.0/Device/M2351/StdDriver/src/crypto.c:912:49
	movw	r1, #2128
	adds	r1, r0, r1
	.loc	3 912 9                 @ C:/Keil_v5/ARM/PACK/Nuvoton/NuMicro_M2351_BSP/1.0.0/Device/M2351/StdDriver/src/crypto.c:912:9
	ldr	r0, __arm_cp.22_6
	ldr	r2, [sp]                @ 4-byte Reload
	bl	dump_ecc_reg
.Ltmp189:
	.loc	3 914 12 is_stmt 1      @ C:/Keil_v5/ARM/PACK/Nuvoton/NuMicro_M2351_BSP/1.0.0/Device/M2351/StdDriver/src/crypto.c:914:12
	ldr	r0, __arm_cp.22_0
	ldr	r0, [r0]
	.loc	3 914 20 is_stmt 0      @ C:/Keil_v5/ARM/PACK/Nuvoton/NuMicro_M2351_BSP/1.0.0/Device/M2351/StdDriver/src/crypto.c:914:20
	movw	r1, #960
	ldr	r0, [r0, r1]
.Ltmp190:
	.loc	3 914 12                @ C:/Keil_v5/ARM/PACK/Nuvoton/NuMicro_M2351_BSP/1.0.0/Device/M2351/StdDriver/src/crypto.c:914:12
	cmp	r0, #1
	bne	.LBB22_13
	b	.LBB22_12
.LBB22_12:
.Ltmp191:
	.loc	3 916 13 is_stmt 1      @ C:/Keil_v5/ARM/PACK/Nuvoton/NuMicro_M2351_BSP/1.0.0/Device/M2351/StdDriver/src/crypto.c:916:13
	ldr	r0, [sp, #28]
	ldr	r1, __arm_cp.22_7
	.loc	3 916 28 is_stmt 0      @ C:/Keil_v5/ARM/PACK/Nuvoton/NuMicro_M2351_BSP/1.0.0/Device/M2351/StdDriver/src/crypto.c:916:28
	movs	r2, #1
	str	r2, [r0, r1]
	.loc	3 917 62 is_stmt 1      @ C:/Keil_v5/ARM/PACK/Nuvoton/NuMicro_M2351_BSP/1.0.0/Device/M2351/StdDriver/src/crypto.c:917:62
	ldr	r0, __arm_cp.22_0
	ldr	r3, [r0]
	movw	r4, #944
	.loc	3 917 70 is_stmt 0      @ C:/Keil_v5/ARM/PACK/Nuvoton/NuMicro_M2351_BSP/1.0.0/Device/M2351/StdDriver/src/crypto.c:917:70
	ldr	r3, [r3, r4]
	.loc	3 917 79                @ C:/Keil_v5/ARM/PACK/Nuvoton/NuMicro_M2351_BSP/1.0.0/Device/M2351/StdDriver/src/crypto.c:917:79
	asrs	r4, r3, #31
	lsrs	r4, r4, #27
	adds	r4, r3, r4
	movs	r5, #31
	mvns	r5, r5
	mov	r6, r4
	ands	r6, r5
	subs	r3, r3, r6
	.loc	3 917 57                @ C:/Keil_v5/ARM/PACK/Nuvoton/NuMicro_M2351_BSP/1.0.0/Device/M2351/StdDriver/src/crypto.c:917:57
	mov	r6, r2
	lsls	r6, r3
	.loc	3 917 13                @ C:/Keil_v5/ARM/PACK/Nuvoton/NuMicro_M2351_BSP/1.0.0/Device/M2351/StdDriver/src/crypto.c:917:13
	ldr	r3, [sp, #28]
	.loc	3 917 79                @ C:/Keil_v5/ARM/PACK/Nuvoton/NuMicro_M2351_BSP/1.0.0/Device/M2351/StdDriver/src/crypto.c:917:79
	asrs	r4, r4, #5
	.loc	3 917 13                @ C:/Keil_v5/ARM/PACK/Nuvoton/NuMicro_M2351_BSP/1.0.0/Device/M2351/StdDriver/src/crypto.c:917:13
	lsls	r4, r4, #2
	.loc	3 917 19                @ C:/Keil_v5/ARM/PACK/Nuvoton/NuMicro_M2351_BSP/1.0.0/Device/M2351/StdDriver/src/crypto.c:917:19
	adds	r3, r3, r4
	.loc	3 917 49                @ C:/Keil_v5/ARM/PACK/Nuvoton/NuMicro_M2351_BSP/1.0.0/Device/M2351/StdDriver/src/crypto.c:917:49
	ldr	r4, [r3, r1]
	orrs	r4, r6
	str	r4, [r3, r1]
	.loc	3 918 69 is_stmt 1      @ C:/Keil_v5/ARM/PACK/Nuvoton/NuMicro_M2351_BSP/1.0.0/Device/M2351/StdDriver/src/crypto.c:918:69
	ldr	r3, [r0]
	movw	r4, #948
	.loc	3 918 77 is_stmt 0      @ C:/Keil_v5/ARM/PACK/Nuvoton/NuMicro_M2351_BSP/1.0.0/Device/M2351/StdDriver/src/crypto.c:918:77
	ldr	r3, [r3, r4]
	.loc	3 918 93                @ C:/Keil_v5/ARM/PACK/Nuvoton/NuMicro_M2351_BSP/1.0.0/Device/M2351/StdDriver/src/crypto.c:918:93
	asrs	r4, r3, #31
	lsrs	r4, r4, #27
	adds	r4, r3, r4
	mov	r6, r4
	ands	r6, r5
	subs	r3, r3, r6
	.loc	3 918 64                @ C:/Keil_v5/ARM/PACK/Nuvoton/NuMicro_M2351_BSP/1.0.0/Device/M2351/StdDriver/src/crypto.c:918:64
	mov	r6, r2
	lsls	r6, r3
	.loc	3 918 13                @ C:/Keil_v5/ARM/PACK/Nuvoton/NuMicro_M2351_BSP/1.0.0/Device/M2351/StdDriver/src/crypto.c:918:13
	ldr	r3, [sp, #28]
	.loc	3 918 93                @ C:/Keil_v5/ARM/PACK/Nuvoton/NuMicro_M2351_BSP/1.0.0/Device/M2351/StdDriver/src/crypto.c:918:93
	asrs	r4, r4, #5
	.loc	3 918 13                @ C:/Keil_v5/ARM/PACK/Nuvoton/NuMicro_M2351_BSP/1.0.0/Device/M2351/StdDriver/src/crypto.c:918:13
	lsls	r4, r4, #2
	.loc	3 918 19                @ C:/Keil_v5/ARM/PACK/Nuvoton/NuMicro_M2351_BSP/1.0.0/Device/M2351/StdDriver/src/crypto.c:918:19
	adds	r3, r3, r4
	.loc	3 918 56                @ C:/Keil_v5/ARM/PACK/Nuvoton/NuMicro_M2351_BSP/1.0.0/Device/M2351/StdDriver/src/crypto.c:918:56
	ldr	r4, [r3, r1]
	orrs	r4, r6
	str	r4, [r3, r1]
	.loc	3 919 69 is_stmt 1      @ C:/Keil_v5/ARM/PACK/Nuvoton/NuMicro_M2351_BSP/1.0.0/Device/M2351/StdDriver/src/crypto.c:919:69
	ldr	r3, [r0]
	movw	r4, #952
	.loc	3 919 77 is_stmt 0      @ C:/Keil_v5/ARM/PACK/Nuvoton/NuMicro_M2351_BSP/1.0.0/Device/M2351/StdDriver/src/crypto.c:919:77
	ldr	r3, [r3, r4]
	.loc	3 919 93                @ C:/Keil_v5/ARM/PACK/Nuvoton/NuMicro_M2351_BSP/1.0.0/Device/M2351/StdDriver/src/crypto.c:919:93
	asrs	r4, r3, #31
	lsrs	r4, r4, #27
	adds	r4, r3, r4
	mov	r6, r4
	ands	r6, r5
	subs	r3, r3, r6
	.loc	3 919 64                @ C:/Keil_v5/ARM/PACK/Nuvoton/NuMicro_M2351_BSP/1.0.0/Device/M2351/StdDriver/src/crypto.c:919:64
	mov	r6, r2
	lsls	r6, r3
	.loc	3 919 13                @ C:/Keil_v5/ARM/PACK/Nuvoton/NuMicro_M2351_BSP/1.0.0/Device/M2351/StdDriver/src/crypto.c:919:13
	ldr	r3, [sp, #28]
	.loc	3 919 93                @ C:/Keil_v5/ARM/PACK/Nuvoton/NuMicro_M2351_BSP/1.0.0/Device/M2351/StdDriver/src/crypto.c:919:93
	asrs	r4, r4, #5
	.loc	3 919 13                @ C:/Keil_v5/ARM/PACK/Nuvoton/NuMicro_M2351_BSP/1.0.0/Device/M2351/StdDriver/src/crypto.c:919:13
	lsls	r4, r4, #2
	.loc	3 919 19                @ C:/Keil_v5/ARM/PACK/Nuvoton/NuMicro_M2351_BSP/1.0.0/Device/M2351/StdDriver/src/crypto.c:919:19
	adds	r3, r3, r4
	.loc	3 919 56                @ C:/Keil_v5/ARM/PACK/Nuvoton/NuMicro_M2351_BSP/1.0.0/Device/M2351/StdDriver/src/crypto.c:919:56
	ldr	r4, [r3, r1]
	orrs	r4, r6
	str	r4, [r3, r1]
	.loc	3 920 69 is_stmt 1      @ C:/Keil_v5/ARM/PACK/Nuvoton/NuMicro_M2351_BSP/1.0.0/Device/M2351/StdDriver/src/crypto.c:920:69
	ldr	r0, [r0]
	movw	r3, #956
	.loc	3 920 77 is_stmt 0      @ C:/Keil_v5/ARM/PACK/Nuvoton/NuMicro_M2351_BSP/1.0.0/Device/M2351/StdDriver/src/crypto.c:920:77
	ldr	r0, [r0, r3]
	.loc	3 920 93                @ C:/Keil_v5/ARM/PACK/Nuvoton/NuMicro_M2351_BSP/1.0.0/Device/M2351/StdDriver/src/crypto.c:920:93
	asrs	r3, r0, #31
	lsrs	r3, r3, #27
	adds	r3, r0, r3
	mov	r4, r3
	ands	r4, r5
	subs	r0, r0, r4
	.loc	3 920 64                @ C:/Keil_v5/ARM/PACK/Nuvoton/NuMicro_M2351_BSP/1.0.0/Device/M2351/StdDriver/src/crypto.c:920:64
	lsls	r2, r0
	.loc	3 920 13                @ C:/Keil_v5/ARM/PACK/Nuvoton/NuMicro_M2351_BSP/1.0.0/Device/M2351/StdDriver/src/crypto.c:920:13
	ldr	r0, [sp, #28]
	.loc	3 920 93                @ C:/Keil_v5/ARM/PACK/Nuvoton/NuMicro_M2351_BSP/1.0.0/Device/M2351/StdDriver/src/crypto.c:920:93
	asrs	r3, r3, #5
	.loc	3 920 13                @ C:/Keil_v5/ARM/PACK/Nuvoton/NuMicro_M2351_BSP/1.0.0/Device/M2351/StdDriver/src/crypto.c:920:13
	lsls	r3, r3, #2
	.loc	3 920 19                @ C:/Keil_v5/ARM/PACK/Nuvoton/NuMicro_M2351_BSP/1.0.0/Device/M2351/StdDriver/src/crypto.c:920:19
	adds	r0, r0, r3
	.loc	3 920 56                @ C:/Keil_v5/ARM/PACK/Nuvoton/NuMicro_M2351_BSP/1.0.0/Device/M2351/StdDriver/src/crypto.c:920:56
	ldr	r3, [r0, r1]
	orrs	r3, r2
	str	r3, [r0, r1]
	.loc	3 921 9 is_stmt 1       @ C:/Keil_v5/ARM/PACK/Nuvoton/NuMicro_M2351_BSP/1.0.0/Device/M2351/StdDriver/src/crypto.c:921:9
	b	.LBB22_14
.Ltmp192:
.LBB22_13:
	.loc	3 924 21                @ C:/Keil_v5/ARM/PACK/Nuvoton/NuMicro_M2351_BSP/1.0.0/Device/M2351/StdDriver/src/crypto.c:924:21
	ldr	r0, __arm_cp.22_0
	ldr	r0, [r0]
	.loc	3 924 29 is_stmt 0      @ C:/Keil_v5/ARM/PACK/Nuvoton/NuMicro_M2351_BSP/1.0.0/Device/M2351/StdDriver/src/crypto.c:924:29
	movw	r1, #588
	adds	r0, r0, r1
	.loc	3 924 33                @ C:/Keil_v5/ARM/PACK/Nuvoton/NuMicro_M2351_BSP/1.0.0/Device/M2351/StdDriver/src/crypto.c:924:33
	ldr	r1, [sp, #28]
	.loc	3 924 39                @ C:/Keil_v5/ARM/PACK/Nuvoton/NuMicro_M2351_BSP/1.0.0/Device/M2351/StdDriver/src/crypto.c:924:39
	ldr	r2, __arm_cp.22_7
	adds	r1, r1, r2
	.loc	3 924 13                @ C:/Keil_v5/ARM/PACK/Nuvoton/NuMicro_M2351_BSP/1.0.0/Device/M2351/StdDriver/src/crypto.c:924:13
	bl	Hex2Reg
	b	.LBB22_14
.Ltmp193:
.LBB22_14:
	.loc	3 926 5 is_stmt 1       @ C:/Keil_v5/ARM/PACK/Nuvoton/NuMicro_M2351_BSP/1.0.0/Device/M2351/StdDriver/src/crypto.c:926:5
	b	.LBB22_15
.Ltmp194:
.LBB22_15:
	.loc	3 927 38                @ C:/Keil_v5/ARM/PACK/Nuvoton/NuMicro_M2351_BSP/1.0.0/Device/M2351/StdDriver/src/crypto.c:927:38
	ldr	r0, [sp, #28]
	.loc	3 927 44 is_stmt 0      @ C:/Keil_v5/ARM/PACK/Nuvoton/NuMicro_M2351_BSP/1.0.0/Device/M2351/StdDriver/src/crypto.c:927:44
	ldr	r1, __arm_cp.22_7
	adds	r1, r0, r1
	.loc	3 927 5                 @ C:/Keil_v5/ARM/PACK/Nuvoton/NuMicro_M2351_BSP/1.0.0/Device/M2351/StdDriver/src/crypto.c:927:5
	ldr	r0, __arm_cp.22_8
	movs	r2, #10
	bl	dump_ecc_reg
	.loc	3 928 12 is_stmt 1      @ C:/Keil_v5/ARM/PACK/Nuvoton/NuMicro_M2351_BSP/1.0.0/Device/M2351/StdDriver/src/crypto.c:928:12
	ldr	r0, [sp, #16]
	.loc	3 928 5 is_stmt 0       @ C:/Keil_v5/ARM/PACK/Nuvoton/NuMicro_M2351_BSP/1.0.0/Device/M2351/StdDriver/src/crypto.c:928:5
	add	sp, #32
	pop	{r4, r5, r6, pc}
.Ltmp195:
	.p2align	2
@ %bb.16:
	.loc	3 0 5                   @ C:/Keil_v5/ARM/PACK/Nuvoton/NuMicro_M2351_BSP/1.0.0/Device/M2351/StdDriver/src/crypto.c:0:5
__arm_cp.22_0:
	.long	pCurve
.Lcpi_end13:
	.size	__arm_cp.22_0, .Lcpi_end13-__arm_cp.22_0
__arm_cp.22_1:
	.long	2344                    @ 0x928
.Lcpi_end14:
	.size	__arm_cp.22_1, .Lcpi_end14-__arm_cp.22_1
__arm_cp.22_2:
	.long	2056                    @ 0x808
.Lcpi_end15:
	.size	__arm_cp.22_2, .Lcpi_end15-__arm_cp.22_2
__arm_cp.22_3:
	.long	.L.str
.Lcpi_end16:
	.size	__arm_cp.22_3, .Lcpi_end16-__arm_cp.22_3
__arm_cp.22_4:
	.long	.L.str.1
.Lcpi_end17:
	.size	__arm_cp.22_4, .Lcpi_end17-__arm_cp.22_4
__arm_cp.22_5:
	.long	.L.str.2
.Lcpi_end18:
	.size	__arm_cp.22_5, .Lcpi_end18-__arm_cp.22_5
__arm_cp.22_6:
	.long	.L.str.3
.Lcpi_end19:
	.size	__arm_cp.22_6, .Lcpi_end19-__arm_cp.22_6
__arm_cp.22_7:
	.long	2488                    @ 0x9b8
.Lcpi_end20:
	.size	__arm_cp.22_7, .Lcpi_end20-__arm_cp.22_7
__arm_cp.22_8:
	.long	.L.str.4
.Lcpi_end21:
	.size	__arm_cp.22_8, .Lcpi_end21-__arm_cp.22_8
.Lfunc_end22:
	.size	ecc_init_curve, .Lfunc_end22-ecc_init_curve
	.cfi_endproc
	.cantunwind
	.fnend
                                        @ -- End function
	.section	.text.Hex2Reg,"ax",%progbits
	.p2align	1               @ -- Begin function Hex2Reg
	.type	Hex2Reg,%function
	.code	16                      @ @Hex2Reg
	.thumb_func
Hex2Reg:
.Lfunc_begin23:
	.loc	3 799 0 is_stmt 1       @ C:/Keil_v5/ARM/PACK/Nuvoton/NuMicro_M2351_BSP/1.0.0/Device/M2351/StdDriver/src/crypto.c:799:0
	.fnstart
	.cfi_startproc
@ %bb.0:
	.save	{r7, lr}
	push	{r7, lr}
	.cfi_def_cfa_offset 8
	.cfi_offset lr, -4
	.cfi_offset r7, -8
	.pad	#48
	sub	sp, #48
	.cfi_def_cfa_offset 56
	mov	r2, r1
	mov	r3, r0
	str	r0, [sp, #44]
	str	r1, [sp, #40]
.Ltmp196:
	.loc	3 804 22 prologue_end   @ C:/Keil_v5/ARM/PACK/Nuvoton/NuMicro_M2351_BSP/1.0.0/Device/M2351/StdDriver/src/crypto.c:804:22
	ldr	r0, [sp, #44]
	.loc	3 804 15 is_stmt 0      @ C:/Keil_v5/ARM/PACK/Nuvoton/NuMicro_M2351_BSP/1.0.0/Device/M2351/StdDriver/src/crypto.c:804:15
	str	r2, [sp, #16]           @ 4-byte Spill
	str	r3, [sp, #12]           @ 4-byte Spill
	bl	strlen
	.loc	3 804 29                @ C:/Keil_v5/ARM/PACK/Nuvoton/NuMicro_M2351_BSP/1.0.0/Device/M2351/StdDriver/src/crypto.c:804:29
	subs	r0, r0, #1
	.loc	3 804 8                 @ C:/Keil_v5/ARM/PACK/Nuvoton/NuMicro_M2351_BSP/1.0.0/Device/M2351/StdDriver/src/crypto.c:804:8
	str	r0, [sp, #32]
	movs	r0, #0
	.loc	3 805 8 is_stmt 1       @ C:/Keil_v5/ARM/PACK/Nuvoton/NuMicro_M2351_BSP/1.0.0/Device/M2351/StdDriver/src/crypto.c:805:8
	str	r0, [sp, #28]
	.loc	3 807 5                 @ C:/Keil_v5/ARM/PACK/Nuvoton/NuMicro_M2351_BSP/1.0.0/Device/M2351/StdDriver/src/crypto.c:807:5
	b	.LBB23_1
.LBB23_1:                               @ =>This Loop Header: Depth=1
                                        @     Child Loop BB23_3 Depth 2
	.loc	3 807 11 is_stmt 0      @ C:/Keil_v5/ARM/PACK/Nuvoton/NuMicro_M2351_BSP/1.0.0/Device/M2351/StdDriver/src/crypto.c:807:11
	ldr	r0, [sp, #32]
	.loc	3 807 5                 @ C:/Keil_v5/ARM/PACK/Nuvoton/NuMicro_M2351_BSP/1.0.0/Device/M2351/StdDriver/src/crypto.c:807:5
	cmp	r0, #0
	blt	.LBB23_11
	b	.LBB23_2
.LBB23_2:                               @   in Loop: Header=BB23_1 Depth=1
	.loc	3 0 5                   @ C:/Keil_v5/ARM/PACK/Nuvoton/NuMicro_M2351_BSP/1.0.0/Device/M2351/StdDriver/src/crypto.c:0:5
	movs	r0, #0
.Ltmp197:
	.loc	3 809 15 is_stmt 1      @ C:/Keil_v5/ARM/PACK/Nuvoton/NuMicro_M2351_BSP/1.0.0/Device/M2351/StdDriver/src/crypto.c:809:15
	str	r0, [sp, #20]
.Ltmp198:
	.loc	3 810 15                @ C:/Keil_v5/ARM/PACK/Nuvoton/NuMicro_M2351_BSP/1.0.0/Device/M2351/StdDriver/src/crypto.c:810:15
	str	r0, [sp, #24]
	.loc	3 810 13 is_stmt 0      @ C:/Keil_v5/ARM/PACK/Nuvoton/NuMicro_M2351_BSP/1.0.0/Device/M2351/StdDriver/src/crypto.c:810:13
	b	.LBB23_3
.LBB23_3:                               @   Parent Loop BB23_1 Depth=1
                                        @ =>  This Inner Loop Header: Depth=2
.Ltmp199:
	.loc	3 810 23                @ C:/Keil_v5/ARM/PACK/Nuvoton/NuMicro_M2351_BSP/1.0.0/Device/M2351/StdDriver/src/crypto.c:810:23
	ldr	r0, [sp, #24]
	movs	r1, #0
	.loc	3 810 32                @ C:/Keil_v5/ARM/PACK/Nuvoton/NuMicro_M2351_BSP/1.0.0/Device/M2351/StdDriver/src/crypto.c:810:32
	cmp	r0, #7
	str	r1, [sp, #8]            @ 4-byte Spill
	bhi	.LBB23_7
	b	.LBB23_4
.LBB23_4:                               @   in Loop: Header=BB23_3 Depth=2
	.loc	3 810 36                @ C:/Keil_v5/ARM/PACK/Nuvoton/NuMicro_M2351_BSP/1.0.0/Device/M2351/StdDriver/src/crypto.c:810:36
	ldr	r0, [sp, #32]
	.loc	3 810 39                @ C:/Keil_v5/ARM/PACK/Nuvoton/NuMicro_M2351_BSP/1.0.0/Device/M2351/StdDriver/src/crypto.c:810:39
	movs	r1, #1
	movs	r2, #0
	cmp	r0, #0
	str	r2, [sp, #4]            @ 4-byte Spill
	str	r1, [sp]                @ 4-byte Spill
	bge	.LBB23_6
@ %bb.5:                                @   in Loop: Header=BB23_3 Depth=2
	ldr	r0, [sp, #4]            @ 4-byte Reload
	str	r0, [sp]                @ 4-byte Spill
.LBB23_6:                               @   in Loop: Header=BB23_3 Depth=2
	ldr	r0, [sp]                @ 4-byte Reload
	str	r0, [sp, #8]            @ 4-byte Spill
	b	.LBB23_7
.Ltmp200:
.LBB23_7:                               @   in Loop: Header=BB23_3 Depth=2
	.loc	3 0 39                  @ C:/Keil_v5/ARM/PACK/Nuvoton/NuMicro_M2351_BSP/1.0.0/Device/M2351/StdDriver/src/crypto.c:0:39
	ldr	r0, [sp, #8]            @ 4-byte Reload
	.loc	3 810 9                 @ C:/Keil_v5/ARM/PACK/Nuvoton/NuMicro_M2351_BSP/1.0.0/Device/M2351/StdDriver/src/crypto.c:810:9
	lsls	r0, r0, #31
	cmp	r0, #0
	beq	.LBB23_10
	b	.LBB23_8
.LBB23_8:                               @   in Loop: Header=BB23_3 Depth=2
.Ltmp201:
	.loc	3 812 26 is_stmt 1      @ C:/Keil_v5/ARM/PACK/Nuvoton/NuMicro_M2351_BSP/1.0.0/Device/M2351/StdDriver/src/crypto.c:812:26
	ldr	r0, [sp, #44]
	.loc	3 812 32 is_stmt 0      @ C:/Keil_v5/ARM/PACK/Nuvoton/NuMicro_M2351_BSP/1.0.0/Device/M2351/StdDriver/src/crypto.c:812:32
	ldr	r1, [sp, #32]
	.loc	3 812 19                @ C:/Keil_v5/ARM/PACK/Nuvoton/NuMicro_M2351_BSP/1.0.0/Device/M2351/StdDriver/src/crypto.c:812:19
	ldrb	r0, [r0, r1]
	bl	ch2hex
	add	r1, sp, #36
	.loc	3 812 17                @ C:/Keil_v5/ARM/PACK/Nuvoton/NuMicro_M2351_BSP/1.0.0/Device/M2351/StdDriver/src/crypto.c:812:17
	strb	r0, [r1]
	.loc	3 813 22 is_stmt 1      @ C:/Keil_v5/ARM/PACK/Nuvoton/NuMicro_M2351_BSP/1.0.0/Device/M2351/StdDriver/src/crypto.c:813:22
	ldrb	r0, [r1]
	.loc	3 813 40 is_stmt 0      @ C:/Keil_v5/ARM/PACK/Nuvoton/NuMicro_M2351_BSP/1.0.0/Device/M2351/StdDriver/src/crypto.c:813:40
	ldr	r1, [sp, #24]
	.loc	3 813 42                @ C:/Keil_v5/ARM/PACK/Nuvoton/NuMicro_M2351_BSP/1.0.0/Device/M2351/StdDriver/src/crypto.c:813:42
	lsls	r1, r1, #2
	.loc	3 813 36                @ C:/Keil_v5/ARM/PACK/Nuvoton/NuMicro_M2351_BSP/1.0.0/Device/M2351/StdDriver/src/crypto.c:813:36
	lsls	r0, r1
	.loc	3 813 19                @ C:/Keil_v5/ARM/PACK/Nuvoton/NuMicro_M2351_BSP/1.0.0/Device/M2351/StdDriver/src/crypto.c:813:19
	ldr	r1, [sp, #20]
	orrs	r1, r0
	str	r1, [sp, #20]
	.loc	3 814 15 is_stmt 1      @ C:/Keil_v5/ARM/PACK/Nuvoton/NuMicro_M2351_BSP/1.0.0/Device/M2351/StdDriver/src/crypto.c:814:15
	ldr	r0, [sp, #32]
	subs	r0, r0, #1
	str	r0, [sp, #32]
	.loc	3 815 9                 @ C:/Keil_v5/ARM/PACK/Nuvoton/NuMicro_M2351_BSP/1.0.0/Device/M2351/StdDriver/src/crypto.c:815:9
	b	.LBB23_9
.Ltmp202:
.LBB23_9:                               @   in Loop: Header=BB23_3 Depth=2
	.loc	3 810 47                @ C:/Keil_v5/ARM/PACK/Nuvoton/NuMicro_M2351_BSP/1.0.0/Device/M2351/StdDriver/src/crypto.c:810:47
	ldr	r0, [sp, #24]
	adds	r0, r0, #1
	str	r0, [sp, #24]
	.loc	3 810 9 is_stmt 0       @ C:/Keil_v5/ARM/PACK/Nuvoton/NuMicro_M2351_BSP/1.0.0/Device/M2351/StdDriver/src/crypto.c:810:9
	b	.LBB23_3
.Ltmp203:
.LBB23_10:                              @   in Loop: Header=BB23_1 Depth=1
	.loc	3 816 21 is_stmt 1      @ C:/Keil_v5/ARM/PACK/Nuvoton/NuMicro_M2351_BSP/1.0.0/Device/M2351/StdDriver/src/crypto.c:816:21
	ldr	r0, [sp, #20]
	.loc	3 816 9 is_stmt 0       @ C:/Keil_v5/ARM/PACK/Nuvoton/NuMicro_M2351_BSP/1.0.0/Device/M2351/StdDriver/src/crypto.c:816:9
	ldr	r1, [sp, #40]
	.loc	3 816 15                @ C:/Keil_v5/ARM/PACK/Nuvoton/NuMicro_M2351_BSP/1.0.0/Device/M2351/StdDriver/src/crypto.c:816:15
	ldr	r2, [sp, #28]
	adds	r3, r2, #1
	str	r3, [sp, #28]
	.loc	3 816 9                 @ C:/Keil_v5/ARM/PACK/Nuvoton/NuMicro_M2351_BSP/1.0.0/Device/M2351/StdDriver/src/crypto.c:816:9
	lsls	r2, r2, #2
	.loc	3 816 19                @ C:/Keil_v5/ARM/PACK/Nuvoton/NuMicro_M2351_BSP/1.0.0/Device/M2351/StdDriver/src/crypto.c:816:19
	str	r0, [r1, r2]
.Ltmp204:
	.loc	3 807 5 is_stmt 1       @ C:/Keil_v5/ARM/PACK/Nuvoton/NuMicro_M2351_BSP/1.0.0/Device/M2351/StdDriver/src/crypto.c:807:5
	b	.LBB23_1
.LBB23_11:
	.loc	3 818 1                 @ C:/Keil_v5/ARM/PACK/Nuvoton/NuMicro_M2351_BSP/1.0.0/Device/M2351/StdDriver/src/crypto.c:818:1
	add	sp, #48
	pop	{r7, pc}
.Ltmp205:
.Lfunc_end23:
	.size	Hex2Reg, .Lfunc_end23-Hex2Reg
	.cfi_endproc
	.cantunwind
	.fnend
                                        @ -- End function
	.section	.text.Reg2Hex,"ax",%progbits
	.p2align	1               @ -- Begin function Reg2Hex
	.type	Reg2Hex,%function
	.code	16                      @ @Reg2Hex
	.thumb_func
Reg2Hex:
.Lfunc_begin24:
	.loc	3 864 0                 @ C:/Keil_v5/ARM/PACK/Nuvoton/NuMicro_M2351_BSP/1.0.0/Device/M2351/StdDriver/src/crypto.c:864:0
	.fnstart
	.cfi_startproc
@ %bb.0:
	.save	{r4, r5, r7, lr}
	push	{r4, r5, r7, lr}
	.cfi_def_cfa_offset 16
	.cfi_offset lr, -4
	.cfi_offset r7, -8
	.cfi_offset r5, -12
	.cfi_offset r4, -16
	.pad	#48
	sub	sp, #48
	.cfi_def_cfa_offset 64
	mov	r3, r2
	mov	r4, r1
	mov	r5, r0
	str	r0, [sp, #44]
	str	r1, [sp, #40]
	str	r2, [sp, #36]
.Ltmp206:
	.loc	3 868 5 prologue_end    @ C:/Keil_v5/ARM/PACK/Nuvoton/NuMicro_M2351_BSP/1.0.0/Device/M2351/StdDriver/src/crypto.c:868:5
	ldr	r0, [sp, #36]
	.loc	3 868 12 is_stmt 0      @ C:/Keil_v5/ARM/PACK/Nuvoton/NuMicro_M2351_BSP/1.0.0/Device/M2351/StdDriver/src/crypto.c:868:12
	ldr	r1, [sp, #44]
	movs	r2, #0
	.loc	3 868 19                @ C:/Keil_v5/ARM/PACK/Nuvoton/NuMicro_M2351_BSP/1.0.0/Device/M2351/StdDriver/src/crypto.c:868:19
	strb	r2, [r0, r1]
	.loc	3 869 11 is_stmt 1      @ C:/Keil_v5/ARM/PACK/Nuvoton/NuMicro_M2351_BSP/1.0.0/Device/M2351/StdDriver/src/crypto.c:869:11
	ldr	r0, [sp, #44]
	.loc	3 869 17 is_stmt 0      @ C:/Keil_v5/ARM/PACK/Nuvoton/NuMicro_M2351_BSP/1.0.0/Device/M2351/StdDriver/src/crypto.c:869:17
	subs	r0, r0, #1
	.loc	3 869 9                 @ C:/Keil_v5/ARM/PACK/Nuvoton/NuMicro_M2351_BSP/1.0.0/Device/M2351/StdDriver/src/crypto.c:869:9
	str	r0, [sp, #32]
.Ltmp207:
	.loc	3 871 12 is_stmt 1      @ C:/Keil_v5/ARM/PACK/Nuvoton/NuMicro_M2351_BSP/1.0.0/Device/M2351/StdDriver/src/crypto.c:871:12
	str	r2, [sp, #28]
	.loc	3 871 9 is_stmt 0       @ C:/Keil_v5/ARM/PACK/Nuvoton/NuMicro_M2351_BSP/1.0.0/Device/M2351/StdDriver/src/crypto.c:871:9
	str	r3, [sp, #20]           @ 4-byte Spill
	str	r4, [sp, #16]           @ 4-byte Spill
	str	r5, [sp, #12]           @ 4-byte Spill
	b	.LBB24_1
.LBB24_1:                               @ =>This Loop Header: Depth=1
                                        @     Child Loop BB24_3 Depth 2
.Ltmp208:
	.loc	3 871 17                @ C:/Keil_v5/ARM/PACK/Nuvoton/NuMicro_M2351_BSP/1.0.0/Device/M2351/StdDriver/src/crypto.c:871:17
	ldr	r0, [sp, #32]
.Ltmp209:
	.loc	3 871 5                 @ C:/Keil_v5/ARM/PACK/Nuvoton/NuMicro_M2351_BSP/1.0.0/Device/M2351/StdDriver/src/crypto.c:871:5
	cmp	r0, #0
	blt	.LBB24_12
	b	.LBB24_2
.LBB24_2:                               @   in Loop: Header=BB24_1 Depth=1
.Ltmp210:
	.loc	3 873 15 is_stmt 1      @ C:/Keil_v5/ARM/PACK/Nuvoton/NuMicro_M2351_BSP/1.0.0/Device/M2351/StdDriver/src/crypto.c:873:15
	movs	r0, #0
	str	r0, [sp, #24]
	.loc	3 873 13 is_stmt 0      @ C:/Keil_v5/ARM/PACK/Nuvoton/NuMicro_M2351_BSP/1.0.0/Device/M2351/StdDriver/src/crypto.c:873:13
	b	.LBB24_3
.LBB24_3:                               @   Parent Loop BB24_1 Depth=1
                                        @ =>  This Inner Loop Header: Depth=2
.Ltmp211:
	.loc	3 873 23                @ C:/Keil_v5/ARM/PACK/Nuvoton/NuMicro_M2351_BSP/1.0.0/Device/M2351/StdDriver/src/crypto.c:873:23
	ldr	r0, [sp, #24]
	movs	r1, #0
	.loc	3 873 32                @ C:/Keil_v5/ARM/PACK/Nuvoton/NuMicro_M2351_BSP/1.0.0/Device/M2351/StdDriver/src/crypto.c:873:32
	cmp	r0, #7
	str	r1, [sp, #8]            @ 4-byte Spill
	bhi	.LBB24_7
	b	.LBB24_4
.LBB24_4:                               @   in Loop: Header=BB24_3 Depth=2
	.loc	3 873 36                @ C:/Keil_v5/ARM/PACK/Nuvoton/NuMicro_M2351_BSP/1.0.0/Device/M2351/StdDriver/src/crypto.c:873:36
	ldr	r0, [sp, #32]
	.loc	3 873 40                @ C:/Keil_v5/ARM/PACK/Nuvoton/NuMicro_M2351_BSP/1.0.0/Device/M2351/StdDriver/src/crypto.c:873:40
	movs	r1, #1
	movs	r2, #0
	cmp	r0, #0
	str	r2, [sp, #4]            @ 4-byte Spill
	str	r1, [sp]                @ 4-byte Spill
	bge	.LBB24_6
@ %bb.5:                                @   in Loop: Header=BB24_3 Depth=2
	ldr	r0, [sp, #4]            @ 4-byte Reload
	str	r0, [sp]                @ 4-byte Spill
.LBB24_6:                               @   in Loop: Header=BB24_3 Depth=2
	ldr	r0, [sp]                @ 4-byte Reload
	str	r0, [sp, #8]            @ 4-byte Spill
	b	.LBB24_7
.Ltmp212:
.LBB24_7:                               @   in Loop: Header=BB24_3 Depth=2
	.loc	3 0 40                  @ C:/Keil_v5/ARM/PACK/Nuvoton/NuMicro_M2351_BSP/1.0.0/Device/M2351/StdDriver/src/crypto.c:0:40
	ldr	r0, [sp, #8]            @ 4-byte Reload
	.loc	3 873 9                 @ C:/Keil_v5/ARM/PACK/Nuvoton/NuMicro_M2351_BSP/1.0.0/Device/M2351/StdDriver/src/crypto.c:873:9
	lsls	r0, r0, #31
	cmp	r0, #0
	beq	.LBB24_10
	b	.LBB24_8
.LBB24_8:                               @   in Loop: Header=BB24_3 Depth=2
.Ltmp213:
	.loc	3 875 47 is_stmt 1      @ C:/Keil_v5/ARM/PACK/Nuvoton/NuMicro_M2351_BSP/1.0.0/Device/M2351/StdDriver/src/crypto.c:875:47
	ldr	r0, [sp, #40]
	.loc	3 875 51 is_stmt 0      @ C:/Keil_v5/ARM/PACK/Nuvoton/NuMicro_M2351_BSP/1.0.0/Device/M2351/StdDriver/src/crypto.c:875:51
	ldr	r1, [sp, #28]
	.loc	3 875 47                @ C:/Keil_v5/ARM/PACK/Nuvoton/NuMicro_M2351_BSP/1.0.0/Device/M2351/StdDriver/src/crypto.c:875:47
	lsls	r1, r1, #2
	ldr	r0, [r0, r1]
	.loc	3 875 56                @ C:/Keil_v5/ARM/PACK/Nuvoton/NuMicro_M2351_BSP/1.0.0/Device/M2351/StdDriver/src/crypto.c:875:56
	ldr	r1, [sp, #24]
	.loc	3 875 27                @ C:/Keil_v5/ARM/PACK/Nuvoton/NuMicro_M2351_BSP/1.0.0/Device/M2351/StdDriver/src/crypto.c:875:27
	bl	get_Nth_nibble_char
	.loc	3 875 13                @ C:/Keil_v5/ARM/PACK/Nuvoton/NuMicro_M2351_BSP/1.0.0/Device/M2351/StdDriver/src/crypto.c:875:13
	ldr	r1, [sp, #36]
	.loc	3 875 20                @ C:/Keil_v5/ARM/PACK/Nuvoton/NuMicro_M2351_BSP/1.0.0/Device/M2351/StdDriver/src/crypto.c:875:20
	ldr	r2, [sp, #32]
	.loc	3 875 25                @ C:/Keil_v5/ARM/PACK/Nuvoton/NuMicro_M2351_BSP/1.0.0/Device/M2351/StdDriver/src/crypto.c:875:25
	strb	r0, [r1, r2]
	.loc	3 876 16 is_stmt 1      @ C:/Keil_v5/ARM/PACK/Nuvoton/NuMicro_M2351_BSP/1.0.0/Device/M2351/StdDriver/src/crypto.c:876:16
	ldr	r0, [sp, #32]
	subs	r0, r0, #1
	str	r0, [sp, #32]
	.loc	3 877 9                 @ C:/Keil_v5/ARM/PACK/Nuvoton/NuMicro_M2351_BSP/1.0.0/Device/M2351/StdDriver/src/crypto.c:877:9
	b	.LBB24_9
.Ltmp214:
.LBB24_9:                               @   in Loop: Header=BB24_3 Depth=2
	.loc	3 873 48                @ C:/Keil_v5/ARM/PACK/Nuvoton/NuMicro_M2351_BSP/1.0.0/Device/M2351/StdDriver/src/crypto.c:873:48
	ldr	r0, [sp, #24]
	adds	r0, r0, #1
	str	r0, [sp, #24]
	.loc	3 873 9 is_stmt 0       @ C:/Keil_v5/ARM/PACK/Nuvoton/NuMicro_M2351_BSP/1.0.0/Device/M2351/StdDriver/src/crypto.c:873:9
	b	.LBB24_3
.Ltmp215:
.LBB24_10:                              @   in Loop: Header=BB24_1 Depth=1
	.loc	3 878 5 is_stmt 1       @ C:/Keil_v5/ARM/PACK/Nuvoton/NuMicro_M2351_BSP/1.0.0/Device/M2351/StdDriver/src/crypto.c:878:5
	b	.LBB24_11
.Ltmp216:
.LBB24_11:                              @   in Loop: Header=BB24_1 Depth=1
	.loc	3 871 29                @ C:/Keil_v5/ARM/PACK/Nuvoton/NuMicro_M2351_BSP/1.0.0/Device/M2351/StdDriver/src/crypto.c:871:29
	ldr	r0, [sp, #28]
	adds	r0, r0, #1
	str	r0, [sp, #28]
	.loc	3 871 5 is_stmt 0       @ C:/Keil_v5/ARM/PACK/Nuvoton/NuMicro_M2351_BSP/1.0.0/Device/M2351/StdDriver/src/crypto.c:871:5
	b	.LBB24_1
.Ltmp217:
.LBB24_12:
	.loc	3 879 1 is_stmt 1       @ C:/Keil_v5/ARM/PACK/Nuvoton/NuMicro_M2351_BSP/1.0.0/Device/M2351/StdDriver/src/crypto.c:879:1
	add	sp, #48
	pop	{r4, r5, r7, pc}
.Ltmp218:
.Lfunc_end24:
	.size	Reg2Hex, .Lfunc_end24-Reg2Hex
	.cfi_endproc
	.cantunwind
	.fnend
                                        @ -- End function
	.section	.text.ECC_GenerateSecretZ,"ax",%progbits
	.hidden	ECC_GenerateSecretZ     @ -- Begin function ECC_GenerateSecretZ
	.globl	ECC_GenerateSecretZ
	.p2align	2
	.type	ECC_GenerateSecretZ,%function
	.code	16                      @ @ECC_GenerateSecretZ
	.thumb_func
ECC_GenerateSecretZ:
.Lfunc_begin25:
	.loc	3 1070 0                @ C:/Keil_v5/ARM/PACK/Nuvoton/NuMicro_M2351_BSP/1.0.0/Device/M2351/StdDriver/src/crypto.c:1070:0
	.fnstart
	.cfi_startproc
@ %bb.0:
	.save	{r4, r5, r6, r7, lr}
	push	{r4, r5, r6, r7, lr}
	.cfi_def_cfa_offset 20
	.cfi_offset lr, -4
	.cfi_offset r7, -8
	.cfi_offset r6, -12
	.cfi_offset r5, -16
	.cfi_offset r4, -20
	.pad	#60
	sub	sp, #60
	.cfi_def_cfa_offset 80
	ldr	r4, [sp, #84]
	ldr	r5, [sp, #80]
	mov	r6, r3
	mov	r7, r2
	str	r0, [sp, #28]           @ 4-byte Spill
	mov	r0, r1
	str	r0, [sp, #24]           @ 4-byte Spill
	ldr	r0, [sp, #28]           @ 4-byte Reload
	str	r0, [sp, #20]           @ 4-byte Spill
	ldr	r0, [sp, #28]           @ 4-byte Reload
	str	r0, [sp, #56]
	str	r1, [sp, #52]
	str	r2, [sp, #48]
	str	r3, [sp, #44]
	movs	r1, #0
.Ltmp219:
	.loc	3 1071 17 prologue_end  @ C:/Keil_v5/ARM/PACK/Nuvoton/NuMicro_M2351_BSP/1.0.0/Device/M2351/StdDriver/src/crypto.c:1071:17
	str	r1, [sp, #36]
.Ltmp220:
	.loc	3 1074 23               @ C:/Keil_v5/ARM/PACK/Nuvoton/NuMicro_M2351_BSP/1.0.0/Device/M2351/StdDriver/src/crypto.c:1074:23
	ldr	r0, [sp, #56]
	.loc	3 1074 29 is_stmt 0     @ C:/Keil_v5/ARM/PACK/Nuvoton/NuMicro_M2351_BSP/1.0.0/Device/M2351/StdDriver/src/crypto.c:1074:29
	ldr	r1, [sp, #52]
	.loc	3 1074 8                @ C:/Keil_v5/ARM/PACK/Nuvoton/NuMicro_M2351_BSP/1.0.0/Device/M2351/StdDriver/src/crypto.c:1074:8
	str	r5, [sp, #16]           @ 4-byte Spill
	str	r6, [sp, #12]           @ 4-byte Spill
	str	r7, [sp, #8]            @ 4-byte Spill
	str	r4, [sp, #4]            @ 4-byte Spill
	bl	ecc_init_curve
.Ltmp221:
	.loc	3 1074 8                @ C:/Keil_v5/ARM/PACK/Nuvoton/NuMicro_M2351_BSP/1.0.0/Device/M2351/StdDriver/src/crypto.c:1074:8
	cmp	r0, #0
	beq	.LBB25_2
	b	.LBB25_1
.LBB25_1:
.Ltmp222:
	.loc	3 1076 13 is_stmt 1     @ C:/Keil_v5/ARM/PACK/Nuvoton/NuMicro_M2351_BSP/1.0.0/Device/M2351/StdDriver/src/crypto.c:1076:13
	movs	r0, #0
	mvns	r0, r0
	str	r0, [sp, #36]
	.loc	3 1077 5                @ C:/Keil_v5/ARM/PACK/Nuvoton/NuMicro_M2351_BSP/1.0.0/Device/M2351/StdDriver/src/crypto.c:1077:5
	b	.LBB25_2
.Ltmp223:
.LBB25_2:
	.loc	3 1079 8                @ C:/Keil_v5/ARM/PACK/Nuvoton/NuMicro_M2351_BSP/1.0.0/Device/M2351/StdDriver/src/crypto.c:1079:8
	ldr	r0, [sp, #36]
.Ltmp224:
	.loc	3 1079 8 is_stmt 0      @ C:/Keil_v5/ARM/PACK/Nuvoton/NuMicro_M2351_BSP/1.0.0/Device/M2351/StdDriver/src/crypto.c:1079:8
	cmp	r0, #0
	beq	.LBB25_3
	b	.LBB25_28
.LBB25_3:
.Ltmp225:
	.loc	3 1081 15 is_stmt 1     @ C:/Keil_v5/ARM/PACK/Nuvoton/NuMicro_M2351_BSP/1.0.0/Device/M2351/StdDriver/src/crypto.c:1081:15
	movs	r0, #0
	str	r0, [sp, #40]
	.loc	3 1081 13 is_stmt 0     @ C:/Keil_v5/ARM/PACK/Nuvoton/NuMicro_M2351_BSP/1.0.0/Device/M2351/StdDriver/src/crypto.c:1081:13
	b	.LBB25_4
.LBB25_4:                               @ =>This Inner Loop Header: Depth=1
.Ltmp226:
	.loc	3 1081 20               @ C:/Keil_v5/ARM/PACK/Nuvoton/NuMicro_M2351_BSP/1.0.0/Device/M2351/StdDriver/src/crypto.c:1081:20
	ldr	r0, [sp, #40]
.Ltmp227:
	.loc	3 1081 9                @ C:/Keil_v5/ARM/PACK/Nuvoton/NuMicro_M2351_BSP/1.0.0/Device/M2351/StdDriver/src/crypto.c:1081:9
	cmp	r0, #17
	bgt	.LBB25_7
	b	.LBB25_5
.LBB25_5:                               @   in Loop: Header=BB25_4 Depth=1
.Ltmp228:
	.loc	3 1083 13 is_stmt 1     @ C:/Keil_v5/ARM/PACK/Nuvoton/NuMicro_M2351_BSP/1.0.0/Device/M2351/StdDriver/src/crypto.c:1083:13
	ldr	r0, [sp, #56]
	.loc	3 1083 25 is_stmt 0     @ C:/Keil_v5/ARM/PACK/Nuvoton/NuMicro_M2351_BSP/1.0.0/Device/M2351/StdDriver/src/crypto.c:1083:25
	ldr	r1, [sp, #40]
	.loc	3 1083 13               @ C:/Keil_v5/ARM/PACK/Nuvoton/NuMicro_M2351_BSP/1.0.0/Device/M2351/StdDriver/src/crypto.c:1083:13
	lsls	r1, r1, #2
	.loc	3 1083 19               @ C:/Keil_v5/ARM/PACK/Nuvoton/NuMicro_M2351_BSP/1.0.0/Device/M2351/StdDriver/src/crypto.c:1083:19
	adds	r0, r0, r1
	movw	r1, #2560
	movs	r2, #0
	.loc	3 1083 28               @ C:/Keil_v5/ARM/PACK/Nuvoton/NuMicro_M2351_BSP/1.0.0/Device/M2351/StdDriver/src/crypto.c:1083:28
	str	r2, [r0, r1]
	.loc	3 1084 13 is_stmt 1     @ C:/Keil_v5/ARM/PACK/Nuvoton/NuMicro_M2351_BSP/1.0.0/Device/M2351/StdDriver/src/crypto.c:1084:13
	ldr	r0, [sp, #56]
	.loc	3 1084 26 is_stmt 0     @ C:/Keil_v5/ARM/PACK/Nuvoton/NuMicro_M2351_BSP/1.0.0/Device/M2351/StdDriver/src/crypto.c:1084:26
	ldr	r1, [sp, #40]
	.loc	3 1084 13               @ C:/Keil_v5/ARM/PACK/Nuvoton/NuMicro_M2351_BSP/1.0.0/Device/M2351/StdDriver/src/crypto.c:1084:13
	lsls	r1, r1, #2
	.loc	3 1084 19               @ C:/Keil_v5/ARM/PACK/Nuvoton/NuMicro_M2351_BSP/1.0.0/Device/M2351/StdDriver/src/crypto.c:1084:19
	adds	r0, r0, r1
	ldr	r1, __arm_cp.25_0
	.loc	3 1084 29               @ C:/Keil_v5/ARM/PACK/Nuvoton/NuMicro_M2351_BSP/1.0.0/Device/M2351/StdDriver/src/crypto.c:1084:29
	str	r2, [r0, r1]
	.loc	3 1085 13 is_stmt 1     @ C:/Keil_v5/ARM/PACK/Nuvoton/NuMicro_M2351_BSP/1.0.0/Device/M2351/StdDriver/src/crypto.c:1085:13
	ldr	r0, [sp, #56]
	.loc	3 1085 26 is_stmt 0     @ C:/Keil_v5/ARM/PACK/Nuvoton/NuMicro_M2351_BSP/1.0.0/Device/M2351/StdDriver/src/crypto.c:1085:26
	ldr	r1, [sp, #40]
	.loc	3 1085 13               @ C:/Keil_v5/ARM/PACK/Nuvoton/NuMicro_M2351_BSP/1.0.0/Device/M2351/StdDriver/src/crypto.c:1085:13
	lsls	r1, r1, #2
	.loc	3 1085 19               @ C:/Keil_v5/ARM/PACK/Nuvoton/NuMicro_M2351_BSP/1.0.0/Device/M2351/StdDriver/src/crypto.c:1085:19
	adds	r0, r0, r1
	movw	r1, #2128
	.loc	3 1085 29               @ C:/Keil_v5/ARM/PACK/Nuvoton/NuMicro_M2351_BSP/1.0.0/Device/M2351/StdDriver/src/crypto.c:1085:29
	str	r2, [r0, r1]
	.loc	3 1086 9 is_stmt 1      @ C:/Keil_v5/ARM/PACK/Nuvoton/NuMicro_M2351_BSP/1.0.0/Device/M2351/StdDriver/src/crypto.c:1086:9
	b	.LBB25_6
.Ltmp229:
.LBB25_6:                               @   in Loop: Header=BB25_4 Depth=1
	.loc	3 1081 29               @ C:/Keil_v5/ARM/PACK/Nuvoton/NuMicro_M2351_BSP/1.0.0/Device/M2351/StdDriver/src/crypto.c:1081:29
	ldr	r0, [sp, #40]
	adds	r0, r0, #1
	str	r0, [sp, #40]
	.loc	3 1081 9 is_stmt 0      @ C:/Keil_v5/ARM/PACK/Nuvoton/NuMicro_M2351_BSP/1.0.0/Device/M2351/StdDriver/src/crypto.c:1081:9
	b	.LBB25_4
.Ltmp230:
.LBB25_7:
	.loc	3 1088 13 is_stmt 1     @ C:/Keil_v5/ARM/PACK/Nuvoton/NuMicro_M2351_BSP/1.0.0/Device/M2351/StdDriver/src/crypto.c:1088:13
	ldr	r0, [sp, #52]
	.loc	3 1088 39 is_stmt 0     @ C:/Keil_v5/ARM/PACK/Nuvoton/NuMicro_M2351_BSP/1.0.0/Device/M2351/StdDriver/src/crypto.c:1088:39
	cmp	r0, #10
	beq	.LBB25_13
	b	.LBB25_8
.LBB25_8:
	.loc	3 1088 43               @ C:/Keil_v5/ARM/PACK/Nuvoton/NuMicro_M2351_BSP/1.0.0/Device/M2351/StdDriver/src/crypto.c:1088:43
	ldr	r0, [sp, #52]
	.loc	3 1088 69               @ C:/Keil_v5/ARM/PACK/Nuvoton/NuMicro_M2351_BSP/1.0.0/Device/M2351/StdDriver/src/crypto.c:1088:69
	cmp	r0, #11
	beq	.LBB25_13
	b	.LBB25_9
.LBB25_9:
	.loc	3 1088 73               @ C:/Keil_v5/ARM/PACK/Nuvoton/NuMicro_M2351_BSP/1.0.0/Device/M2351/StdDriver/src/crypto.c:1088:73
	ldr	r0, [sp, #52]
	.loc	3 1088 99               @ C:/Keil_v5/ARM/PACK/Nuvoton/NuMicro_M2351_BSP/1.0.0/Device/M2351/StdDriver/src/crypto.c:1088:99
	cmp	r0, #12
	beq	.LBB25_13
	b	.LBB25_10
.LBB25_10:
	.loc	3 1089 18 is_stmt 1     @ C:/Keil_v5/ARM/PACK/Nuvoton/NuMicro_M2351_BSP/1.0.0/Device/M2351/StdDriver/src/crypto.c:1089:18
	ldr	r0, [sp, #52]
	.loc	3 1089 44 is_stmt 0     @ C:/Keil_v5/ARM/PACK/Nuvoton/NuMicro_M2351_BSP/1.0.0/Device/M2351/StdDriver/src/crypto.c:1089:44
	cmp	r0, #13
	beq	.LBB25_13
	b	.LBB25_11
.LBB25_11:
	.loc	3 1089 48               @ C:/Keil_v5/ARM/PACK/Nuvoton/NuMicro_M2351_BSP/1.0.0/Device/M2351/StdDriver/src/crypto.c:1089:48
	ldr	r0, [sp, #52]
	.loc	3 1089 74               @ C:/Keil_v5/ARM/PACK/Nuvoton/NuMicro_M2351_BSP/1.0.0/Device/M2351/StdDriver/src/crypto.c:1089:74
	cmp	r0, #14
	beq	.LBB25_13
	b	.LBB25_12
.LBB25_12:
	.loc	3 1089 78               @ C:/Keil_v5/ARM/PACK/Nuvoton/NuMicro_M2351_BSP/1.0.0/Device/M2351/StdDriver/src/crypto.c:1089:78
	ldr	r0, [sp, #52]
.Ltmp231:
	.loc	3 1088 12 is_stmt 1     @ C:/Keil_v5/ARM/PACK/Nuvoton/NuMicro_M2351_BSP/1.0.0/Device/M2351/StdDriver/src/crypto.c:1088:12
	cmp	r0, #5
	bne	.LBB25_14
	b	.LBB25_13
.LBB25_13:
.Ltmp232:
	.loc	3 1091 23               @ C:/Keil_v5/ARM/PACK/Nuvoton/NuMicro_M2351_BSP/1.0.0/Device/M2351/StdDriver/src/crypto.c:1091:23
	ldr	r0, [sp, #48]
	.loc	3 1091 34 is_stmt 0     @ C:/Keil_v5/ARM/PACK/Nuvoton/NuMicro_M2351_BSP/1.0.0/Device/M2351/StdDriver/src/crypto.c:1091:34
	ldr	r1, [sp, #56]
	.loc	3 1091 40               @ C:/Keil_v5/ARM/PACK/Nuvoton/NuMicro_M2351_BSP/1.0.0/Device/M2351/StdDriver/src/crypto.c:1091:40
	movw	r2, #2560
	adds	r1, r1, r2
	.loc	3 1091 13               @ C:/Keil_v5/ARM/PACK/Nuvoton/NuMicro_M2351_BSP/1.0.0/Device/M2351/StdDriver/src/crypto.c:1091:13
	movs	r2, #1
	bl	Hex2RegEx
	.loc	3 1092 9 is_stmt 1      @ C:/Keil_v5/ARM/PACK/Nuvoton/NuMicro_M2351_BSP/1.0.0/Device/M2351/StdDriver/src/crypto.c:1092:9
	b	.LBB25_21
.Ltmp233:
.LBB25_14:
	.loc	3 1093 18               @ C:/Keil_v5/ARM/PACK/Nuvoton/NuMicro_M2351_BSP/1.0.0/Device/M2351/StdDriver/src/crypto.c:1093:18
	ldr	r0, [sp, #52]
	.loc	3 1093 44 is_stmt 0     @ C:/Keil_v5/ARM/PACK/Nuvoton/NuMicro_M2351_BSP/1.0.0/Device/M2351/StdDriver/src/crypto.c:1093:44
	cmp	r0, #6
	beq	.LBB25_18
	b	.LBB25_15
.LBB25_15:
	.loc	3 1093 48               @ C:/Keil_v5/ARM/PACK/Nuvoton/NuMicro_M2351_BSP/1.0.0/Device/M2351/StdDriver/src/crypto.c:1093:48
	ldr	r0, [sp, #52]
	.loc	3 1093 74               @ C:/Keil_v5/ARM/PACK/Nuvoton/NuMicro_M2351_BSP/1.0.0/Device/M2351/StdDriver/src/crypto.c:1093:74
	cmp	r0, #7
	beq	.LBB25_18
	b	.LBB25_16
.LBB25_16:
	.loc	3 1094 18 is_stmt 1     @ C:/Keil_v5/ARM/PACK/Nuvoton/NuMicro_M2351_BSP/1.0.0/Device/M2351/StdDriver/src/crypto.c:1094:18
	ldr	r0, [sp, #52]
	.loc	3 1094 44 is_stmt 0     @ C:/Keil_v5/ARM/PACK/Nuvoton/NuMicro_M2351_BSP/1.0.0/Device/M2351/StdDriver/src/crypto.c:1094:44
	cmp	r0, #8
	beq	.LBB25_18
	b	.LBB25_17
.LBB25_17:
	.loc	3 1094 48               @ C:/Keil_v5/ARM/PACK/Nuvoton/NuMicro_M2351_BSP/1.0.0/Device/M2351/StdDriver/src/crypto.c:1094:48
	ldr	r0, [sp, #52]
.Ltmp234:
	.loc	3 1093 17 is_stmt 1     @ C:/Keil_v5/ARM/PACK/Nuvoton/NuMicro_M2351_BSP/1.0.0/Device/M2351/StdDriver/src/crypto.c:1093:17
	cmp	r0, #9
	bne	.LBB25_19
	b	.LBB25_18
.LBB25_18:
.Ltmp235:
	.loc	3 1096 23               @ C:/Keil_v5/ARM/PACK/Nuvoton/NuMicro_M2351_BSP/1.0.0/Device/M2351/StdDriver/src/crypto.c:1096:23
	ldr	r0, [sp, #48]
	.loc	3 1096 34 is_stmt 0     @ C:/Keil_v5/ARM/PACK/Nuvoton/NuMicro_M2351_BSP/1.0.0/Device/M2351/StdDriver/src/crypto.c:1096:34
	ldr	r1, [sp, #56]
	.loc	3 1096 40               @ C:/Keil_v5/ARM/PACK/Nuvoton/NuMicro_M2351_BSP/1.0.0/Device/M2351/StdDriver/src/crypto.c:1096:40
	movw	r2, #2560
	adds	r1, r1, r2
	.loc	3 1096 13               @ C:/Keil_v5/ARM/PACK/Nuvoton/NuMicro_M2351_BSP/1.0.0/Device/M2351/StdDriver/src/crypto.c:1096:13
	movs	r2, #2
	bl	Hex2RegEx
	.loc	3 1097 9 is_stmt 1      @ C:/Keil_v5/ARM/PACK/Nuvoton/NuMicro_M2351_BSP/1.0.0/Device/M2351/StdDriver/src/crypto.c:1097:9
	b	.LBB25_20
.Ltmp236:
.LBB25_19:
	.loc	3 1100 21               @ C:/Keil_v5/ARM/PACK/Nuvoton/NuMicro_M2351_BSP/1.0.0/Device/M2351/StdDriver/src/crypto.c:1100:21
	ldr	r0, [sp, #48]
	.loc	3 1100 32 is_stmt 0     @ C:/Keil_v5/ARM/PACK/Nuvoton/NuMicro_M2351_BSP/1.0.0/Device/M2351/StdDriver/src/crypto.c:1100:32
	ldr	r1, [sp, #56]
	.loc	3 1100 38               @ C:/Keil_v5/ARM/PACK/Nuvoton/NuMicro_M2351_BSP/1.0.0/Device/M2351/StdDriver/src/crypto.c:1100:38
	movw	r2, #2560
	adds	r1, r1, r2
	.loc	3 1100 13               @ C:/Keil_v5/ARM/PACK/Nuvoton/NuMicro_M2351_BSP/1.0.0/Device/M2351/StdDriver/src/crypto.c:1100:13
	bl	Hex2Reg
	b	.LBB25_20
.Ltmp237:
.LBB25_20:
	.loc	3 0 13                  @ C:/Keil_v5/ARM/PACK/Nuvoton/NuMicro_M2351_BSP/1.0.0/Device/M2351/StdDriver/src/crypto.c:0:13
	b	.LBB25_21
.LBB25_21:
	.loc	3 1103 17 is_stmt 1     @ C:/Keil_v5/ARM/PACK/Nuvoton/NuMicro_M2351_BSP/1.0.0/Device/M2351/StdDriver/src/crypto.c:1103:17
	ldr	r0, [sp, #44]
	.loc	3 1103 28 is_stmt 0     @ C:/Keil_v5/ARM/PACK/Nuvoton/NuMicro_M2351_BSP/1.0.0/Device/M2351/StdDriver/src/crypto.c:1103:28
	ldr	r1, [sp, #56]
	.loc	3 1103 34               @ C:/Keil_v5/ARM/PACK/Nuvoton/NuMicro_M2351_BSP/1.0.0/Device/M2351/StdDriver/src/crypto.c:1103:34
	ldr	r2, __arm_cp.25_0
	adds	r1, r1, r2
	.loc	3 1103 9                @ C:/Keil_v5/ARM/PACK/Nuvoton/NuMicro_M2351_BSP/1.0.0/Device/M2351/StdDriver/src/crypto.c:1103:9
	bl	Hex2Reg
	.loc	3 1104 17 is_stmt 1     @ C:/Keil_v5/ARM/PACK/Nuvoton/NuMicro_M2351_BSP/1.0.0/Device/M2351/StdDriver/src/crypto.c:1104:17
	ldr	r0, [sp, #80]
	.loc	3 1104 28 is_stmt 0     @ C:/Keil_v5/ARM/PACK/Nuvoton/NuMicro_M2351_BSP/1.0.0/Device/M2351/StdDriver/src/crypto.c:1104:28
	ldr	r1, [sp, #56]
	.loc	3 1104 34               @ C:/Keil_v5/ARM/PACK/Nuvoton/NuMicro_M2351_BSP/1.0.0/Device/M2351/StdDriver/src/crypto.c:1104:34
	movw	r2, #2128
	adds	r1, r1, r2
	.loc	3 1104 9                @ C:/Keil_v5/ARM/PACK/Nuvoton/NuMicro_M2351_BSP/1.0.0/Device/M2351/StdDriver/src/crypto.c:1104:9
	bl	Hex2Reg
.Ltmp238:
	.loc	3 1107 12 is_stmt 1     @ C:/Keil_v5/ARM/PACK/Nuvoton/NuMicro_M2351_BSP/1.0.0/Device/M2351/StdDriver/src/crypto.c:1107:12
	ldr	r0, __arm_cp.25_1
	ldr	r0, [r0]
	.loc	3 1107 20 is_stmt 0     @ C:/Keil_v5/ARM/PACK/Nuvoton/NuMicro_M2351_BSP/1.0.0/Device/M2351/StdDriver/src/crypto.c:1107:20
	movw	r1, #960
	ldr	r0, [r0, r1]
.Ltmp239:
	.loc	3 1107 12               @ C:/Keil_v5/ARM/PACK/Nuvoton/NuMicro_M2351_BSP/1.0.0/Device/M2351/StdDriver/src/crypto.c:1107:12
	cmp	r0, #1
	bne	.LBB25_23
	b	.LBB25_22
.LBB25_22:
.Ltmp240:
	.loc	3 1109 13 is_stmt 1     @ C:/Keil_v5/ARM/PACK/Nuvoton/NuMicro_M2351_BSP/1.0.0/Device/M2351/StdDriver/src/crypto.c:1109:13
	ldr	r0, [sp, #56]
	.loc	3 1109 19 is_stmt 0     @ C:/Keil_v5/ARM/PACK/Nuvoton/NuMicro_M2351_BSP/1.0.0/Device/M2351/StdDriver/src/crypto.c:1109:19
	movw	r1, #2048
	movs	r2, #0
	.loc	3 1109 27               @ C:/Keil_v5/ARM/PACK/Nuvoton/NuMicro_M2351_BSP/1.0.0/Device/M2351/StdDriver/src/crypto.c:1109:27
	str	r2, [r0, r1]
	.loc	3 1110 9 is_stmt 1      @ C:/Keil_v5/ARM/PACK/Nuvoton/NuMicro_M2351_BSP/1.0.0/Device/M2351/StdDriver/src/crypto.c:1110:9
	b	.LBB25_24
.Ltmp241:
.LBB25_23:
	.loc	3 1113 13               @ C:/Keil_v5/ARM/PACK/Nuvoton/NuMicro_M2351_BSP/1.0.0/Device/M2351/StdDriver/src/crypto.c:1113:13
	ldr	r0, [sp, #56]
	.loc	3 1113 19 is_stmt 0     @ C:/Keil_v5/ARM/PACK/Nuvoton/NuMicro_M2351_BSP/1.0.0/Device/M2351/StdDriver/src/crypto.c:1113:19
	movw	r1, #2048
	.loc	3 1113 27               @ C:/Keil_v5/ARM/PACK/Nuvoton/NuMicro_M2351_BSP/1.0.0/Device/M2351/StdDriver/src/crypto.c:1113:27
	movw	r2, #256
	str	r2, [r0, r1]
	b	.LBB25_24
.Ltmp242:
.LBB25_24:
	.loc	3 1115 36 is_stmt 1     @ C:/Keil_v5/ARM/PACK/Nuvoton/NuMicro_M2351_BSP/1.0.0/Device/M2351/StdDriver/src/crypto.c:1115:36
	ldr	r0, __arm_cp.25_2
	movs	r1, #0
	str	r1, [r0]
	.loc	3 1115 20 is_stmt 0     @ C:/Keil_v5/ARM/PACK/Nuvoton/NuMicro_M2351_BSP/1.0.0/Device/M2351/StdDriver/src/crypto.c:1115:20
	ldr	r0, __arm_cp.25_3
	str	r1, [r0]
	.loc	3 1116 37 is_stmt 1     @ C:/Keil_v5/ARM/PACK/Nuvoton/NuMicro_M2351_BSP/1.0.0/Device/M2351/StdDriver/src/crypto.c:1116:37
	ldr	r0, __arm_cp.25_1
	ldr	r0, [r0]
	.loc	3 1116 45 is_stmt 0     @ C:/Keil_v5/ARM/PACK/Nuvoton/NuMicro_M2351_BSP/1.0.0/Device/M2351/StdDriver/src/crypto.c:1116:45
	movw	r1, #944
	ldr	r0, [r0, r1]
	.loc	3 1116 53               @ C:/Keil_v5/ARM/PACK/Nuvoton/NuMicro_M2351_BSP/1.0.0/Device/M2351/StdDriver/src/crypto.c:1116:53
	lsls	r0, r0, #22
	.loc	3 1116 9                @ C:/Keil_v5/ARM/PACK/Nuvoton/NuMicro_M2351_BSP/1.0.0/Device/M2351/StdDriver/src/crypto.c:1116:9
	ldr	r1, [sp, #56]
	.loc	3 1116 15               @ C:/Keil_v5/ARM/PACK/Nuvoton/NuMicro_M2351_BSP/1.0.0/Device/M2351/StdDriver/src/crypto.c:1116:15
	movw	r2, #2048
	.loc	3 1116 23               @ C:/Keil_v5/ARM/PACK/Nuvoton/NuMicro_M2351_BSP/1.0.0/Device/M2351/StdDriver/src/crypto.c:1116:23
	ldr	r3, [r1, r2]
	orrs	r3, r0
	.loc	3 1117 42 is_stmt 1     @ C:/Keil_v5/ARM/PACK/Nuvoton/NuMicro_M2351_BSP/1.0.0/Device/M2351/StdDriver/src/crypto.c:1117:42
	movs	r0, #1
	.loc	3 1116 23               @ C:/Keil_v5/ARM/PACK/Nuvoton/NuMicro_M2351_BSP/1.0.0/Device/M2351/StdDriver/src/crypto.c:1116:23
	orrs	r3, r0
	str	r3, [r1, r2]
	.loc	3 1119 9                @ C:/Keil_v5/ARM/PACK/Nuvoton/NuMicro_M2351_BSP/1.0.0/Device/M2351/StdDriver/src/crypto.c:1119:9
	b	.LBB25_25
.LBB25_25:                              @ =>This Inner Loop Header: Depth=1
.Ltmp243:
	.loc	3 1121 22               @ C:/Keil_v5/ARM/PACK/Nuvoton/NuMicro_M2351_BSP/1.0.0/Device/M2351/StdDriver/src/crypto.c:1121:22
	ldr	r0, __arm_cp.25_3
	ldr	r0, [r0]
	.loc	3 1121 20 is_stmt 0     @ C:/Keil_v5/ARM/PACK/Nuvoton/NuMicro_M2351_BSP/1.0.0/Device/M2351/StdDriver/src/crypto.c:1121:20
	str	r0, [sp, #32]
	.loc	3 1122 23 is_stmt 1     @ C:/Keil_v5/ARM/PACK/Nuvoton/NuMicro_M2351_BSP/1.0.0/Device/M2351/StdDriver/src/crypto.c:1122:23
	ldr	r0, __arm_cp.25_2
	ldr	r0, [r0]
	.loc	3 1122 20 is_stmt 0     @ C:/Keil_v5/ARM/PACK/Nuvoton/NuMicro_M2351_BSP/1.0.0/Device/M2351/StdDriver/src/crypto.c:1122:20
	ldr	r1, [sp, #32]
	orrs	r1, r0
	str	r1, [sp, #32]
	.loc	3 1123 9 is_stmt 1      @ C:/Keil_v5/ARM/PACK/Nuvoton/NuMicro_M2351_BSP/1.0.0/Device/M2351/StdDriver/src/crypto.c:1123:9
	b	.LBB25_26
.Ltmp244:
.LBB25_26:                              @   in Loop: Header=BB25_25 Depth=1
	.loc	3 1124 15               @ C:/Keil_v5/ARM/PACK/Nuvoton/NuMicro_M2351_BSP/1.0.0/Device/M2351/StdDriver/src/crypto.c:1124:15
	ldr	r0, [sp, #32]
.Ltmp245:
	.loc	3 1123 9                @ C:/Keil_v5/ARM/PACK/Nuvoton/NuMicro_M2351_BSP/1.0.0/Device/M2351/StdDriver/src/crypto.c:1123:9
	cmp	r0, #0
	beq	.LBB25_25
	b	.LBB25_27
.Ltmp246:
.LBB25_27:
	.loc	3 1126 17               @ C:/Keil_v5/ARM/PACK/Nuvoton/NuMicro_M2351_BSP/1.0.0/Device/M2351/StdDriver/src/crypto.c:1126:17
	ldr	r0, __arm_cp.25_1
	ldr	r0, [r0]
	.loc	3 1126 25 is_stmt 0     @ C:/Keil_v5/ARM/PACK/Nuvoton/NuMicro_M2351_BSP/1.0.0/Device/M2351/StdDriver/src/crypto.c:1126:25
	ldr	r0, [r0, #4]
	.loc	3 1126 32               @ C:/Keil_v5/ARM/PACK/Nuvoton/NuMicro_M2351_BSP/1.0.0/Device/M2351/StdDriver/src/crypto.c:1126:32
	ldr	r1, [sp, #56]
	.loc	3 1126 38               @ C:/Keil_v5/ARM/PACK/Nuvoton/NuMicro_M2351_BSP/1.0.0/Device/M2351/StdDriver/src/crypto.c:1126:38
	ldr	r2, __arm_cp.25_0
	adds	r1, r1, r2
	.loc	3 1126 46               @ C:/Keil_v5/ARM/PACK/Nuvoton/NuMicro_M2351_BSP/1.0.0/Device/M2351/StdDriver/src/crypto.c:1126:46
	ldr	r2, [sp, #84]
	.loc	3 1126 9                @ C:/Keil_v5/ARM/PACK/Nuvoton/NuMicro_M2351_BSP/1.0.0/Device/M2351/StdDriver/src/crypto.c:1126:9
	bl	Reg2Hex
	.loc	3 1127 5 is_stmt 1      @ C:/Keil_v5/ARM/PACK/Nuvoton/NuMicro_M2351_BSP/1.0.0/Device/M2351/StdDriver/src/crypto.c:1127:5
	b	.LBB25_28
.Ltmp247:
.LBB25_28:
	.loc	3 1129 12               @ C:/Keil_v5/ARM/PACK/Nuvoton/NuMicro_M2351_BSP/1.0.0/Device/M2351/StdDriver/src/crypto.c:1129:12
	ldr	r0, [sp, #36]
	.loc	3 1129 5 is_stmt 0      @ C:/Keil_v5/ARM/PACK/Nuvoton/NuMicro_M2351_BSP/1.0.0/Device/M2351/StdDriver/src/crypto.c:1129:5
	add	sp, #60
	pop	{r4, r5, r6, r7, pc}
.Ltmp248:
	.p2align	2
@ %bb.29:
	.loc	3 0 5                   @ C:/Keil_v5/ARM/PACK/Nuvoton/NuMicro_M2351_BSP/1.0.0/Device/M2351/StdDriver/src/crypto.c:0:5
__arm_cp.25_0:
	.long	2056                    @ 0x808
.Lcpi_end22:
	.size	__arm_cp.25_0, .Lcpi_end22-__arm_cp.25_0
__arm_cp.25_1:
	.long	pCurve
.Lcpi_end23:
	.size	__arm_cp.25_1, .Lcpi_end23-__arm_cp.25_1
__arm_cp.25_2:
	.long	g_ECCERR_done
.Lcpi_end24:
	.size	__arm_cp.25_2, .Lcpi_end24-__arm_cp.25_2
__arm_cp.25_3:
	.long	g_ECC_done
.Lcpi_end25:
	.size	__arm_cp.25_3, .Lcpi_end25-__arm_cp.25_3
.Lfunc_end25:
	.size	ECC_GenerateSecretZ, .Lfunc_end25-ECC_GenerateSecretZ
	.cfi_endproc
	.cantunwind
	.fnend
                                        @ -- End function
	.section	.text.Hex2RegEx,"ax",%progbits
	.p2align	1               @ -- Begin function Hex2RegEx
	.type	Hex2RegEx,%function
	.code	16                      @ @Hex2RegEx
	.thumb_func
Hex2RegEx:
.Lfunc_begin26:
	.loc	3 821 0 is_stmt 1       @ C:/Keil_v5/ARM/PACK/Nuvoton/NuMicro_M2351_BSP/1.0.0/Device/M2351/StdDriver/src/crypto.c:821:0
	.fnstart
	.cfi_startproc
@ %bb.0:
	.save	{r4, r5, r7, lr}
	push	{r4, r5, r7, lr}
	.cfi_def_cfa_offset 16
	.cfi_offset lr, -4
	.cfi_offset r7, -8
	.cfi_offset r5, -12
	.cfi_offset r4, -16
	.pad	#64
	sub	sp, #64
	.cfi_def_cfa_offset 80
	mov	r3, r2
	mov	r4, r1
	mov	r5, r0
	str	r0, [sp, #60]
	str	r1, [sp, #56]
	str	r2, [sp, #52]
.Ltmp249:
	.loc	3 826 22 prologue_end   @ C:/Keil_v5/ARM/PACK/Nuvoton/NuMicro_M2351_BSP/1.0.0/Device/M2351/StdDriver/src/crypto.c:826:22
	ldr	r0, [sp, #60]
	.loc	3 826 15 is_stmt 0      @ C:/Keil_v5/ARM/PACK/Nuvoton/NuMicro_M2351_BSP/1.0.0/Device/M2351/StdDriver/src/crypto.c:826:15
	str	r3, [sp, #24]           @ 4-byte Spill
	str	r4, [sp, #20]           @ 4-byte Spill
	str	r5, [sp, #16]           @ 4-byte Spill
	bl	strlen
	.loc	3 826 29                @ C:/Keil_v5/ARM/PACK/Nuvoton/NuMicro_M2351_BSP/1.0.0/Device/M2351/StdDriver/src/crypto.c:826:29
	subs	r0, r0, #1
	.loc	3 826 8                 @ C:/Keil_v5/ARM/PACK/Nuvoton/NuMicro_M2351_BSP/1.0.0/Device/M2351/StdDriver/src/crypto.c:826:8
	str	r0, [sp, #40]
	movs	r0, #0
	.loc	3 827 8 is_stmt 1       @ C:/Keil_v5/ARM/PACK/Nuvoton/NuMicro_M2351_BSP/1.0.0/Device/M2351/StdDriver/src/crypto.c:827:8
	str	r0, [sp, #36]
	.loc	3 828 11                @ C:/Keil_v5/ARM/PACK/Nuvoton/NuMicro_M2351_BSP/1.0.0/Device/M2351/StdDriver/src/crypto.c:828:11
	str	r0, [sp, #44]
	.loc	3 829 5                 @ C:/Keil_v5/ARM/PACK/Nuvoton/NuMicro_M2351_BSP/1.0.0/Device/M2351/StdDriver/src/crypto.c:829:5
	b	.LBB26_1
.LBB26_1:                               @ =>This Loop Header: Depth=1
                                        @     Child Loop BB26_3 Depth 2
	.loc	3 829 11 is_stmt 0      @ C:/Keil_v5/ARM/PACK/Nuvoton/NuMicro_M2351_BSP/1.0.0/Device/M2351/StdDriver/src/crypto.c:829:11
	ldr	r0, [sp, #40]
	.loc	3 829 5                 @ C:/Keil_v5/ARM/PACK/Nuvoton/NuMicro_M2351_BSP/1.0.0/Device/M2351/StdDriver/src/crypto.c:829:5
	cmp	r0, #0
	blt	.LBB26_11
	b	.LBB26_2
.LBB26_2:                               @   in Loop: Header=BB26_1 Depth=1
	.loc	3 0 5                   @ C:/Keil_v5/ARM/PACK/Nuvoton/NuMicro_M2351_BSP/1.0.0/Device/M2351/StdDriver/src/crypto.c:0:5
	movs	r0, #0
.Ltmp250:
	.loc	3 831 15 is_stmt 1      @ C:/Keil_v5/ARM/PACK/Nuvoton/NuMicro_M2351_BSP/1.0.0/Device/M2351/StdDriver/src/crypto.c:831:15
	str	r0, [sp, #28]
.Ltmp251:
	.loc	3 832 15                @ C:/Keil_v5/ARM/PACK/Nuvoton/NuMicro_M2351_BSP/1.0.0/Device/M2351/StdDriver/src/crypto.c:832:15
	str	r0, [sp, #32]
	.loc	3 832 13 is_stmt 0      @ C:/Keil_v5/ARM/PACK/Nuvoton/NuMicro_M2351_BSP/1.0.0/Device/M2351/StdDriver/src/crypto.c:832:13
	b	.LBB26_3
.LBB26_3:                               @   Parent Loop BB26_1 Depth=1
                                        @ =>  This Inner Loop Header: Depth=2
.Ltmp252:
	.loc	3 832 23                @ C:/Keil_v5/ARM/PACK/Nuvoton/NuMicro_M2351_BSP/1.0.0/Device/M2351/StdDriver/src/crypto.c:832:23
	ldr	r0, [sp, #32]
	movs	r1, #0
	.loc	3 832 32                @ C:/Keil_v5/ARM/PACK/Nuvoton/NuMicro_M2351_BSP/1.0.0/Device/M2351/StdDriver/src/crypto.c:832:32
	cmp	r0, #7
	str	r1, [sp, #12]           @ 4-byte Spill
	bhi	.LBB26_7
	b	.LBB26_4
.LBB26_4:                               @   in Loop: Header=BB26_3 Depth=2
	.loc	3 832 36                @ C:/Keil_v5/ARM/PACK/Nuvoton/NuMicro_M2351_BSP/1.0.0/Device/M2351/StdDriver/src/crypto.c:832:36
	ldr	r0, [sp, #40]
	.loc	3 832 39                @ C:/Keil_v5/ARM/PACK/Nuvoton/NuMicro_M2351_BSP/1.0.0/Device/M2351/StdDriver/src/crypto.c:832:39
	movs	r1, #1
	movs	r2, #0
	cmp	r0, #0
	str	r2, [sp, #8]            @ 4-byte Spill
	str	r1, [sp, #4]            @ 4-byte Spill
	bge	.LBB26_6
@ %bb.5:                                @   in Loop: Header=BB26_3 Depth=2
	ldr	r0, [sp, #8]            @ 4-byte Reload
	str	r0, [sp, #4]            @ 4-byte Spill
.LBB26_6:                               @   in Loop: Header=BB26_3 Depth=2
	ldr	r0, [sp, #4]            @ 4-byte Reload
	str	r0, [sp, #12]           @ 4-byte Spill
	b	.LBB26_7
.Ltmp253:
.LBB26_7:                               @   in Loop: Header=BB26_3 Depth=2
	.loc	3 0 39                  @ C:/Keil_v5/ARM/PACK/Nuvoton/NuMicro_M2351_BSP/1.0.0/Device/M2351/StdDriver/src/crypto.c:0:39
	ldr	r0, [sp, #12]           @ 4-byte Reload
	.loc	3 832 9                 @ C:/Keil_v5/ARM/PACK/Nuvoton/NuMicro_M2351_BSP/1.0.0/Device/M2351/StdDriver/src/crypto.c:832:9
	lsls	r0, r0, #31
	cmp	r0, #0
	beq	.LBB26_10
	b	.LBB26_8
.LBB26_8:                               @   in Loop: Header=BB26_3 Depth=2
.Ltmp254:
	.loc	3 834 36 is_stmt 1      @ C:/Keil_v5/ARM/PACK/Nuvoton/NuMicro_M2351_BSP/1.0.0/Device/M2351/StdDriver/src/crypto.c:834:36
	ldr	r0, [sp, #60]
	.loc	3 834 42 is_stmt 0      @ C:/Keil_v5/ARM/PACK/Nuvoton/NuMicro_M2351_BSP/1.0.0/Device/M2351/StdDriver/src/crypto.c:834:42
	ldr	r1, [sp, #40]
	.loc	3 834 29                @ C:/Keil_v5/ARM/PACK/Nuvoton/NuMicro_M2351_BSP/1.0.0/Device/M2351/StdDriver/src/crypto.c:834:29
	ldrb	r0, [r0, r1]
	bl	ch2hex
	.loc	3 834 17                @ C:/Keil_v5/ARM/PACK/Nuvoton/NuMicro_M2351_BSP/1.0.0/Device/M2351/StdDriver/src/crypto.c:834:17
	str	r0, [sp, #48]
	.loc	3 835 21 is_stmt 1      @ C:/Keil_v5/ARM/PACK/Nuvoton/NuMicro_M2351_BSP/1.0.0/Device/M2351/StdDriver/src/crypto.c:835:21
	ldr	r0, [sp, #52]
	.loc	3 835 17 is_stmt 0      @ C:/Keil_v5/ARM/PACK/Nuvoton/NuMicro_M2351_BSP/1.0.0/Device/M2351/StdDriver/src/crypto.c:835:17
	ldr	r1, [sp, #48]
	lsls	r1, r0
	str	r1, [sp, #48]
	.loc	3 837 34 is_stmt 1      @ C:/Keil_v5/ARM/PACK/Nuvoton/NuMicro_M2351_BSP/1.0.0/Device/M2351/StdDriver/src/crypto.c:837:34
	ldr	r0, [sp, #48]
	.loc	3 837 38 is_stmt 0      @ C:/Keil_v5/ARM/PACK/Nuvoton/NuMicro_M2351_BSP/1.0.0/Device/M2351/StdDriver/src/crypto.c:837:38
	movs	r1, #15
	ands	r0, r1
	.loc	3 837 48                @ C:/Keil_v5/ARM/PACK/Nuvoton/NuMicro_M2351_BSP/1.0.0/Device/M2351/StdDriver/src/crypto.c:837:48
	ldr	r2, [sp, #44]
	.loc	3 837 46                @ C:/Keil_v5/ARM/PACK/Nuvoton/NuMicro_M2351_BSP/1.0.0/Device/M2351/StdDriver/src/crypto.c:837:46
	orrs	r0, r2
	.loc	3 837 59                @ C:/Keil_v5/ARM/PACK/Nuvoton/NuMicro_M2351_BSP/1.0.0/Device/M2351/StdDriver/src/crypto.c:837:59
	ldr	r2, [sp, #32]
	.loc	3 837 61                @ C:/Keil_v5/ARM/PACK/Nuvoton/NuMicro_M2351_BSP/1.0.0/Device/M2351/StdDriver/src/crypto.c:837:61
	lsls	r2, r2, #2
	.loc	3 837 55                @ C:/Keil_v5/ARM/PACK/Nuvoton/NuMicro_M2351_BSP/1.0.0/Device/M2351/StdDriver/src/crypto.c:837:55
	lsls	r0, r2
	.loc	3 837 19                @ C:/Keil_v5/ARM/PACK/Nuvoton/NuMicro_M2351_BSP/1.0.0/Device/M2351/StdDriver/src/crypto.c:837:19
	ldr	r2, [sp, #28]
	orrs	r2, r0
	str	r2, [sp, #28]
	.loc	3 838 22 is_stmt 1      @ C:/Keil_v5/ARM/PACK/Nuvoton/NuMicro_M2351_BSP/1.0.0/Device/M2351/StdDriver/src/crypto.c:838:22
	ldr	r0, [sp, #48]
	.loc	3 838 26 is_stmt 0      @ C:/Keil_v5/ARM/PACK/Nuvoton/NuMicro_M2351_BSP/1.0.0/Device/M2351/StdDriver/src/crypto.c:838:26
	lsrs	r0, r0, #4
	.loc	3 838 32                @ C:/Keil_v5/ARM/PACK/Nuvoton/NuMicro_M2351_BSP/1.0.0/Device/M2351/StdDriver/src/crypto.c:838:32
	ands	r0, r1
	.loc	3 838 19                @ C:/Keil_v5/ARM/PACK/Nuvoton/NuMicro_M2351_BSP/1.0.0/Device/M2351/StdDriver/src/crypto.c:838:19
	str	r0, [sp, #44]
	.loc	3 839 15 is_stmt 1      @ C:/Keil_v5/ARM/PACK/Nuvoton/NuMicro_M2351_BSP/1.0.0/Device/M2351/StdDriver/src/crypto.c:839:15
	ldr	r0, [sp, #40]
	subs	r0, r0, #1
	str	r0, [sp, #40]
	.loc	3 840 9                 @ C:/Keil_v5/ARM/PACK/Nuvoton/NuMicro_M2351_BSP/1.0.0/Device/M2351/StdDriver/src/crypto.c:840:9
	b	.LBB26_9
.Ltmp255:
.LBB26_9:                               @   in Loop: Header=BB26_3 Depth=2
	.loc	3 832 47                @ C:/Keil_v5/ARM/PACK/Nuvoton/NuMicro_M2351_BSP/1.0.0/Device/M2351/StdDriver/src/crypto.c:832:47
	ldr	r0, [sp, #32]
	adds	r0, r0, #1
	str	r0, [sp, #32]
	.loc	3 832 9 is_stmt 0       @ C:/Keil_v5/ARM/PACK/Nuvoton/NuMicro_M2351_BSP/1.0.0/Device/M2351/StdDriver/src/crypto.c:832:9
	b	.LBB26_3
.Ltmp256:
.LBB26_10:                              @   in Loop: Header=BB26_1 Depth=1
	.loc	3 841 21 is_stmt 1      @ C:/Keil_v5/ARM/PACK/Nuvoton/NuMicro_M2351_BSP/1.0.0/Device/M2351/StdDriver/src/crypto.c:841:21
	ldr	r0, [sp, #28]
	.loc	3 841 9 is_stmt 0       @ C:/Keil_v5/ARM/PACK/Nuvoton/NuMicro_M2351_BSP/1.0.0/Device/M2351/StdDriver/src/crypto.c:841:9
	ldr	r1, [sp, #56]
	.loc	3 841 15                @ C:/Keil_v5/ARM/PACK/Nuvoton/NuMicro_M2351_BSP/1.0.0/Device/M2351/StdDriver/src/crypto.c:841:15
	ldr	r2, [sp, #36]
	adds	r3, r2, #1
	str	r3, [sp, #36]
	.loc	3 841 9                 @ C:/Keil_v5/ARM/PACK/Nuvoton/NuMicro_M2351_BSP/1.0.0/Device/M2351/StdDriver/src/crypto.c:841:9
	lsls	r2, r2, #2
	.loc	3 841 19                @ C:/Keil_v5/ARM/PACK/Nuvoton/NuMicro_M2351_BSP/1.0.0/Device/M2351/StdDriver/src/crypto.c:841:19
	str	r0, [r1, r2]
.Ltmp257:
	.loc	3 829 5 is_stmt 1       @ C:/Keil_v5/ARM/PACK/Nuvoton/NuMicro_M2351_BSP/1.0.0/Device/M2351/StdDriver/src/crypto.c:829:5
	b	.LBB26_1
.LBB26_11:
.Ltmp258:
	.loc	3 843 8                 @ C:/Keil_v5/ARM/PACK/Nuvoton/NuMicro_M2351_BSP/1.0.0/Device/M2351/StdDriver/src/crypto.c:843:8
	ldr	r0, [sp, #44]
.Ltmp259:
	.loc	3 843 8 is_stmt 0       @ C:/Keil_v5/ARM/PACK/Nuvoton/NuMicro_M2351_BSP/1.0.0/Device/M2351/StdDriver/src/crypto.c:843:8
	cmp	r0, #0
	beq	.LBB26_13
	b	.LBB26_12
.LBB26_12:
.Ltmp260:
	.loc	3 845 19 is_stmt 1      @ C:/Keil_v5/ARM/PACK/Nuvoton/NuMicro_M2351_BSP/1.0.0/Device/M2351/StdDriver/src/crypto.c:845:19
	ldr	r0, [sp, #44]
	.loc	3 845 9 is_stmt 0       @ C:/Keil_v5/ARM/PACK/Nuvoton/NuMicro_M2351_BSP/1.0.0/Device/M2351/StdDriver/src/crypto.c:845:9
	ldr	r1, [sp, #56]
	.loc	3 845 13                @ C:/Keil_v5/ARM/PACK/Nuvoton/NuMicro_M2351_BSP/1.0.0/Device/M2351/StdDriver/src/crypto.c:845:13
	ldr	r2, [sp, #36]
	.loc	3 845 9                 @ C:/Keil_v5/ARM/PACK/Nuvoton/NuMicro_M2351_BSP/1.0.0/Device/M2351/StdDriver/src/crypto.c:845:9
	lsls	r2, r2, #2
	.loc	3 845 17                @ C:/Keil_v5/ARM/PACK/Nuvoton/NuMicro_M2351_BSP/1.0.0/Device/M2351/StdDriver/src/crypto.c:845:17
	str	r0, [r1, r2]
	.loc	3 846 5 is_stmt 1       @ C:/Keil_v5/ARM/PACK/Nuvoton/NuMicro_M2351_BSP/1.0.0/Device/M2351/StdDriver/src/crypto.c:846:5
	b	.LBB26_13
.Ltmp261:
.LBB26_13:
	.loc	3 847 1                 @ C:/Keil_v5/ARM/PACK/Nuvoton/NuMicro_M2351_BSP/1.0.0/Device/M2351/StdDriver/src/crypto.c:847:1
	add	sp, #64
	pop	{r4, r5, r7, pc}
.Ltmp262:
.Lfunc_end26:
	.size	Hex2RegEx, .Lfunc_end26-Hex2RegEx
	.cfi_endproc
	.cantunwind
	.fnend
                                        @ -- End function
	.section	.text.ECC_GenerateSignature,"ax",%progbits
	.hidden	ECC_GenerateSignature   @ -- Begin function ECC_GenerateSignature
	.globl	ECC_GenerateSignature
	.p2align	2
	.type	ECC_GenerateSignature,%function
	.code	16                      @ @ECC_GenerateSignature
	.thumb_func
ECC_GenerateSignature:
.Lfunc_begin27:
	.loc	3 1180 0                @ C:/Keil_v5/ARM/PACK/Nuvoton/NuMicro_M2351_BSP/1.0.0/Device/M2351/StdDriver/src/crypto.c:1180:0
	.fnstart
	.cfi_startproc
@ %bb.0:
	.save	{r4, r5, r6, r7, lr}
	push	{r4, r5, r6, r7, lr}
	.cfi_def_cfa_offset 20
	.cfi_offset lr, -4
	.cfi_offset r7, -8
	.cfi_offset r6, -12
	.cfi_offset r5, -16
	.cfi_offset r4, -20
	.pad	#204
	sub	sp, #204
	.cfi_def_cfa_offset 224
	ldr	r4, [sp, #232]
	ldr	r5, [sp, #228]
	ldr	r6, [sp, #224]
	mov	r7, r3
	str	r0, [sp, #32]           @ 4-byte Spill
	mov	r0, r2
	str	r0, [sp, #28]           @ 4-byte Spill
	mov	r0, r1
	str	r0, [sp, #24]           @ 4-byte Spill
	ldr	r0, [sp, #32]           @ 4-byte Reload
	str	r0, [sp, #20]           @ 4-byte Spill
	ldr	r0, [sp, #32]           @ 4-byte Reload
	str	r0, [sp, #200]
	str	r1, [sp, #196]
	str	r2, [sp, #192]
	str	r3, [sp, #188]
	movs	r1, #0
.Ltmp263:
	.loc	3 1182 17 prologue_end  @ C:/Keil_v5/ARM/PACK/Nuvoton/NuMicro_M2351_BSP/1.0.0/Device/M2351/StdDriver/src/crypto.c:1182:17
	str	r1, [sp, #36]
.Ltmp264:
	.loc	3 1184 23               @ C:/Keil_v5/ARM/PACK/Nuvoton/NuMicro_M2351_BSP/1.0.0/Device/M2351/StdDriver/src/crypto.c:1184:23
	ldr	r0, [sp, #200]
	.loc	3 1184 29 is_stmt 0     @ C:/Keil_v5/ARM/PACK/Nuvoton/NuMicro_M2351_BSP/1.0.0/Device/M2351/StdDriver/src/crypto.c:1184:29
	ldr	r1, [sp, #196]
	.loc	3 1184 8                @ C:/Keil_v5/ARM/PACK/Nuvoton/NuMicro_M2351_BSP/1.0.0/Device/M2351/StdDriver/src/crypto.c:1184:8
	str	r5, [sp, #16]           @ 4-byte Spill
	str	r6, [sp, #12]           @ 4-byte Spill
	str	r7, [sp, #8]            @ 4-byte Spill
	str	r4, [sp, #4]            @ 4-byte Spill
	bl	ecc_init_curve
.Ltmp265:
	.loc	3 1184 8                @ C:/Keil_v5/ARM/PACK/Nuvoton/NuMicro_M2351_BSP/1.0.0/Device/M2351/StdDriver/src/crypto.c:1184:8
	cmp	r0, #0
	beq	.LBB27_2
	b	.LBB27_1
.LBB27_1:
.Ltmp266:
	.loc	3 1186 13 is_stmt 1     @ C:/Keil_v5/ARM/PACK/Nuvoton/NuMicro_M2351_BSP/1.0.0/Device/M2351/StdDriver/src/crypto.c:1186:13
	movs	r0, #0
	mvns	r0, r0
	str	r0, [sp, #36]
	.loc	3 1187 5                @ C:/Keil_v5/ARM/PACK/Nuvoton/NuMicro_M2351_BSP/1.0.0/Device/M2351/StdDriver/src/crypto.c:1187:5
	b	.LBB27_2
.Ltmp267:
.LBB27_2:
	.loc	3 1189 8                @ C:/Keil_v5/ARM/PACK/Nuvoton/NuMicro_M2351_BSP/1.0.0/Device/M2351/StdDriver/src/crypto.c:1189:8
	ldr	r0, [sp, #36]
.Ltmp268:
	.loc	3 1189 8 is_stmt 0      @ C:/Keil_v5/ARM/PACK/Nuvoton/NuMicro_M2351_BSP/1.0.0/Device/M2351/StdDriver/src/crypto.c:1189:8
	cmp	r0, #0
	beq	.LBB27_3
	b	.LBB27_68
.LBB27_3:
.Ltmp269:
	.loc	3 1221 15 is_stmt 1     @ C:/Keil_v5/ARM/PACK/Nuvoton/NuMicro_M2351_BSP/1.0.0/Device/M2351/StdDriver/src/crypto.c:1221:15
	movs	r0, #0
	str	r0, [sp, #40]
	.loc	3 1221 13 is_stmt 0     @ C:/Keil_v5/ARM/PACK/Nuvoton/NuMicro_M2351_BSP/1.0.0/Device/M2351/StdDriver/src/crypto.c:1221:13
	b	.LBB27_4
.LBB27_4:                               @ =>This Inner Loop Header: Depth=1
.Ltmp270:
	.loc	3 1221 20               @ C:/Keil_v5/ARM/PACK/Nuvoton/NuMicro_M2351_BSP/1.0.0/Device/M2351/StdDriver/src/crypto.c:1221:20
	ldr	r0, [sp, #40]
.Ltmp271:
	.loc	3 1221 9                @ C:/Keil_v5/ARM/PACK/Nuvoton/NuMicro_M2351_BSP/1.0.0/Device/M2351/StdDriver/src/crypto.c:1221:9
	cmp	r0, #17
	bgt	.LBB27_7
	b	.LBB27_5
.LBB27_5:                               @   in Loop: Header=BB27_4 Depth=1
.Ltmp272:
	.loc	3 1223 13 is_stmt 1     @ C:/Keil_v5/ARM/PACK/Nuvoton/NuMicro_M2351_BSP/1.0.0/Device/M2351/StdDriver/src/crypto.c:1223:13
	ldr	r0, [sp, #200]
	.loc	3 1223 25 is_stmt 0     @ C:/Keil_v5/ARM/PACK/Nuvoton/NuMicro_M2351_BSP/1.0.0/Device/M2351/StdDriver/src/crypto.c:1223:25
	ldr	r1, [sp, #40]
	.loc	3 1223 13               @ C:/Keil_v5/ARM/PACK/Nuvoton/NuMicro_M2351_BSP/1.0.0/Device/M2351/StdDriver/src/crypto.c:1223:13
	lsls	r1, r1, #2
	.loc	3 1223 19               @ C:/Keil_v5/ARM/PACK/Nuvoton/NuMicro_M2351_BSP/1.0.0/Device/M2351/StdDriver/src/crypto.c:1223:19
	adds	r0, r0, r1
	movw	r1, #2560
	movs	r2, #0
	.loc	3 1223 28               @ C:/Keil_v5/ARM/PACK/Nuvoton/NuMicro_M2351_BSP/1.0.0/Device/M2351/StdDriver/src/crypto.c:1223:28
	str	r2, [r0, r1]
	.loc	3 1224 9 is_stmt 1      @ C:/Keil_v5/ARM/PACK/Nuvoton/NuMicro_M2351_BSP/1.0.0/Device/M2351/StdDriver/src/crypto.c:1224:9
	b	.LBB27_6
.Ltmp273:
.LBB27_6:                               @   in Loop: Header=BB27_4 Depth=1
	.loc	3 1221 29               @ C:/Keil_v5/ARM/PACK/Nuvoton/NuMicro_M2351_BSP/1.0.0/Device/M2351/StdDriver/src/crypto.c:1221:29
	ldr	r0, [sp, #40]
	adds	r0, r0, #1
	str	r0, [sp, #40]
	.loc	3 1221 9 is_stmt 0      @ C:/Keil_v5/ARM/PACK/Nuvoton/NuMicro_M2351_BSP/1.0.0/Device/M2351/StdDriver/src/crypto.c:1221:9
	b	.LBB27_4
.Ltmp274:
.LBB27_7:
	.loc	3 1225 17 is_stmt 1     @ C:/Keil_v5/ARM/PACK/Nuvoton/NuMicro_M2351_BSP/1.0.0/Device/M2351/StdDriver/src/crypto.c:1225:17
	ldr	r0, [sp, #224]
	.loc	3 1225 20 is_stmt 0     @ C:/Keil_v5/ARM/PACK/Nuvoton/NuMicro_M2351_BSP/1.0.0/Device/M2351/StdDriver/src/crypto.c:1225:20
	ldr	r1, [sp, #200]
	.loc	3 1225 26               @ C:/Keil_v5/ARM/PACK/Nuvoton/NuMicro_M2351_BSP/1.0.0/Device/M2351/StdDriver/src/crypto.c:1225:26
	movw	r2, #2560
	adds	r1, r1, r2
	.loc	3 1225 9                @ C:/Keil_v5/ARM/PACK/Nuvoton/NuMicro_M2351_BSP/1.0.0/Device/M2351/StdDriver/src/crypto.c:1225:9
	bl	Hex2Reg
	.loc	3 1227 23 is_stmt 1     @ C:/Keil_v5/ARM/PACK/Nuvoton/NuMicro_M2351_BSP/1.0.0/Device/M2351/StdDriver/src/crypto.c:1227:23
	ldr	r0, [sp, #200]
	movs	r1, #0
	.loc	3 1227 9 is_stmt 0      @ C:/Keil_v5/ARM/PACK/Nuvoton/NuMicro_M2351_BSP/1.0.0/Device/M2351/StdDriver/src/crypto.c:1227:9
	str	r1, [sp]                @ 4-byte Spill
	bl	run_ecc_codec
.Ltmp275:
	.loc	3 1230 15 is_stmt 1     @ C:/Keil_v5/ARM/PACK/Nuvoton/NuMicro_M2351_BSP/1.0.0/Device/M2351/StdDriver/src/crypto.c:1230:15
	ldr	r0, [sp]                @ 4-byte Reload
	str	r0, [sp, #40]
	.loc	3 1230 13 is_stmt 0     @ C:/Keil_v5/ARM/PACK/Nuvoton/NuMicro_M2351_BSP/1.0.0/Device/M2351/StdDriver/src/crypto.c:1230:13
	b	.LBB27_8
.LBB27_8:                               @ =>This Inner Loop Header: Depth=1
.Ltmp276:
	.loc	3 1230 20               @ C:/Keil_v5/ARM/PACK/Nuvoton/NuMicro_M2351_BSP/1.0.0/Device/M2351/StdDriver/src/crypto.c:1230:20
	ldr	r0, [sp, #40]
.Ltmp277:
	.loc	3 1230 9                @ C:/Keil_v5/ARM/PACK/Nuvoton/NuMicro_M2351_BSP/1.0.0/Device/M2351/StdDriver/src/crypto.c:1230:9
	cmp	r0, #17
	bgt	.LBB27_11
	b	.LBB27_9
.LBB27_9:                               @   in Loop: Header=BB27_8 Depth=1
.Ltmp278:
	.loc	3 1232 13 is_stmt 1     @ C:/Keil_v5/ARM/PACK/Nuvoton/NuMicro_M2351_BSP/1.0.0/Device/M2351/StdDriver/src/crypto.c:1232:13
	ldr	r0, [sp, #200]
	.loc	3 1232 25 is_stmt 0     @ C:/Keil_v5/ARM/PACK/Nuvoton/NuMicro_M2351_BSP/1.0.0/Device/M2351/StdDriver/src/crypto.c:1232:25
	ldr	r1, [sp, #40]
	.loc	3 1232 13               @ C:/Keil_v5/ARM/PACK/Nuvoton/NuMicro_M2351_BSP/1.0.0/Device/M2351/StdDriver/src/crypto.c:1232:13
	lsls	r1, r1, #2
	.loc	3 1232 19               @ C:/Keil_v5/ARM/PACK/Nuvoton/NuMicro_M2351_BSP/1.0.0/Device/M2351/StdDriver/src/crypto.c:1232:19
	adds	r0, r0, r1
	ldr	r1, __arm_cp.27_1
	movs	r2, #0
	.loc	3 1232 28               @ C:/Keil_v5/ARM/PACK/Nuvoton/NuMicro_M2351_BSP/1.0.0/Device/M2351/StdDriver/src/crypto.c:1232:28
	str	r2, [r0, r1]
	.loc	3 1233 9 is_stmt 1      @ C:/Keil_v5/ARM/PACK/Nuvoton/NuMicro_M2351_BSP/1.0.0/Device/M2351/StdDriver/src/crypto.c:1233:9
	b	.LBB27_10
.Ltmp279:
.LBB27_10:                              @   in Loop: Header=BB27_8 Depth=1
	.loc	3 1230 29               @ C:/Keil_v5/ARM/PACK/Nuvoton/NuMicro_M2351_BSP/1.0.0/Device/M2351/StdDriver/src/crypto.c:1230:29
	ldr	r0, [sp, #40]
	adds	r0, r0, #1
	str	r0, [sp, #40]
	.loc	3 1230 9 is_stmt 0      @ C:/Keil_v5/ARM/PACK/Nuvoton/NuMicro_M2351_BSP/1.0.0/Device/M2351/StdDriver/src/crypto.c:1230:9
	b	.LBB27_8
.Ltmp280:
.LBB27_11:
	.loc	3 1234 17 is_stmt 1     @ C:/Keil_v5/ARM/PACK/Nuvoton/NuMicro_M2351_BSP/1.0.0/Device/M2351/StdDriver/src/crypto.c:1234:17
	ldr	r0, __arm_cp.27_0
	ldr	r0, [r0]
	.loc	3 1234 25 is_stmt 0     @ C:/Keil_v5/ARM/PACK/Nuvoton/NuMicro_M2351_BSP/1.0.0/Device/M2351/StdDriver/src/crypto.c:1234:25
	movw	r1, #768
	adds	r0, r0, r1
	.loc	3 1234 33               @ C:/Keil_v5/ARM/PACK/Nuvoton/NuMicro_M2351_BSP/1.0.0/Device/M2351/StdDriver/src/crypto.c:1234:33
	ldr	r1, [sp, #200]
	.loc	3 1234 39               @ C:/Keil_v5/ARM/PACK/Nuvoton/NuMicro_M2351_BSP/1.0.0/Device/M2351/StdDriver/src/crypto.c:1234:39
	ldr	r2, __arm_cp.27_1
	adds	r1, r1, r2
	.loc	3 1234 9                @ C:/Keil_v5/ARM/PACK/Nuvoton/NuMicro_M2351_BSP/1.0.0/Device/M2351/StdDriver/src/crypto.c:1234:9
	bl	Hex2Reg
	movs	r0, #0
.Ltmp281:
	.loc	3 1237 15 is_stmt 1     @ C:/Keil_v5/ARM/PACK/Nuvoton/NuMicro_M2351_BSP/1.0.0/Device/M2351/StdDriver/src/crypto.c:1237:15
	str	r0, [sp, #40]
	.loc	3 1237 13 is_stmt 0     @ C:/Keil_v5/ARM/PACK/Nuvoton/NuMicro_M2351_BSP/1.0.0/Device/M2351/StdDriver/src/crypto.c:1237:13
	b	.LBB27_12
.LBB27_12:                              @ =>This Inner Loop Header: Depth=1
.Ltmp282:
	.loc	3 1237 20               @ C:/Keil_v5/ARM/PACK/Nuvoton/NuMicro_M2351_BSP/1.0.0/Device/M2351/StdDriver/src/crypto.c:1237:20
	ldr	r0, [sp, #40]
.Ltmp283:
	.loc	3 1237 9                @ C:/Keil_v5/ARM/PACK/Nuvoton/NuMicro_M2351_BSP/1.0.0/Device/M2351/StdDriver/src/crypto.c:1237:9
	cmp	r0, #17
	bgt	.LBB27_15
	b	.LBB27_13
.LBB27_13:                              @   in Loop: Header=BB27_12 Depth=1
.Ltmp284:
	.loc	3 1239 13 is_stmt 1     @ C:/Keil_v5/ARM/PACK/Nuvoton/NuMicro_M2351_BSP/1.0.0/Device/M2351/StdDriver/src/crypto.c:1239:13
	ldr	r0, [sp, #200]
	.loc	3 1239 26 is_stmt 0     @ C:/Keil_v5/ARM/PACK/Nuvoton/NuMicro_M2351_BSP/1.0.0/Device/M2351/StdDriver/src/crypto.c:1239:26
	ldr	r1, [sp, #40]
	.loc	3 1239 13               @ C:/Keil_v5/ARM/PACK/Nuvoton/NuMicro_M2351_BSP/1.0.0/Device/M2351/StdDriver/src/crypto.c:1239:13
	lsls	r1, r1, #2
	.loc	3 1239 19               @ C:/Keil_v5/ARM/PACK/Nuvoton/NuMicro_M2351_BSP/1.0.0/Device/M2351/StdDriver/src/crypto.c:1239:19
	adds	r0, r0, r1
	movw	r1, #2128
	movs	r2, #0
	.loc	3 1239 29               @ C:/Keil_v5/ARM/PACK/Nuvoton/NuMicro_M2351_BSP/1.0.0/Device/M2351/StdDriver/src/crypto.c:1239:29
	str	r2, [r0, r1]
	.loc	3 1240 9 is_stmt 1      @ C:/Keil_v5/ARM/PACK/Nuvoton/NuMicro_M2351_BSP/1.0.0/Device/M2351/StdDriver/src/crypto.c:1240:9
	b	.LBB27_14
.Ltmp285:
.LBB27_14:                              @   in Loop: Header=BB27_12 Depth=1
	.loc	3 1237 29               @ C:/Keil_v5/ARM/PACK/Nuvoton/NuMicro_M2351_BSP/1.0.0/Device/M2351/StdDriver/src/crypto.c:1237:29
	ldr	r0, [sp, #40]
	adds	r0, r0, #1
	str	r0, [sp, #40]
	.loc	3 1237 9 is_stmt 0      @ C:/Keil_v5/ARM/PACK/Nuvoton/NuMicro_M2351_BSP/1.0.0/Device/M2351/StdDriver/src/crypto.c:1237:9
	b	.LBB27_12
.Ltmp286:
.LBB27_15:
	.loc	3 1242 23 is_stmt 1     @ C:/Keil_v5/ARM/PACK/Nuvoton/NuMicro_M2351_BSP/1.0.0/Device/M2351/StdDriver/src/crypto.c:1242:23
	ldr	r0, [sp, #200]
	.loc	3 1242 9 is_stmt 0      @ C:/Keil_v5/ARM/PACK/Nuvoton/NuMicro_M2351_BSP/1.0.0/Device/M2351/StdDriver/src/crypto.c:1242:9
	movw	r1, #4608
	bl	run_ecc_codec
	movs	r0, #0
.Ltmp287:
	.loc	3 1245 15 is_stmt 1     @ C:/Keil_v5/ARM/PACK/Nuvoton/NuMicro_M2351_BSP/1.0.0/Device/M2351/StdDriver/src/crypto.c:1245:15
	str	r0, [sp, #40]
	.loc	3 1245 13 is_stmt 0     @ C:/Keil_v5/ARM/PACK/Nuvoton/NuMicro_M2351_BSP/1.0.0/Device/M2351/StdDriver/src/crypto.c:1245:13
	b	.LBB27_16
.LBB27_16:                              @ =>This Inner Loop Header: Depth=1
.Ltmp288:
	.loc	3 1245 20               @ C:/Keil_v5/ARM/PACK/Nuvoton/NuMicro_M2351_BSP/1.0.0/Device/M2351/StdDriver/src/crypto.c:1245:20
	ldr	r0, [sp, #40]
.Ltmp289:
	.loc	3 1245 9                @ C:/Keil_v5/ARM/PACK/Nuvoton/NuMicro_M2351_BSP/1.0.0/Device/M2351/StdDriver/src/crypto.c:1245:9
	cmp	r0, #17
	bgt	.LBB27_19
	b	.LBB27_17
.LBB27_17:                              @   in Loop: Header=BB27_16 Depth=1
.Ltmp290:
	.loc	3 1247 31 is_stmt 1     @ C:/Keil_v5/ARM/PACK/Nuvoton/NuMicro_M2351_BSP/1.0.0/Device/M2351/StdDriver/src/crypto.c:1247:31
	ldr	r0, [sp, #200]
	.loc	3 1247 44 is_stmt 0     @ C:/Keil_v5/ARM/PACK/Nuvoton/NuMicro_M2351_BSP/1.0.0/Device/M2351/StdDriver/src/crypto.c:1247:44
	ldr	r1, [sp, #40]
	.loc	3 1247 31               @ C:/Keil_v5/ARM/PACK/Nuvoton/NuMicro_M2351_BSP/1.0.0/Device/M2351/StdDriver/src/crypto.c:1247:31
	lsls	r1, r1, #2
	.loc	3 1247 37               @ C:/Keil_v5/ARM/PACK/Nuvoton/NuMicro_M2351_BSP/1.0.0/Device/M2351/StdDriver/src/crypto.c:1247:37
	adds	r0, r0, r1
	ldr	r1, __arm_cp.27_2
	.loc	3 1247 31               @ C:/Keil_v5/ARM/PACK/Nuvoton/NuMicro_M2351_BSP/1.0.0/Device/M2351/StdDriver/src/crypto.c:1247:31
	ldr	r0, [r0, r1]
	.loc	3 1247 26               @ C:/Keil_v5/ARM/PACK/Nuvoton/NuMicro_M2351_BSP/1.0.0/Device/M2351/StdDriver/src/crypto.c:1247:26
	ldr	r1, [sp, #40]
	.loc	3 1247 13               @ C:/Keil_v5/ARM/PACK/Nuvoton/NuMicro_M2351_BSP/1.0.0/Device/M2351/StdDriver/src/crypto.c:1247:13
	lsls	r1, r1, #2
	add	r2, sp, #116
	.loc	3 1247 29               @ C:/Keil_v5/ARM/PACK/Nuvoton/NuMicro_M2351_BSP/1.0.0/Device/M2351/StdDriver/src/crypto.c:1247:29
	str	r0, [r2, r1]
	.loc	3 1248 9 is_stmt 1      @ C:/Keil_v5/ARM/PACK/Nuvoton/NuMicro_M2351_BSP/1.0.0/Device/M2351/StdDriver/src/crypto.c:1248:9
	b	.LBB27_18
.Ltmp291:
.LBB27_18:                              @   in Loop: Header=BB27_16 Depth=1
	.loc	3 1245 29               @ C:/Keil_v5/ARM/PACK/Nuvoton/NuMicro_M2351_BSP/1.0.0/Device/M2351/StdDriver/src/crypto.c:1245:29
	ldr	r0, [sp, #40]
	adds	r0, r0, #1
	str	r0, [sp, #40]
	.loc	3 1245 9 is_stmt 0      @ C:/Keil_v5/ARM/PACK/Nuvoton/NuMicro_M2351_BSP/1.0.0/Device/M2351/StdDriver/src/crypto.c:1245:9
	b	.LBB27_16
.Ltmp292:
.LBB27_19:
	.loc	3 1250 17 is_stmt 1     @ C:/Keil_v5/ARM/PACK/Nuvoton/NuMicro_M2351_BSP/1.0.0/Device/M2351/StdDriver/src/crypto.c:1250:17
	ldr	r0, __arm_cp.27_0
	ldr	r0, [r0]
	.loc	3 1250 25 is_stmt 0     @ C:/Keil_v5/ARM/PACK/Nuvoton/NuMicro_M2351_BSP/1.0.0/Device/M2351/StdDriver/src/crypto.c:1250:25
	ldr	r0, [r0, #4]
	.loc	3 1250 46               @ C:/Keil_v5/ARM/PACK/Nuvoton/NuMicro_M2351_BSP/1.0.0/Device/M2351/StdDriver/src/crypto.c:1250:46
	ldr	r2, [sp, #228]
	add	r1, sp, #116
	.loc	3 1250 9                @ C:/Keil_v5/ARM/PACK/Nuvoton/NuMicro_M2351_BSP/1.0.0/Device/M2351/StdDriver/src/crypto.c:1250:9
	bl	Reg2Hex
	movs	r0, #0
.Ltmp293:
	.loc	3 1286 15 is_stmt 1     @ C:/Keil_v5/ARM/PACK/Nuvoton/NuMicro_M2351_BSP/1.0.0/Device/M2351/StdDriver/src/crypto.c:1286:15
	str	r0, [sp, #40]
	.loc	3 1286 13 is_stmt 0     @ C:/Keil_v5/ARM/PACK/Nuvoton/NuMicro_M2351_BSP/1.0.0/Device/M2351/StdDriver/src/crypto.c:1286:13
	b	.LBB27_20
.LBB27_20:                              @ =>This Inner Loop Header: Depth=1
.Ltmp294:
	.loc	3 1286 20               @ C:/Keil_v5/ARM/PACK/Nuvoton/NuMicro_M2351_BSP/1.0.0/Device/M2351/StdDriver/src/crypto.c:1286:20
	ldr	r0, [sp, #40]
.Ltmp295:
	.loc	3 1286 9                @ C:/Keil_v5/ARM/PACK/Nuvoton/NuMicro_M2351_BSP/1.0.0/Device/M2351/StdDriver/src/crypto.c:1286:9
	cmp	r0, #17
	bgt	.LBB27_23
	b	.LBB27_21
.LBB27_21:                              @   in Loop: Header=BB27_20 Depth=1
.Ltmp296:
	.loc	3 1288 13 is_stmt 1     @ C:/Keil_v5/ARM/PACK/Nuvoton/NuMicro_M2351_BSP/1.0.0/Device/M2351/StdDriver/src/crypto.c:1288:13
	ldr	r0, [sp, #200]
	.loc	3 1288 25 is_stmt 0     @ C:/Keil_v5/ARM/PACK/Nuvoton/NuMicro_M2351_BSP/1.0.0/Device/M2351/StdDriver/src/crypto.c:1288:25
	ldr	r1, [sp, #40]
	.loc	3 1288 13               @ C:/Keil_v5/ARM/PACK/Nuvoton/NuMicro_M2351_BSP/1.0.0/Device/M2351/StdDriver/src/crypto.c:1288:13
	lsls	r1, r1, #2
	.loc	3 1288 19               @ C:/Keil_v5/ARM/PACK/Nuvoton/NuMicro_M2351_BSP/1.0.0/Device/M2351/StdDriver/src/crypto.c:1288:19
	adds	r0, r0, r1
	ldr	r1, __arm_cp.27_1
	movs	r2, #0
	.loc	3 1288 28               @ C:/Keil_v5/ARM/PACK/Nuvoton/NuMicro_M2351_BSP/1.0.0/Device/M2351/StdDriver/src/crypto.c:1288:28
	str	r2, [r0, r1]
	.loc	3 1289 9 is_stmt 1      @ C:/Keil_v5/ARM/PACK/Nuvoton/NuMicro_M2351_BSP/1.0.0/Device/M2351/StdDriver/src/crypto.c:1289:9
	b	.LBB27_22
.Ltmp297:
.LBB27_22:                              @   in Loop: Header=BB27_20 Depth=1
	.loc	3 1286 29               @ C:/Keil_v5/ARM/PACK/Nuvoton/NuMicro_M2351_BSP/1.0.0/Device/M2351/StdDriver/src/crypto.c:1286:29
	ldr	r0, [sp, #40]
	adds	r0, r0, #1
	str	r0, [sp, #40]
	.loc	3 1286 9 is_stmt 0      @ C:/Keil_v5/ARM/PACK/Nuvoton/NuMicro_M2351_BSP/1.0.0/Device/M2351/StdDriver/src/crypto.c:1286:9
	b	.LBB27_20
.Ltmp298:
.LBB27_23:
	.loc	3 1290 17 is_stmt 1     @ C:/Keil_v5/ARM/PACK/Nuvoton/NuMicro_M2351_BSP/1.0.0/Device/M2351/StdDriver/src/crypto.c:1290:17
	ldr	r0, __arm_cp.27_0
	ldr	r0, [r0]
	.loc	3 1290 25 is_stmt 0     @ C:/Keil_v5/ARM/PACK/Nuvoton/NuMicro_M2351_BSP/1.0.0/Device/M2351/StdDriver/src/crypto.c:1290:25
	movw	r1, #768
	adds	r0, r0, r1
	.loc	3 1290 33               @ C:/Keil_v5/ARM/PACK/Nuvoton/NuMicro_M2351_BSP/1.0.0/Device/M2351/StdDriver/src/crypto.c:1290:33
	ldr	r1, [sp, #200]
	.loc	3 1290 39               @ C:/Keil_v5/ARM/PACK/Nuvoton/NuMicro_M2351_BSP/1.0.0/Device/M2351/StdDriver/src/crypto.c:1290:39
	ldr	r2, __arm_cp.27_1
	adds	r1, r1, r2
	.loc	3 1290 9                @ C:/Keil_v5/ARM/PACK/Nuvoton/NuMicro_M2351_BSP/1.0.0/Device/M2351/StdDriver/src/crypto.c:1290:9
	bl	Hex2Reg
	movs	r0, #0
.Ltmp299:
	.loc	3 1293 15 is_stmt 1     @ C:/Keil_v5/ARM/PACK/Nuvoton/NuMicro_M2351_BSP/1.0.0/Device/M2351/StdDriver/src/crypto.c:1293:15
	str	r0, [sp, #40]
	.loc	3 1293 13 is_stmt 0     @ C:/Keil_v5/ARM/PACK/Nuvoton/NuMicro_M2351_BSP/1.0.0/Device/M2351/StdDriver/src/crypto.c:1293:13
	b	.LBB27_24
.LBB27_24:                              @ =>This Inner Loop Header: Depth=1
.Ltmp300:
	.loc	3 1293 20               @ C:/Keil_v5/ARM/PACK/Nuvoton/NuMicro_M2351_BSP/1.0.0/Device/M2351/StdDriver/src/crypto.c:1293:20
	ldr	r0, [sp, #40]
.Ltmp301:
	.loc	3 1293 9                @ C:/Keil_v5/ARM/PACK/Nuvoton/NuMicro_M2351_BSP/1.0.0/Device/M2351/StdDriver/src/crypto.c:1293:9
	cmp	r0, #17
	bgt	.LBB27_27
	b	.LBB27_25
.LBB27_25:                              @   in Loop: Header=BB27_24 Depth=1
.Ltmp302:
	.loc	3 1295 13 is_stmt 1     @ C:/Keil_v5/ARM/PACK/Nuvoton/NuMicro_M2351_BSP/1.0.0/Device/M2351/StdDriver/src/crypto.c:1295:13
	ldr	r0, [sp, #200]
	.loc	3 1295 26 is_stmt 0     @ C:/Keil_v5/ARM/PACK/Nuvoton/NuMicro_M2351_BSP/1.0.0/Device/M2351/StdDriver/src/crypto.c:1295:26
	ldr	r1, [sp, #40]
	.loc	3 1295 13               @ C:/Keil_v5/ARM/PACK/Nuvoton/NuMicro_M2351_BSP/1.0.0/Device/M2351/StdDriver/src/crypto.c:1295:13
	lsls	r1, r1, #2
	.loc	3 1295 19               @ C:/Keil_v5/ARM/PACK/Nuvoton/NuMicro_M2351_BSP/1.0.0/Device/M2351/StdDriver/src/crypto.c:1295:19
	adds	r0, r0, r1
	movw	r1, #2128
	movs	r2, #0
	.loc	3 1295 29               @ C:/Keil_v5/ARM/PACK/Nuvoton/NuMicro_M2351_BSP/1.0.0/Device/M2351/StdDriver/src/crypto.c:1295:29
	str	r2, [r0, r1]
	.loc	3 1296 9 is_stmt 1      @ C:/Keil_v5/ARM/PACK/Nuvoton/NuMicro_M2351_BSP/1.0.0/Device/M2351/StdDriver/src/crypto.c:1296:9
	b	.LBB27_26
.Ltmp303:
.LBB27_26:                              @   in Loop: Header=BB27_24 Depth=1
	.loc	3 1293 29               @ C:/Keil_v5/ARM/PACK/Nuvoton/NuMicro_M2351_BSP/1.0.0/Device/M2351/StdDriver/src/crypto.c:1293:29
	ldr	r0, [sp, #40]
	adds	r0, r0, #1
	str	r0, [sp, #40]
	.loc	3 1293 9 is_stmt 0      @ C:/Keil_v5/ARM/PACK/Nuvoton/NuMicro_M2351_BSP/1.0.0/Device/M2351/StdDriver/src/crypto.c:1293:9
	b	.LBB27_24
.Ltmp304:
.LBB27_27:
	.loc	3 1297 9 is_stmt 1      @ C:/Keil_v5/ARM/PACK/Nuvoton/NuMicro_M2351_BSP/1.0.0/Device/M2351/StdDriver/src/crypto.c:1297:9
	ldr	r0, [sp, #200]
	.loc	3 1297 15 is_stmt 0     @ C:/Keil_v5/ARM/PACK/Nuvoton/NuMicro_M2351_BSP/1.0.0/Device/M2351/StdDriver/src/crypto.c:1297:15
	movw	r1, #2128
	.loc	3 1297 25               @ C:/Keil_v5/ARM/PACK/Nuvoton/NuMicro_M2351_BSP/1.0.0/Device/M2351/StdDriver/src/crypto.c:1297:25
	movs	r2, #1
	str	r2, [r0, r1]
	movs	r0, #0
.Ltmp305:
	.loc	3 1300 15 is_stmt 1     @ C:/Keil_v5/ARM/PACK/Nuvoton/NuMicro_M2351_BSP/1.0.0/Device/M2351/StdDriver/src/crypto.c:1300:15
	str	r0, [sp, #40]
	.loc	3 1300 13 is_stmt 0     @ C:/Keil_v5/ARM/PACK/Nuvoton/NuMicro_M2351_BSP/1.0.0/Device/M2351/StdDriver/src/crypto.c:1300:13
	b	.LBB27_28
.LBB27_28:                              @ =>This Inner Loop Header: Depth=1
.Ltmp306:
	.loc	3 1300 20               @ C:/Keil_v5/ARM/PACK/Nuvoton/NuMicro_M2351_BSP/1.0.0/Device/M2351/StdDriver/src/crypto.c:1300:20
	ldr	r0, [sp, #40]
.Ltmp307:
	.loc	3 1300 9                @ C:/Keil_v5/ARM/PACK/Nuvoton/NuMicro_M2351_BSP/1.0.0/Device/M2351/StdDriver/src/crypto.c:1300:9
	cmp	r0, #17
	bgt	.LBB27_31
	b	.LBB27_29
.LBB27_29:                              @   in Loop: Header=BB27_28 Depth=1
.Ltmp308:
	.loc	3 1302 13 is_stmt 1     @ C:/Keil_v5/ARM/PACK/Nuvoton/NuMicro_M2351_BSP/1.0.0/Device/M2351/StdDriver/src/crypto.c:1302:13
	ldr	r0, [sp, #200]
	.loc	3 1302 26 is_stmt 0     @ C:/Keil_v5/ARM/PACK/Nuvoton/NuMicro_M2351_BSP/1.0.0/Device/M2351/StdDriver/src/crypto.c:1302:26
	ldr	r1, [sp, #40]
	.loc	3 1302 13               @ C:/Keil_v5/ARM/PACK/Nuvoton/NuMicro_M2351_BSP/1.0.0/Device/M2351/StdDriver/src/crypto.c:1302:13
	lsls	r1, r1, #2
	.loc	3 1302 19               @ C:/Keil_v5/ARM/PACK/Nuvoton/NuMicro_M2351_BSP/1.0.0/Device/M2351/StdDriver/src/crypto.c:1302:19
	adds	r0, r0, r1
	ldr	r1, __arm_cp.27_2
	movs	r2, #0
	.loc	3 1302 29               @ C:/Keil_v5/ARM/PACK/Nuvoton/NuMicro_M2351_BSP/1.0.0/Device/M2351/StdDriver/src/crypto.c:1302:29
	str	r2, [r0, r1]
	.loc	3 1303 9 is_stmt 1      @ C:/Keil_v5/ARM/PACK/Nuvoton/NuMicro_M2351_BSP/1.0.0/Device/M2351/StdDriver/src/crypto.c:1303:9
	b	.LBB27_30
.Ltmp309:
.LBB27_30:                              @   in Loop: Header=BB27_28 Depth=1
	.loc	3 1300 29               @ C:/Keil_v5/ARM/PACK/Nuvoton/NuMicro_M2351_BSP/1.0.0/Device/M2351/StdDriver/src/crypto.c:1300:29
	ldr	r0, [sp, #40]
	adds	r0, r0, #1
	str	r0, [sp, #40]
	.loc	3 1300 9 is_stmt 0      @ C:/Keil_v5/ARM/PACK/Nuvoton/NuMicro_M2351_BSP/1.0.0/Device/M2351/StdDriver/src/crypto.c:1300:9
	b	.LBB27_28
.Ltmp310:
.LBB27_31:
	.loc	3 1304 17 is_stmt 1     @ C:/Keil_v5/ARM/PACK/Nuvoton/NuMicro_M2351_BSP/1.0.0/Device/M2351/StdDriver/src/crypto.c:1304:17
	ldr	r0, [sp, #224]
	.loc	3 1304 20 is_stmt 0     @ C:/Keil_v5/ARM/PACK/Nuvoton/NuMicro_M2351_BSP/1.0.0/Device/M2351/StdDriver/src/crypto.c:1304:20
	ldr	r1, [sp, #200]
	.loc	3 1304 26               @ C:/Keil_v5/ARM/PACK/Nuvoton/NuMicro_M2351_BSP/1.0.0/Device/M2351/StdDriver/src/crypto.c:1304:26
	ldr	r2, __arm_cp.27_2
	adds	r1, r1, r2
	.loc	3 1304 9                @ C:/Keil_v5/ARM/PACK/Nuvoton/NuMicro_M2351_BSP/1.0.0/Device/M2351/StdDriver/src/crypto.c:1304:9
	bl	Hex2Reg
	.loc	3 1306 23 is_stmt 1     @ C:/Keil_v5/ARM/PACK/Nuvoton/NuMicro_M2351_BSP/1.0.0/Device/M2351/StdDriver/src/crypto.c:1306:23
	ldr	r0, [sp, #200]
	.loc	3 1306 9 is_stmt 0      @ C:/Keil_v5/ARM/PACK/Nuvoton/NuMicro_M2351_BSP/1.0.0/Device/M2351/StdDriver/src/crypto.c:1306:9
	movw	r1, #512
	bl	run_ecc_codec
	movs	r0, #0
.Ltmp311:
	.loc	3 1315 15 is_stmt 1     @ C:/Keil_v5/ARM/PACK/Nuvoton/NuMicro_M2351_BSP/1.0.0/Device/M2351/StdDriver/src/crypto.c:1315:15
	str	r0, [sp, #40]
	.loc	3 1315 13 is_stmt 0     @ C:/Keil_v5/ARM/PACK/Nuvoton/NuMicro_M2351_BSP/1.0.0/Device/M2351/StdDriver/src/crypto.c:1315:13
	b	.LBB27_32
.LBB27_32:                              @ =>This Inner Loop Header: Depth=1
.Ltmp312:
	.loc	3 1315 20               @ C:/Keil_v5/ARM/PACK/Nuvoton/NuMicro_M2351_BSP/1.0.0/Device/M2351/StdDriver/src/crypto.c:1315:20
	ldr	r0, [sp, #40]
.Ltmp313:
	.loc	3 1315 9                @ C:/Keil_v5/ARM/PACK/Nuvoton/NuMicro_M2351_BSP/1.0.0/Device/M2351/StdDriver/src/crypto.c:1315:9
	cmp	r0, #17
	bgt	.LBB27_35
	b	.LBB27_33
.LBB27_33:                              @   in Loop: Header=BB27_32 Depth=1
.Ltmp314:
	.loc	3 1317 31 is_stmt 1     @ C:/Keil_v5/ARM/PACK/Nuvoton/NuMicro_M2351_BSP/1.0.0/Device/M2351/StdDriver/src/crypto.c:1317:31
	ldr	r0, [sp, #200]
	.loc	3 1317 44 is_stmt 0     @ C:/Keil_v5/ARM/PACK/Nuvoton/NuMicro_M2351_BSP/1.0.0/Device/M2351/StdDriver/src/crypto.c:1317:44
	ldr	r1, [sp, #40]
	.loc	3 1317 31               @ C:/Keil_v5/ARM/PACK/Nuvoton/NuMicro_M2351_BSP/1.0.0/Device/M2351/StdDriver/src/crypto.c:1317:31
	lsls	r1, r1, #2
	.loc	3 1317 37               @ C:/Keil_v5/ARM/PACK/Nuvoton/NuMicro_M2351_BSP/1.0.0/Device/M2351/StdDriver/src/crypto.c:1317:37
	adds	r0, r0, r1
	ldr	r1, __arm_cp.27_2
	.loc	3 1317 31               @ C:/Keil_v5/ARM/PACK/Nuvoton/NuMicro_M2351_BSP/1.0.0/Device/M2351/StdDriver/src/crypto.c:1317:31
	ldr	r0, [r0, r1]
	.loc	3 1317 26               @ C:/Keil_v5/ARM/PACK/Nuvoton/NuMicro_M2351_BSP/1.0.0/Device/M2351/StdDriver/src/crypto.c:1317:26
	ldr	r1, [sp, #40]
	.loc	3 1317 13               @ C:/Keil_v5/ARM/PACK/Nuvoton/NuMicro_M2351_BSP/1.0.0/Device/M2351/StdDriver/src/crypto.c:1317:13
	lsls	r1, r1, #2
	add	r2, sp, #44
	.loc	3 1317 29               @ C:/Keil_v5/ARM/PACK/Nuvoton/NuMicro_M2351_BSP/1.0.0/Device/M2351/StdDriver/src/crypto.c:1317:29
	str	r0, [r2, r1]
	.loc	3 1318 9 is_stmt 1      @ C:/Keil_v5/ARM/PACK/Nuvoton/NuMicro_M2351_BSP/1.0.0/Device/M2351/StdDriver/src/crypto.c:1318:9
	b	.LBB27_34
.Ltmp315:
.LBB27_34:                              @   in Loop: Header=BB27_32 Depth=1
	.loc	3 1315 29               @ C:/Keil_v5/ARM/PACK/Nuvoton/NuMicro_M2351_BSP/1.0.0/Device/M2351/StdDriver/src/crypto.c:1315:29
	ldr	r0, [sp, #40]
	adds	r0, r0, #1
	str	r0, [sp, #40]
	.loc	3 1315 9 is_stmt 0      @ C:/Keil_v5/ARM/PACK/Nuvoton/NuMicro_M2351_BSP/1.0.0/Device/M2351/StdDriver/src/crypto.c:1315:9
	b	.LBB27_32
.Ltmp316:
.LBB27_35:
	.loc	3 1326 15 is_stmt 1     @ C:/Keil_v5/ARM/PACK/Nuvoton/NuMicro_M2351_BSP/1.0.0/Device/M2351/StdDriver/src/crypto.c:1326:15
	movs	r0, #0
	str	r0, [sp, #40]
	.loc	3 1326 13 is_stmt 0     @ C:/Keil_v5/ARM/PACK/Nuvoton/NuMicro_M2351_BSP/1.0.0/Device/M2351/StdDriver/src/crypto.c:1326:13
	b	.LBB27_36
.LBB27_36:                              @ =>This Inner Loop Header: Depth=1
.Ltmp317:
	.loc	3 1326 20               @ C:/Keil_v5/ARM/PACK/Nuvoton/NuMicro_M2351_BSP/1.0.0/Device/M2351/StdDriver/src/crypto.c:1326:20
	ldr	r0, [sp, #40]
.Ltmp318:
	.loc	3 1326 9                @ C:/Keil_v5/ARM/PACK/Nuvoton/NuMicro_M2351_BSP/1.0.0/Device/M2351/StdDriver/src/crypto.c:1326:9
	cmp	r0, #17
	bgt	.LBB27_39
	b	.LBB27_37
.LBB27_37:                              @   in Loop: Header=BB27_36 Depth=1
.Ltmp319:
	.loc	3 1328 13 is_stmt 1     @ C:/Keil_v5/ARM/PACK/Nuvoton/NuMicro_M2351_BSP/1.0.0/Device/M2351/StdDriver/src/crypto.c:1328:13
	ldr	r0, [sp, #200]
	.loc	3 1328 25 is_stmt 0     @ C:/Keil_v5/ARM/PACK/Nuvoton/NuMicro_M2351_BSP/1.0.0/Device/M2351/StdDriver/src/crypto.c:1328:25
	ldr	r1, [sp, #40]
	.loc	3 1328 13               @ C:/Keil_v5/ARM/PACK/Nuvoton/NuMicro_M2351_BSP/1.0.0/Device/M2351/StdDriver/src/crypto.c:1328:13
	lsls	r1, r1, #2
	.loc	3 1328 19               @ C:/Keil_v5/ARM/PACK/Nuvoton/NuMicro_M2351_BSP/1.0.0/Device/M2351/StdDriver/src/crypto.c:1328:19
	adds	r0, r0, r1
	ldr	r1, __arm_cp.27_1
	movs	r2, #0
	.loc	3 1328 28               @ C:/Keil_v5/ARM/PACK/Nuvoton/NuMicro_M2351_BSP/1.0.0/Device/M2351/StdDriver/src/crypto.c:1328:28
	str	r2, [r0, r1]
	.loc	3 1329 9 is_stmt 1      @ C:/Keil_v5/ARM/PACK/Nuvoton/NuMicro_M2351_BSP/1.0.0/Device/M2351/StdDriver/src/crypto.c:1329:9
	b	.LBB27_38
.Ltmp320:
.LBB27_38:                              @   in Loop: Header=BB27_36 Depth=1
	.loc	3 1326 29               @ C:/Keil_v5/ARM/PACK/Nuvoton/NuMicro_M2351_BSP/1.0.0/Device/M2351/StdDriver/src/crypto.c:1326:29
	ldr	r0, [sp, #40]
	adds	r0, r0, #1
	str	r0, [sp, #40]
	.loc	3 1326 9 is_stmt 0      @ C:/Keil_v5/ARM/PACK/Nuvoton/NuMicro_M2351_BSP/1.0.0/Device/M2351/StdDriver/src/crypto.c:1326:9
	b	.LBB27_36
.Ltmp321:
.LBB27_39:
	.loc	3 1330 17 is_stmt 1     @ C:/Keil_v5/ARM/PACK/Nuvoton/NuMicro_M2351_BSP/1.0.0/Device/M2351/StdDriver/src/crypto.c:1330:17
	ldr	r0, __arm_cp.27_0
	ldr	r0, [r0]
	.loc	3 1330 25 is_stmt 0     @ C:/Keil_v5/ARM/PACK/Nuvoton/NuMicro_M2351_BSP/1.0.0/Device/M2351/StdDriver/src/crypto.c:1330:25
	movw	r1, #768
	adds	r0, r0, r1
	.loc	3 1330 33               @ C:/Keil_v5/ARM/PACK/Nuvoton/NuMicro_M2351_BSP/1.0.0/Device/M2351/StdDriver/src/crypto.c:1330:33
	ldr	r1, [sp, #200]
	.loc	3 1330 39               @ C:/Keil_v5/ARM/PACK/Nuvoton/NuMicro_M2351_BSP/1.0.0/Device/M2351/StdDriver/src/crypto.c:1330:39
	ldr	r2, __arm_cp.27_1
	adds	r1, r1, r2
	.loc	3 1330 9                @ C:/Keil_v5/ARM/PACK/Nuvoton/NuMicro_M2351_BSP/1.0.0/Device/M2351/StdDriver/src/crypto.c:1330:9
	bl	Hex2Reg
	movs	r0, #0
.Ltmp322:
	.loc	3 1333 15 is_stmt 1     @ C:/Keil_v5/ARM/PACK/Nuvoton/NuMicro_M2351_BSP/1.0.0/Device/M2351/StdDriver/src/crypto.c:1333:15
	str	r0, [sp, #40]
	.loc	3 1333 13 is_stmt 0     @ C:/Keil_v5/ARM/PACK/Nuvoton/NuMicro_M2351_BSP/1.0.0/Device/M2351/StdDriver/src/crypto.c:1333:13
	b	.LBB27_40
.LBB27_40:                              @ =>This Inner Loop Header: Depth=1
.Ltmp323:
	.loc	3 1333 20               @ C:/Keil_v5/ARM/PACK/Nuvoton/NuMicro_M2351_BSP/1.0.0/Device/M2351/StdDriver/src/crypto.c:1333:20
	ldr	r0, [sp, #40]
.Ltmp324:
	.loc	3 1333 9                @ C:/Keil_v5/ARM/PACK/Nuvoton/NuMicro_M2351_BSP/1.0.0/Device/M2351/StdDriver/src/crypto.c:1333:9
	cmp	r0, #17
	bgt	.LBB27_43
	b	.LBB27_41
.LBB27_41:                              @   in Loop: Header=BB27_40 Depth=1
.Ltmp325:
	.loc	3 1335 44 is_stmt 1     @ C:/Keil_v5/ARM/PACK/Nuvoton/NuMicro_M2351_BSP/1.0.0/Device/M2351/StdDriver/src/crypto.c:1335:44
	ldr	r0, [sp, #40]
	.loc	3 1335 31 is_stmt 0     @ C:/Keil_v5/ARM/PACK/Nuvoton/NuMicro_M2351_BSP/1.0.0/Device/M2351/StdDriver/src/crypto.c:1335:31
	lsls	r0, r0, #2
	add	r1, sp, #116
	ldr	r0, [r1, r0]
	.loc	3 1335 13               @ C:/Keil_v5/ARM/PACK/Nuvoton/NuMicro_M2351_BSP/1.0.0/Device/M2351/StdDriver/src/crypto.c:1335:13
	ldr	r1, [sp, #200]
	.loc	3 1335 26               @ C:/Keil_v5/ARM/PACK/Nuvoton/NuMicro_M2351_BSP/1.0.0/Device/M2351/StdDriver/src/crypto.c:1335:26
	ldr	r2, [sp, #40]
	.loc	3 1335 13               @ C:/Keil_v5/ARM/PACK/Nuvoton/NuMicro_M2351_BSP/1.0.0/Device/M2351/StdDriver/src/crypto.c:1335:13
	lsls	r2, r2, #2
	.loc	3 1335 19               @ C:/Keil_v5/ARM/PACK/Nuvoton/NuMicro_M2351_BSP/1.0.0/Device/M2351/StdDriver/src/crypto.c:1335:19
	adds	r1, r1, r2
	ldr	r2, __arm_cp.27_2
	.loc	3 1335 29               @ C:/Keil_v5/ARM/PACK/Nuvoton/NuMicro_M2351_BSP/1.0.0/Device/M2351/StdDriver/src/crypto.c:1335:29
	str	r0, [r1, r2]
	.loc	3 1336 9 is_stmt 1      @ C:/Keil_v5/ARM/PACK/Nuvoton/NuMicro_M2351_BSP/1.0.0/Device/M2351/StdDriver/src/crypto.c:1336:9
	b	.LBB27_42
.Ltmp326:
.LBB27_42:                              @   in Loop: Header=BB27_40 Depth=1
	.loc	3 1333 29               @ C:/Keil_v5/ARM/PACK/Nuvoton/NuMicro_M2351_BSP/1.0.0/Device/M2351/StdDriver/src/crypto.c:1333:29
	ldr	r0, [sp, #40]
	adds	r0, r0, #1
	str	r0, [sp, #40]
	.loc	3 1333 9 is_stmt 0      @ C:/Keil_v5/ARM/PACK/Nuvoton/NuMicro_M2351_BSP/1.0.0/Device/M2351/StdDriver/src/crypto.c:1333:9
	b	.LBB27_40
.Ltmp327:
.LBB27_43:
	.loc	3 1338 15 is_stmt 1     @ C:/Keil_v5/ARM/PACK/Nuvoton/NuMicro_M2351_BSP/1.0.0/Device/M2351/StdDriver/src/crypto.c:1338:15
	movs	r0, #0
	str	r0, [sp, #40]
	.loc	3 1338 13 is_stmt 0     @ C:/Keil_v5/ARM/PACK/Nuvoton/NuMicro_M2351_BSP/1.0.0/Device/M2351/StdDriver/src/crypto.c:1338:13
	b	.LBB27_44
.LBB27_44:                              @ =>This Inner Loop Header: Depth=1
.Ltmp328:
	.loc	3 1338 20               @ C:/Keil_v5/ARM/PACK/Nuvoton/NuMicro_M2351_BSP/1.0.0/Device/M2351/StdDriver/src/crypto.c:1338:20
	ldr	r0, [sp, #40]
.Ltmp329:
	.loc	3 1338 9                @ C:/Keil_v5/ARM/PACK/Nuvoton/NuMicro_M2351_BSP/1.0.0/Device/M2351/StdDriver/src/crypto.c:1338:9
	cmp	r0, #17
	bgt	.LBB27_47
	b	.LBB27_45
.LBB27_45:                              @   in Loop: Header=BB27_44 Depth=1
.Ltmp330:
	.loc	3 1340 13 is_stmt 1     @ C:/Keil_v5/ARM/PACK/Nuvoton/NuMicro_M2351_BSP/1.0.0/Device/M2351/StdDriver/src/crypto.c:1340:13
	ldr	r0, [sp, #200]
	.loc	3 1340 26 is_stmt 0     @ C:/Keil_v5/ARM/PACK/Nuvoton/NuMicro_M2351_BSP/1.0.0/Device/M2351/StdDriver/src/crypto.c:1340:26
	ldr	r1, [sp, #40]
	.loc	3 1340 13               @ C:/Keil_v5/ARM/PACK/Nuvoton/NuMicro_M2351_BSP/1.0.0/Device/M2351/StdDriver/src/crypto.c:1340:13
	lsls	r1, r1, #2
	.loc	3 1340 19               @ C:/Keil_v5/ARM/PACK/Nuvoton/NuMicro_M2351_BSP/1.0.0/Device/M2351/StdDriver/src/crypto.c:1340:19
	adds	r0, r0, r1
	movw	r1, #2128
	movs	r2, #0
	.loc	3 1340 29               @ C:/Keil_v5/ARM/PACK/Nuvoton/NuMicro_M2351_BSP/1.0.0/Device/M2351/StdDriver/src/crypto.c:1340:29
	str	r2, [r0, r1]
	.loc	3 1341 9 is_stmt 1      @ C:/Keil_v5/ARM/PACK/Nuvoton/NuMicro_M2351_BSP/1.0.0/Device/M2351/StdDriver/src/crypto.c:1341:9
	b	.LBB27_46
.Ltmp331:
.LBB27_46:                              @   in Loop: Header=BB27_44 Depth=1
	.loc	3 1338 29               @ C:/Keil_v5/ARM/PACK/Nuvoton/NuMicro_M2351_BSP/1.0.0/Device/M2351/StdDriver/src/crypto.c:1338:29
	ldr	r0, [sp, #40]
	adds	r0, r0, #1
	str	r0, [sp, #40]
	.loc	3 1338 9 is_stmt 0      @ C:/Keil_v5/ARM/PACK/Nuvoton/NuMicro_M2351_BSP/1.0.0/Device/M2351/StdDriver/src/crypto.c:1338:9
	b	.LBB27_44
.Ltmp332:
.LBB27_47:
	.loc	3 1342 17 is_stmt 1     @ C:/Keil_v5/ARM/PACK/Nuvoton/NuMicro_M2351_BSP/1.0.0/Device/M2351/StdDriver/src/crypto.c:1342:17
	ldr	r0, [sp, #188]
	.loc	3 1342 20 is_stmt 0     @ C:/Keil_v5/ARM/PACK/Nuvoton/NuMicro_M2351_BSP/1.0.0/Device/M2351/StdDriver/src/crypto.c:1342:20
	ldr	r1, [sp, #200]
	.loc	3 1342 26               @ C:/Keil_v5/ARM/PACK/Nuvoton/NuMicro_M2351_BSP/1.0.0/Device/M2351/StdDriver/src/crypto.c:1342:26
	movw	r2, #2128
	adds	r1, r1, r2
	.loc	3 1342 9                @ C:/Keil_v5/ARM/PACK/Nuvoton/NuMicro_M2351_BSP/1.0.0/Device/M2351/StdDriver/src/crypto.c:1342:9
	bl	Hex2Reg
	.loc	3 1344 23 is_stmt 1     @ C:/Keil_v5/ARM/PACK/Nuvoton/NuMicro_M2351_BSP/1.0.0/Device/M2351/StdDriver/src/crypto.c:1344:23
	ldr	r0, [sp, #200]
	.loc	3 1344 9 is_stmt 0      @ C:/Keil_v5/ARM/PACK/Nuvoton/NuMicro_M2351_BSP/1.0.0/Device/M2351/StdDriver/src/crypto.c:1344:9
	movw	r1, #2560
	bl	run_ecc_codec
	movs	r0, #0
.Ltmp333:
	.loc	3 1352 15 is_stmt 1     @ C:/Keil_v5/ARM/PACK/Nuvoton/NuMicro_M2351_BSP/1.0.0/Device/M2351/StdDriver/src/crypto.c:1352:15
	str	r0, [sp, #40]
	.loc	3 1352 13 is_stmt 0     @ C:/Keil_v5/ARM/PACK/Nuvoton/NuMicro_M2351_BSP/1.0.0/Device/M2351/StdDriver/src/crypto.c:1352:13
	b	.LBB27_48
.LBB27_48:                              @ =>This Inner Loop Header: Depth=1
.Ltmp334:
	.loc	3 1352 20               @ C:/Keil_v5/ARM/PACK/Nuvoton/NuMicro_M2351_BSP/1.0.0/Device/M2351/StdDriver/src/crypto.c:1352:20
	ldr	r0, [sp, #40]
.Ltmp335:
	.loc	3 1352 9                @ C:/Keil_v5/ARM/PACK/Nuvoton/NuMicro_M2351_BSP/1.0.0/Device/M2351/StdDriver/src/crypto.c:1352:9
	cmp	r0, #17
	bgt	.LBB27_51
	b	.LBB27_49
.LBB27_49:                              @   in Loop: Header=BB27_48 Depth=1
.Ltmp336:
	.loc	3 1354 13 is_stmt 1     @ C:/Keil_v5/ARM/PACK/Nuvoton/NuMicro_M2351_BSP/1.0.0/Device/M2351/StdDriver/src/crypto.c:1354:13
	ldr	r0, [sp, #200]
	.loc	3 1354 25 is_stmt 0     @ C:/Keil_v5/ARM/PACK/Nuvoton/NuMicro_M2351_BSP/1.0.0/Device/M2351/StdDriver/src/crypto.c:1354:25
	ldr	r1, [sp, #40]
	.loc	3 1354 13               @ C:/Keil_v5/ARM/PACK/Nuvoton/NuMicro_M2351_BSP/1.0.0/Device/M2351/StdDriver/src/crypto.c:1354:13
	lsls	r1, r1, #2
	.loc	3 1354 19               @ C:/Keil_v5/ARM/PACK/Nuvoton/NuMicro_M2351_BSP/1.0.0/Device/M2351/StdDriver/src/crypto.c:1354:19
	adds	r0, r0, r1
	ldr	r1, __arm_cp.27_1
	movs	r2, #0
	.loc	3 1354 28               @ C:/Keil_v5/ARM/PACK/Nuvoton/NuMicro_M2351_BSP/1.0.0/Device/M2351/StdDriver/src/crypto.c:1354:28
	str	r2, [r0, r1]
	.loc	3 1355 9 is_stmt 1      @ C:/Keil_v5/ARM/PACK/Nuvoton/NuMicro_M2351_BSP/1.0.0/Device/M2351/StdDriver/src/crypto.c:1355:9
	b	.LBB27_50
.Ltmp337:
.LBB27_50:                              @   in Loop: Header=BB27_48 Depth=1
	.loc	3 1352 29               @ C:/Keil_v5/ARM/PACK/Nuvoton/NuMicro_M2351_BSP/1.0.0/Device/M2351/StdDriver/src/crypto.c:1352:29
	ldr	r0, [sp, #40]
	adds	r0, r0, #1
	str	r0, [sp, #40]
	.loc	3 1352 9 is_stmt 0      @ C:/Keil_v5/ARM/PACK/Nuvoton/NuMicro_M2351_BSP/1.0.0/Device/M2351/StdDriver/src/crypto.c:1352:9
	b	.LBB27_48
.Ltmp338:
.LBB27_51:
	.loc	3 1356 17 is_stmt 1     @ C:/Keil_v5/ARM/PACK/Nuvoton/NuMicro_M2351_BSP/1.0.0/Device/M2351/StdDriver/src/crypto.c:1356:17
	ldr	r0, __arm_cp.27_0
	ldr	r0, [r0]
	.loc	3 1356 25 is_stmt 0     @ C:/Keil_v5/ARM/PACK/Nuvoton/NuMicro_M2351_BSP/1.0.0/Device/M2351/StdDriver/src/crypto.c:1356:25
	movw	r1, #768
	adds	r0, r0, r1
	.loc	3 1356 33               @ C:/Keil_v5/ARM/PACK/Nuvoton/NuMicro_M2351_BSP/1.0.0/Device/M2351/StdDriver/src/crypto.c:1356:33
	ldr	r1, [sp, #200]
	.loc	3 1356 39               @ C:/Keil_v5/ARM/PACK/Nuvoton/NuMicro_M2351_BSP/1.0.0/Device/M2351/StdDriver/src/crypto.c:1356:39
	ldr	r2, __arm_cp.27_1
	adds	r1, r1, r2
	.loc	3 1356 9                @ C:/Keil_v5/ARM/PACK/Nuvoton/NuMicro_M2351_BSP/1.0.0/Device/M2351/StdDriver/src/crypto.c:1356:9
	bl	Hex2Reg
	movs	r0, #0
.Ltmp339:
	.loc	3 1359 15 is_stmt 1     @ C:/Keil_v5/ARM/PACK/Nuvoton/NuMicro_M2351_BSP/1.0.0/Device/M2351/StdDriver/src/crypto.c:1359:15
	str	r0, [sp, #40]
	.loc	3 1359 13 is_stmt 0     @ C:/Keil_v5/ARM/PACK/Nuvoton/NuMicro_M2351_BSP/1.0.0/Device/M2351/StdDriver/src/crypto.c:1359:13
	b	.LBB27_52
.LBB27_52:                              @ =>This Inner Loop Header: Depth=1
.Ltmp340:
	.loc	3 1359 20               @ C:/Keil_v5/ARM/PACK/Nuvoton/NuMicro_M2351_BSP/1.0.0/Device/M2351/StdDriver/src/crypto.c:1359:20
	ldr	r0, [sp, #40]
.Ltmp341:
	.loc	3 1359 9                @ C:/Keil_v5/ARM/PACK/Nuvoton/NuMicro_M2351_BSP/1.0.0/Device/M2351/StdDriver/src/crypto.c:1359:9
	cmp	r0, #17
	bgt	.LBB27_55
	b	.LBB27_53
.LBB27_53:                              @   in Loop: Header=BB27_52 Depth=1
.Ltmp342:
	.loc	3 1361 13 is_stmt 1     @ C:/Keil_v5/ARM/PACK/Nuvoton/NuMicro_M2351_BSP/1.0.0/Device/M2351/StdDriver/src/crypto.c:1361:13
	ldr	r0, [sp, #200]
	.loc	3 1361 26 is_stmt 0     @ C:/Keil_v5/ARM/PACK/Nuvoton/NuMicro_M2351_BSP/1.0.0/Device/M2351/StdDriver/src/crypto.c:1361:26
	ldr	r1, [sp, #40]
	.loc	3 1361 13               @ C:/Keil_v5/ARM/PACK/Nuvoton/NuMicro_M2351_BSP/1.0.0/Device/M2351/StdDriver/src/crypto.c:1361:13
	lsls	r1, r1, #2
	.loc	3 1361 19               @ C:/Keil_v5/ARM/PACK/Nuvoton/NuMicro_M2351_BSP/1.0.0/Device/M2351/StdDriver/src/crypto.c:1361:19
	adds	r0, r0, r1
	movw	r1, #2128
	movs	r2, #0
	.loc	3 1361 29               @ C:/Keil_v5/ARM/PACK/Nuvoton/NuMicro_M2351_BSP/1.0.0/Device/M2351/StdDriver/src/crypto.c:1361:29
	str	r2, [r0, r1]
	.loc	3 1362 9 is_stmt 1      @ C:/Keil_v5/ARM/PACK/Nuvoton/NuMicro_M2351_BSP/1.0.0/Device/M2351/StdDriver/src/crypto.c:1362:9
	b	.LBB27_54
.Ltmp343:
.LBB27_54:                              @   in Loop: Header=BB27_52 Depth=1
	.loc	3 1359 29               @ C:/Keil_v5/ARM/PACK/Nuvoton/NuMicro_M2351_BSP/1.0.0/Device/M2351/StdDriver/src/crypto.c:1359:29
	ldr	r0, [sp, #40]
	adds	r0, r0, #1
	str	r0, [sp, #40]
	.loc	3 1359 9 is_stmt 0      @ C:/Keil_v5/ARM/PACK/Nuvoton/NuMicro_M2351_BSP/1.0.0/Device/M2351/StdDriver/src/crypto.c:1359:9
	b	.LBB27_52
.Ltmp344:
.LBB27_55:
	.loc	3 1364 17 is_stmt 1     @ C:/Keil_v5/ARM/PACK/Nuvoton/NuMicro_M2351_BSP/1.0.0/Device/M2351/StdDriver/src/crypto.c:1364:17
	ldr	r0, [sp, #192]
	.loc	3 1364 26 is_stmt 0     @ C:/Keil_v5/ARM/PACK/Nuvoton/NuMicro_M2351_BSP/1.0.0/Device/M2351/StdDriver/src/crypto.c:1364:26
	ldr	r1, [sp, #200]
	.loc	3 1364 32               @ C:/Keil_v5/ARM/PACK/Nuvoton/NuMicro_M2351_BSP/1.0.0/Device/M2351/StdDriver/src/crypto.c:1364:32
	movw	r2, #2128
	adds	r1, r1, r2
	.loc	3 1364 9                @ C:/Keil_v5/ARM/PACK/Nuvoton/NuMicro_M2351_BSP/1.0.0/Device/M2351/StdDriver/src/crypto.c:1364:9
	bl	Hex2Reg
	.loc	3 1366 23 is_stmt 1     @ C:/Keil_v5/ARM/PACK/Nuvoton/NuMicro_M2351_BSP/1.0.0/Device/M2351/StdDriver/src/crypto.c:1366:23
	ldr	r0, [sp, #200]
	.loc	3 1366 9 is_stmt 0      @ C:/Keil_v5/ARM/PACK/Nuvoton/NuMicro_M2351_BSP/1.0.0/Device/M2351/StdDriver/src/crypto.c:1366:9
	movw	r1, #4608
	bl	run_ecc_codec
	movs	r0, #0
.Ltmp345:
	.loc	3 1374 15 is_stmt 1     @ C:/Keil_v5/ARM/PACK/Nuvoton/NuMicro_M2351_BSP/1.0.0/Device/M2351/StdDriver/src/crypto.c:1374:15
	str	r0, [sp, #40]
	.loc	3 1374 13 is_stmt 0     @ C:/Keil_v5/ARM/PACK/Nuvoton/NuMicro_M2351_BSP/1.0.0/Device/M2351/StdDriver/src/crypto.c:1374:13
	b	.LBB27_56
.LBB27_56:                              @ =>This Inner Loop Header: Depth=1
.Ltmp346:
	.loc	3 1374 20               @ C:/Keil_v5/ARM/PACK/Nuvoton/NuMicro_M2351_BSP/1.0.0/Device/M2351/StdDriver/src/crypto.c:1374:20
	ldr	r0, [sp, #40]
.Ltmp347:
	.loc	3 1374 9                @ C:/Keil_v5/ARM/PACK/Nuvoton/NuMicro_M2351_BSP/1.0.0/Device/M2351/StdDriver/src/crypto.c:1374:9
	cmp	r0, #17
	bgt	.LBB27_59
	b	.LBB27_57
.LBB27_57:                              @   in Loop: Header=BB27_56 Depth=1
.Ltmp348:
	.loc	3 1376 13 is_stmt 1     @ C:/Keil_v5/ARM/PACK/Nuvoton/NuMicro_M2351_BSP/1.0.0/Device/M2351/StdDriver/src/crypto.c:1376:13
	ldr	r0, [sp, #200]
	.loc	3 1376 25 is_stmt 0     @ C:/Keil_v5/ARM/PACK/Nuvoton/NuMicro_M2351_BSP/1.0.0/Device/M2351/StdDriver/src/crypto.c:1376:25
	ldr	r1, [sp, #40]
	.loc	3 1376 13               @ C:/Keil_v5/ARM/PACK/Nuvoton/NuMicro_M2351_BSP/1.0.0/Device/M2351/StdDriver/src/crypto.c:1376:13
	lsls	r1, r1, #2
	.loc	3 1376 19               @ C:/Keil_v5/ARM/PACK/Nuvoton/NuMicro_M2351_BSP/1.0.0/Device/M2351/StdDriver/src/crypto.c:1376:19
	adds	r0, r0, r1
	ldr	r1, __arm_cp.27_1
	movs	r2, #0
	.loc	3 1376 28               @ C:/Keil_v5/ARM/PACK/Nuvoton/NuMicro_M2351_BSP/1.0.0/Device/M2351/StdDriver/src/crypto.c:1376:28
	str	r2, [r0, r1]
	.loc	3 1377 9 is_stmt 1      @ C:/Keil_v5/ARM/PACK/Nuvoton/NuMicro_M2351_BSP/1.0.0/Device/M2351/StdDriver/src/crypto.c:1377:9
	b	.LBB27_58
.Ltmp349:
.LBB27_58:                              @   in Loop: Header=BB27_56 Depth=1
	.loc	3 1374 29               @ C:/Keil_v5/ARM/PACK/Nuvoton/NuMicro_M2351_BSP/1.0.0/Device/M2351/StdDriver/src/crypto.c:1374:29
	ldr	r0, [sp, #40]
	adds	r0, r0, #1
	str	r0, [sp, #40]
	.loc	3 1374 9 is_stmt 0      @ C:/Keil_v5/ARM/PACK/Nuvoton/NuMicro_M2351_BSP/1.0.0/Device/M2351/StdDriver/src/crypto.c:1374:9
	b	.LBB27_56
.Ltmp350:
.LBB27_59:
	.loc	3 1378 17 is_stmt 1     @ C:/Keil_v5/ARM/PACK/Nuvoton/NuMicro_M2351_BSP/1.0.0/Device/M2351/StdDriver/src/crypto.c:1378:17
	ldr	r0, __arm_cp.27_0
	ldr	r0, [r0]
	.loc	3 1378 25 is_stmt 0     @ C:/Keil_v5/ARM/PACK/Nuvoton/NuMicro_M2351_BSP/1.0.0/Device/M2351/StdDriver/src/crypto.c:1378:25
	movw	r1, #768
	adds	r0, r0, r1
	.loc	3 1378 33               @ C:/Keil_v5/ARM/PACK/Nuvoton/NuMicro_M2351_BSP/1.0.0/Device/M2351/StdDriver/src/crypto.c:1378:33
	ldr	r1, [sp, #200]
	.loc	3 1378 39               @ C:/Keil_v5/ARM/PACK/Nuvoton/NuMicro_M2351_BSP/1.0.0/Device/M2351/StdDriver/src/crypto.c:1378:39
	ldr	r2, __arm_cp.27_1
	adds	r1, r1, r2
	.loc	3 1378 9                @ C:/Keil_v5/ARM/PACK/Nuvoton/NuMicro_M2351_BSP/1.0.0/Device/M2351/StdDriver/src/crypto.c:1378:9
	bl	Hex2Reg
	movs	r0, #0
.Ltmp351:
	.loc	3 1381 15 is_stmt 1     @ C:/Keil_v5/ARM/PACK/Nuvoton/NuMicro_M2351_BSP/1.0.0/Device/M2351/StdDriver/src/crypto.c:1381:15
	str	r0, [sp, #40]
	.loc	3 1381 13 is_stmt 0     @ C:/Keil_v5/ARM/PACK/Nuvoton/NuMicro_M2351_BSP/1.0.0/Device/M2351/StdDriver/src/crypto.c:1381:13
	b	.LBB27_60
.LBB27_60:                              @ =>This Inner Loop Header: Depth=1
.Ltmp352:
	.loc	3 1381 20               @ C:/Keil_v5/ARM/PACK/Nuvoton/NuMicro_M2351_BSP/1.0.0/Device/M2351/StdDriver/src/crypto.c:1381:20
	ldr	r0, [sp, #40]
.Ltmp353:
	.loc	3 1381 9                @ C:/Keil_v5/ARM/PACK/Nuvoton/NuMicro_M2351_BSP/1.0.0/Device/M2351/StdDriver/src/crypto.c:1381:9
	cmp	r0, #17
	bgt	.LBB27_63
	b	.LBB27_61
.LBB27_61:                              @   in Loop: Header=BB27_60 Depth=1
.Ltmp354:
	.loc	3 1383 44 is_stmt 1     @ C:/Keil_v5/ARM/PACK/Nuvoton/NuMicro_M2351_BSP/1.0.0/Device/M2351/StdDriver/src/crypto.c:1383:44
	ldr	r0, [sp, #40]
	.loc	3 1383 31 is_stmt 0     @ C:/Keil_v5/ARM/PACK/Nuvoton/NuMicro_M2351_BSP/1.0.0/Device/M2351/StdDriver/src/crypto.c:1383:31
	lsls	r0, r0, #2
	add	r1, sp, #44
	ldr	r0, [r1, r0]
	.loc	3 1383 13               @ C:/Keil_v5/ARM/PACK/Nuvoton/NuMicro_M2351_BSP/1.0.0/Device/M2351/StdDriver/src/crypto.c:1383:13
	ldr	r1, [sp, #200]
	.loc	3 1383 26               @ C:/Keil_v5/ARM/PACK/Nuvoton/NuMicro_M2351_BSP/1.0.0/Device/M2351/StdDriver/src/crypto.c:1383:26
	ldr	r2, [sp, #40]
	.loc	3 1383 13               @ C:/Keil_v5/ARM/PACK/Nuvoton/NuMicro_M2351_BSP/1.0.0/Device/M2351/StdDriver/src/crypto.c:1383:13
	lsls	r2, r2, #2
	.loc	3 1383 19               @ C:/Keil_v5/ARM/PACK/Nuvoton/NuMicro_M2351_BSP/1.0.0/Device/M2351/StdDriver/src/crypto.c:1383:19
	adds	r1, r1, r2
	movw	r2, #2128
	.loc	3 1383 29               @ C:/Keil_v5/ARM/PACK/Nuvoton/NuMicro_M2351_BSP/1.0.0/Device/M2351/StdDriver/src/crypto.c:1383:29
	str	r0, [r1, r2]
	.loc	3 1384 9 is_stmt 1      @ C:/Keil_v5/ARM/PACK/Nuvoton/NuMicro_M2351_BSP/1.0.0/Device/M2351/StdDriver/src/crypto.c:1384:9
	b	.LBB27_62
.Ltmp355:
.LBB27_62:                              @   in Loop: Header=BB27_60 Depth=1
	.loc	3 1381 29               @ C:/Keil_v5/ARM/PACK/Nuvoton/NuMicro_M2351_BSP/1.0.0/Device/M2351/StdDriver/src/crypto.c:1381:29
	ldr	r0, [sp, #40]
	adds	r0, r0, #1
	str	r0, [sp, #40]
	.loc	3 1381 9 is_stmt 0      @ C:/Keil_v5/ARM/PACK/Nuvoton/NuMicro_M2351_BSP/1.0.0/Device/M2351/StdDriver/src/crypto.c:1381:9
	b	.LBB27_60
.Ltmp356:
.LBB27_63:
	.loc	3 1386 23 is_stmt 1     @ C:/Keil_v5/ARM/PACK/Nuvoton/NuMicro_M2351_BSP/1.0.0/Device/M2351/StdDriver/src/crypto.c:1386:23
	ldr	r0, [sp, #200]
	.loc	3 1386 9 is_stmt 0      @ C:/Keil_v5/ARM/PACK/Nuvoton/NuMicro_M2351_BSP/1.0.0/Device/M2351/StdDriver/src/crypto.c:1386:9
	movw	r1, #2560
	bl	run_ecc_codec
	movs	r0, #0
.Ltmp357:
	.loc	3 1389 15 is_stmt 1     @ C:/Keil_v5/ARM/PACK/Nuvoton/NuMicro_M2351_BSP/1.0.0/Device/M2351/StdDriver/src/crypto.c:1389:15
	str	r0, [sp, #40]
	.loc	3 1389 13 is_stmt 0     @ C:/Keil_v5/ARM/PACK/Nuvoton/NuMicro_M2351_BSP/1.0.0/Device/M2351/StdDriver/src/crypto.c:1389:13
	b	.LBB27_64
.LBB27_64:                              @ =>This Inner Loop Header: Depth=1
.Ltmp358:
	.loc	3 1389 20               @ C:/Keil_v5/ARM/PACK/Nuvoton/NuMicro_M2351_BSP/1.0.0/Device/M2351/StdDriver/src/crypto.c:1389:20
	ldr	r0, [sp, #40]
.Ltmp359:
	.loc	3 1389 9                @ C:/Keil_v5/ARM/PACK/Nuvoton/NuMicro_M2351_BSP/1.0.0/Device/M2351/StdDriver/src/crypto.c:1389:9
	cmp	r0, #17
	bgt	.LBB27_67
	b	.LBB27_65
.LBB27_65:                              @   in Loop: Header=BB27_64 Depth=1
.Ltmp360:
	.loc	3 1391 31 is_stmt 1     @ C:/Keil_v5/ARM/PACK/Nuvoton/NuMicro_M2351_BSP/1.0.0/Device/M2351/StdDriver/src/crypto.c:1391:31
	ldr	r0, [sp, #200]
	.loc	3 1391 44 is_stmt 0     @ C:/Keil_v5/ARM/PACK/Nuvoton/NuMicro_M2351_BSP/1.0.0/Device/M2351/StdDriver/src/crypto.c:1391:44
	ldr	r1, [sp, #40]
	.loc	3 1391 31               @ C:/Keil_v5/ARM/PACK/Nuvoton/NuMicro_M2351_BSP/1.0.0/Device/M2351/StdDriver/src/crypto.c:1391:31
	lsls	r1, r1, #2
	.loc	3 1391 37               @ C:/Keil_v5/ARM/PACK/Nuvoton/NuMicro_M2351_BSP/1.0.0/Device/M2351/StdDriver/src/crypto.c:1391:37
	adds	r0, r0, r1
	ldr	r1, __arm_cp.27_2
	.loc	3 1391 31               @ C:/Keil_v5/ARM/PACK/Nuvoton/NuMicro_M2351_BSP/1.0.0/Device/M2351/StdDriver/src/crypto.c:1391:31
	ldr	r0, [r0, r1]
	.loc	3 1391 26               @ C:/Keil_v5/ARM/PACK/Nuvoton/NuMicro_M2351_BSP/1.0.0/Device/M2351/StdDriver/src/crypto.c:1391:26
	ldr	r1, [sp, #40]
	.loc	3 1391 13               @ C:/Keil_v5/ARM/PACK/Nuvoton/NuMicro_M2351_BSP/1.0.0/Device/M2351/StdDriver/src/crypto.c:1391:13
	lsls	r1, r1, #2
	add	r2, sp, #44
	.loc	3 1391 29               @ C:/Keil_v5/ARM/PACK/Nuvoton/NuMicro_M2351_BSP/1.0.0/Device/M2351/StdDriver/src/crypto.c:1391:29
	str	r0, [r2, r1]
	.loc	3 1392 9 is_stmt 1      @ C:/Keil_v5/ARM/PACK/Nuvoton/NuMicro_M2351_BSP/1.0.0/Device/M2351/StdDriver/src/crypto.c:1392:9
	b	.LBB27_66
.Ltmp361:
.LBB27_66:                              @   in Loop: Header=BB27_64 Depth=1
	.loc	3 1389 29               @ C:/Keil_v5/ARM/PACK/Nuvoton/NuMicro_M2351_BSP/1.0.0/Device/M2351/StdDriver/src/crypto.c:1389:29
	ldr	r0, [sp, #40]
	adds	r0, r0, #1
	str	r0, [sp, #40]
	.loc	3 1389 9 is_stmt 0      @ C:/Keil_v5/ARM/PACK/Nuvoton/NuMicro_M2351_BSP/1.0.0/Device/M2351/StdDriver/src/crypto.c:1389:9
	b	.LBB27_64
.Ltmp362:
.LBB27_67:
	.loc	3 1394 17 is_stmt 1     @ C:/Keil_v5/ARM/PACK/Nuvoton/NuMicro_M2351_BSP/1.0.0/Device/M2351/StdDriver/src/crypto.c:1394:17
	ldr	r0, __arm_cp.27_0
	ldr	r0, [r0]
	.loc	3 1394 25 is_stmt 0     @ C:/Keil_v5/ARM/PACK/Nuvoton/NuMicro_M2351_BSP/1.0.0/Device/M2351/StdDriver/src/crypto.c:1394:25
	ldr	r0, [r0, #4]
	.loc	3 1394 46               @ C:/Keil_v5/ARM/PACK/Nuvoton/NuMicro_M2351_BSP/1.0.0/Device/M2351/StdDriver/src/crypto.c:1394:46
	ldr	r2, [sp, #232]
	add	r1, sp, #44
	.loc	3 1394 9                @ C:/Keil_v5/ARM/PACK/Nuvoton/NuMicro_M2351_BSP/1.0.0/Device/M2351/StdDriver/src/crypto.c:1394:9
	bl	Reg2Hex
	.loc	3 1396 5 is_stmt 1      @ C:/Keil_v5/ARM/PACK/Nuvoton/NuMicro_M2351_BSP/1.0.0/Device/M2351/StdDriver/src/crypto.c:1396:5
	b	.LBB27_68
.Ltmp363:
.LBB27_68:
	.loc	3 1398 12               @ C:/Keil_v5/ARM/PACK/Nuvoton/NuMicro_M2351_BSP/1.0.0/Device/M2351/StdDriver/src/crypto.c:1398:12
	ldr	r0, [sp, #36]
	.loc	3 1398 5 is_stmt 0      @ C:/Keil_v5/ARM/PACK/Nuvoton/NuMicro_M2351_BSP/1.0.0/Device/M2351/StdDriver/src/crypto.c:1398:5
	add	sp, #204
	pop	{r4, r5, r6, r7, pc}
.Ltmp364:
	.p2align	2
@ %bb.69:
	.loc	3 0 5                   @ C:/Keil_v5/ARM/PACK/Nuvoton/NuMicro_M2351_BSP/1.0.0/Device/M2351/StdDriver/src/crypto.c:0:5
__arm_cp.27_0:
	.long	pCurve
.Lcpi_end26:
	.size	__arm_cp.27_0, .Lcpi_end26-__arm_cp.27_0
__arm_cp.27_1:
	.long	2488                    @ 0x9b8
.Lcpi_end27:
	.size	__arm_cp.27_1, .Lcpi_end27-__arm_cp.27_1
__arm_cp.27_2:
	.long	2056                    @ 0x808
.Lcpi_end28:
	.size	__arm_cp.27_2, .Lcpi_end28-__arm_cp.27_2
.Lfunc_end27:
	.size	ECC_GenerateSignature, .Lfunc_end27-ECC_GenerateSignature
	.cfi_endproc
	.cantunwind
	.fnend
                                        @ -- End function
	.section	.text.run_ecc_codec,"ax",%progbits
	.p2align	2               @ -- Begin function run_ecc_codec
	.type	run_ecc_codec,%function
	.code	16                      @ @run_ecc_codec
	.thumb_func
run_ecc_codec:
.Lfunc_begin28:
	.loc	3 1133 0 is_stmt 1      @ C:/Keil_v5/ARM/PACK/Nuvoton/NuMicro_M2351_BSP/1.0.0/Device/M2351/StdDriver/src/crypto.c:1133:0
	.fnstart
	.cfi_startproc
@ %bb.0:
	.pad	#20
	sub	sp, #20
	.cfi_def_cfa_offset 20
	mov	r2, r1
	mov	r3, r0
	str	r0, [sp, #16]
	str	r1, [sp, #12]
.Ltmp365:
	.loc	3 1136 9 prologue_end   @ C:/Keil_v5/ARM/PACK/Nuvoton/NuMicro_M2351_BSP/1.0.0/Device/M2351/StdDriver/src/crypto.c:1136:9
	ldr	r0, [sp, #12]
	.loc	3 1136 14 is_stmt 0     @ C:/Keil_v5/ARM/PACK/Nuvoton/NuMicro_M2351_BSP/1.0.0/Device/M2351/StdDriver/src/crypto.c:1136:14
	movw	r1, #1536
	ands	r0, r1
	.loc	3 1136 40               @ C:/Keil_v5/ARM/PACK/Nuvoton/NuMicro_M2351_BSP/1.0.0/Device/M2351/StdDriver/src/crypto.c:1136:40
	movw	r1, #512
.Ltmp366:
	.loc	3 1136 8                @ C:/Keil_v5/ARM/PACK/Nuvoton/NuMicro_M2351_BSP/1.0.0/Device/M2351/StdDriver/src/crypto.c:1136:8
	cmp	r0, r1
	str	r2, [sp, #4]            @ 4-byte Spill
	str	r3, [sp]                @ 4-byte Spill
	bne	.LBB28_2
	b	.LBB28_1
.LBB28_1:
.Ltmp367:
	.loc	3 1138 9 is_stmt 1      @ C:/Keil_v5/ARM/PACK/Nuvoton/NuMicro_M2351_BSP/1.0.0/Device/M2351/StdDriver/src/crypto.c:1138:9
	ldr	r0, [sp, #16]
	.loc	3 1138 15 is_stmt 0     @ C:/Keil_v5/ARM/PACK/Nuvoton/NuMicro_M2351_BSP/1.0.0/Device/M2351/StdDriver/src/crypto.c:1138:15
	movw	r1, #2048
	.loc	3 1138 23               @ C:/Keil_v5/ARM/PACK/Nuvoton/NuMicro_M2351_BSP/1.0.0/Device/M2351/StdDriver/src/crypto.c:1138:23
	movw	r2, #256
	str	r2, [r0, r1]
	.loc	3 1139 5 is_stmt 1      @ C:/Keil_v5/ARM/PACK/Nuvoton/NuMicro_M2351_BSP/1.0.0/Device/M2351/StdDriver/src/crypto.c:1139:5
	b	.LBB28_6
.Ltmp368:
.LBB28_2:
	.loc	3 1142 12               @ C:/Keil_v5/ARM/PACK/Nuvoton/NuMicro_M2351_BSP/1.0.0/Device/M2351/StdDriver/src/crypto.c:1142:12
	ldr	r0, __arm_cp.28_0
	ldr	r0, [r0]
	.loc	3 1142 20 is_stmt 0     @ C:/Keil_v5/ARM/PACK/Nuvoton/NuMicro_M2351_BSP/1.0.0/Device/M2351/StdDriver/src/crypto.c:1142:20
	movw	r1, #960
	ldr	r0, [r0, r1]
.Ltmp369:
	.loc	3 1142 12               @ C:/Keil_v5/ARM/PACK/Nuvoton/NuMicro_M2351_BSP/1.0.0/Device/M2351/StdDriver/src/crypto.c:1142:12
	cmp	r0, #1
	bne	.LBB28_4
	b	.LBB28_3
.LBB28_3:
.Ltmp370:
	.loc	3 1145 13 is_stmt 1     @ C:/Keil_v5/ARM/PACK/Nuvoton/NuMicro_M2351_BSP/1.0.0/Device/M2351/StdDriver/src/crypto.c:1145:13
	ldr	r0, [sp, #16]
	.loc	3 1145 19 is_stmt 0     @ C:/Keil_v5/ARM/PACK/Nuvoton/NuMicro_M2351_BSP/1.0.0/Device/M2351/StdDriver/src/crypto.c:1145:19
	movw	r1, #2048
	movs	r2, #0
	.loc	3 1145 27               @ C:/Keil_v5/ARM/PACK/Nuvoton/NuMicro_M2351_BSP/1.0.0/Device/M2351/StdDriver/src/crypto.c:1145:27
	str	r2, [r0, r1]
	.loc	3 1146 9 is_stmt 1      @ C:/Keil_v5/ARM/PACK/Nuvoton/NuMicro_M2351_BSP/1.0.0/Device/M2351/StdDriver/src/crypto.c:1146:9
	b	.LBB28_5
.Ltmp371:
.LBB28_4:
	.loc	3 1150 13               @ C:/Keil_v5/ARM/PACK/Nuvoton/NuMicro_M2351_BSP/1.0.0/Device/M2351/StdDriver/src/crypto.c:1150:13
	ldr	r0, [sp, #16]
	.loc	3 1150 19 is_stmt 0     @ C:/Keil_v5/ARM/PACK/Nuvoton/NuMicro_M2351_BSP/1.0.0/Device/M2351/StdDriver/src/crypto.c:1150:19
	movw	r1, #2048
	.loc	3 1150 27               @ C:/Keil_v5/ARM/PACK/Nuvoton/NuMicro_M2351_BSP/1.0.0/Device/M2351/StdDriver/src/crypto.c:1150:27
	movw	r2, #256
	str	r2, [r0, r1]
	b	.LBB28_5
.Ltmp372:
.LBB28_5:
	.loc	3 0 27                  @ C:/Keil_v5/ARM/PACK/Nuvoton/NuMicro_M2351_BSP/1.0.0/Device/M2351/StdDriver/src/crypto.c:0:27
	b	.LBB28_6
.LBB28_6:
	.loc	3 1154 32 is_stmt 1     @ C:/Keil_v5/ARM/PACK/Nuvoton/NuMicro_M2351_BSP/1.0.0/Device/M2351/StdDriver/src/crypto.c:1154:32
	ldr	r0, __arm_cp.28_1
	movs	r1, #0
	str	r1, [r0]
	.loc	3 1154 16 is_stmt 0     @ C:/Keil_v5/ARM/PACK/Nuvoton/NuMicro_M2351_BSP/1.0.0/Device/M2351/StdDriver/src/crypto.c:1154:16
	ldr	r0, __arm_cp.28_2
	str	r1, [r0]
	.loc	3 1155 33 is_stmt 1     @ C:/Keil_v5/ARM/PACK/Nuvoton/NuMicro_M2351_BSP/1.0.0/Device/M2351/StdDriver/src/crypto.c:1155:33
	ldr	r0, __arm_cp.28_0
	ldr	r0, [r0]
	.loc	3 1155 41 is_stmt 0     @ C:/Keil_v5/ARM/PACK/Nuvoton/NuMicro_M2351_BSP/1.0.0/Device/M2351/StdDriver/src/crypto.c:1155:41
	movw	r1, #944
	ldr	r0, [r0, r1]
	.loc	3 1155 49               @ C:/Keil_v5/ARM/PACK/Nuvoton/NuMicro_M2351_BSP/1.0.0/Device/M2351/StdDriver/src/crypto.c:1155:49
	lsls	r0, r0, #22
	.loc	3 1155 79               @ C:/Keil_v5/ARM/PACK/Nuvoton/NuMicro_M2351_BSP/1.0.0/Device/M2351/StdDriver/src/crypto.c:1155:79
	ldr	r1, [sp, #12]
	.loc	3 1155 77               @ C:/Keil_v5/ARM/PACK/Nuvoton/NuMicro_M2351_BSP/1.0.0/Device/M2351/StdDriver/src/crypto.c:1155:77
	orrs	r0, r1
	.loc	3 1155 5                @ C:/Keil_v5/ARM/PACK/Nuvoton/NuMicro_M2351_BSP/1.0.0/Device/M2351/StdDriver/src/crypto.c:1155:5
	ldr	r1, [sp, #16]
	.loc	3 1155 11               @ C:/Keil_v5/ARM/PACK/Nuvoton/NuMicro_M2351_BSP/1.0.0/Device/M2351/StdDriver/src/crypto.c:1155:11
	movw	r2, #2048
	.loc	3 1155 19               @ C:/Keil_v5/ARM/PACK/Nuvoton/NuMicro_M2351_BSP/1.0.0/Device/M2351/StdDriver/src/crypto.c:1155:19
	ldr	r3, [r1, r2]
	orrs	r3, r0
	.loc	3 1155 84               @ C:/Keil_v5/ARM/PACK/Nuvoton/NuMicro_M2351_BSP/1.0.0/Device/M2351/StdDriver/src/crypto.c:1155:84
	movs	r0, #1
	.loc	3 1155 19               @ C:/Keil_v5/ARM/PACK/Nuvoton/NuMicro_M2351_BSP/1.0.0/Device/M2351/StdDriver/src/crypto.c:1155:19
	orrs	r3, r0
	str	r3, [r1, r2]
	.loc	3 1157 5 is_stmt 1      @ C:/Keil_v5/ARM/PACK/Nuvoton/NuMicro_M2351_BSP/1.0.0/Device/M2351/StdDriver/src/crypto.c:1157:5
	b	.LBB28_7
.LBB28_7:                               @ =>This Inner Loop Header: Depth=1
.Ltmp373:
	.loc	3 1159 18               @ C:/Keil_v5/ARM/PACK/Nuvoton/NuMicro_M2351_BSP/1.0.0/Device/M2351/StdDriver/src/crypto.c:1159:18
	ldr	r0, __arm_cp.28_2
	ldr	r0, [r0]
	.loc	3 1159 16 is_stmt 0     @ C:/Keil_v5/ARM/PACK/Nuvoton/NuMicro_M2351_BSP/1.0.0/Device/M2351/StdDriver/src/crypto.c:1159:16
	str	r0, [sp, #8]
	.loc	3 1160 19 is_stmt 1     @ C:/Keil_v5/ARM/PACK/Nuvoton/NuMicro_M2351_BSP/1.0.0/Device/M2351/StdDriver/src/crypto.c:1160:19
	ldr	r0, __arm_cp.28_1
	ldr	r0, [r0]
	.loc	3 1160 16 is_stmt 0     @ C:/Keil_v5/ARM/PACK/Nuvoton/NuMicro_M2351_BSP/1.0.0/Device/M2351/StdDriver/src/crypto.c:1160:16
	ldr	r1, [sp, #8]
	orrs	r1, r0
	str	r1, [sp, #8]
	.loc	3 1161 5 is_stmt 1      @ C:/Keil_v5/ARM/PACK/Nuvoton/NuMicro_M2351_BSP/1.0.0/Device/M2351/StdDriver/src/crypto.c:1161:5
	b	.LBB28_8
.Ltmp374:
.LBB28_8:                               @   in Loop: Header=BB28_7 Depth=1
	.loc	3 1162 11               @ C:/Keil_v5/ARM/PACK/Nuvoton/NuMicro_M2351_BSP/1.0.0/Device/M2351/StdDriver/src/crypto.c:1162:11
	ldr	r0, [sp, #8]
.Ltmp375:
	.loc	3 1161 5                @ C:/Keil_v5/ARM/PACK/Nuvoton/NuMicro_M2351_BSP/1.0.0/Device/M2351/StdDriver/src/crypto.c:1161:5
	cmp	r0, #0
	beq	.LBB28_7
	b	.LBB28_9
.Ltmp376:
.LBB28_9:
	.loc	3 1164 5                @ C:/Keil_v5/ARM/PACK/Nuvoton/NuMicro_M2351_BSP/1.0.0/Device/M2351/StdDriver/src/crypto.c:1164:5
	b	.LBB28_10
.LBB28_10:                              @ =>This Inner Loop Header: Depth=1
	.loc	3 1164 11 is_stmt 0     @ C:/Keil_v5/ARM/PACK/Nuvoton/NuMicro_M2351_BSP/1.0.0/Device/M2351/StdDriver/src/crypto.c:1164:11
	ldr	r0, [sp, #16]
	.loc	3 1164 17               @ C:/Keil_v5/ARM/PACK/Nuvoton/NuMicro_M2351_BSP/1.0.0/Device/M2351/StdDriver/src/crypto.c:1164:17
	ldr	r1, __arm_cp.28_3
	ldr	r0, [r0, r1]
	.loc	3 1164 25               @ C:/Keil_v5/ARM/PACK/Nuvoton/NuMicro_M2351_BSP/1.0.0/Device/M2351/StdDriver/src/crypto.c:1164:25
	movs	r1, #1
	.loc	3 1164 5                @ C:/Keil_v5/ARM/PACK/Nuvoton/NuMicro_M2351_BSP/1.0.0/Device/M2351/StdDriver/src/crypto.c:1164:5
	tst	r0, r1
	beq	.LBB28_12
	b	.LBB28_11
.LBB28_11:                              @   in Loop: Header=BB28_10 Depth=1
	b	.LBB28_10
.LBB28_12:
	.loc	3 1165 1 is_stmt 1      @ C:/Keil_v5/ARM/PACK/Nuvoton/NuMicro_M2351_BSP/1.0.0/Device/M2351/StdDriver/src/crypto.c:1165:1
	add	sp, #20
	bx	lr
.Ltmp377:
	.p2align	2
@ %bb.13:
	.loc	3 0 1 is_stmt 0         @ C:/Keil_v5/ARM/PACK/Nuvoton/NuMicro_M2351_BSP/1.0.0/Device/M2351/StdDriver/src/crypto.c:0:1
__arm_cp.28_0:
	.long	pCurve
.Lcpi_end29:
	.size	__arm_cp.28_0, .Lcpi_end29-__arm_cp.28_0
__arm_cp.28_1:
	.long	g_ECCERR_done
.Lcpi_end30:
	.size	__arm_cp.28_1, .Lcpi_end30-__arm_cp.28_1
__arm_cp.28_2:
	.long	g_ECC_done
.Lcpi_end31:
	.size	__arm_cp.28_2, .Lcpi_end31-__arm_cp.28_2
__arm_cp.28_3:
	.long	2052                    @ 0x804
.Lcpi_end32:
	.size	__arm_cp.28_3, .Lcpi_end32-__arm_cp.28_3
.Lfunc_end28:
	.size	run_ecc_codec, .Lfunc_end28-run_ecc_codec
	.cfi_endproc
	.cantunwind
	.fnend
                                        @ -- End function
	.section	.text.ECC_VerifySignature,"ax",%progbits
	.hidden	ECC_VerifySignature     @ -- Begin function ECC_VerifySignature
	.globl	ECC_VerifySignature
	.p2align	2
	.type	ECC_VerifySignature,%function
	.code	16                      @ @ECC_VerifySignature
	.thumb_func
ECC_VerifySignature:
.Lfunc_begin29:
	.loc	3 1415 0 is_stmt 1      @ C:/Keil_v5/ARM/PACK/Nuvoton/NuMicro_M2351_BSP/1.0.0/Device/M2351/StdDriver/src/crypto.c:1415:0
	.fnstart
	.cfi_startproc
@ %bb.0:
	.save	{r4, r5, r6, r7, lr}
	push	{r4, r5, r6, r7, lr}
	.cfi_def_cfa_offset 20
	.cfi_offset lr, -4
	.cfi_offset r7, -8
	.cfi_offset r6, -12
	.cfi_offset r5, -16
	.cfi_offset r4, -20
	.pad	#364
	sub	sp, #364
	.cfi_def_cfa_offset 384
	ldr	r4, [sp, #392]
	ldr	r5, [sp, #388]
	ldr	r6, [sp, #384]
	mov	r7, r3
	str	r0, [sp, #48]           @ 4-byte Spill
	mov	r0, r2
	str	r0, [sp, #44]           @ 4-byte Spill
	mov	r0, r1
	str	r0, [sp, #40]           @ 4-byte Spill
	ldr	r0, [sp, #48]           @ 4-byte Reload
	str	r0, [sp, #36]           @ 4-byte Spill
	ldr	r0, [sp, #48]           @ 4-byte Reload
	str	r0, [sp, #360]
	str	r1, [sp, #356]
	str	r2, [sp, #352]
	str	r3, [sp, #348]
	movs	r1, #0
.Ltmp378:
	.loc	3 1418 18 prologue_end  @ C:/Keil_v5/ARM/PACK/Nuvoton/NuMicro_M2351_BSP/1.0.0/Device/M2351/StdDriver/src/crypto.c:1418:18
	str	r1, [sp, #52]
.Ltmp379:
	.loc	3 1439 23               @ C:/Keil_v5/ARM/PACK/Nuvoton/NuMicro_M2351_BSP/1.0.0/Device/M2351/StdDriver/src/crypto.c:1439:23
	ldr	r0, [sp, #360]
	.loc	3 1439 29 is_stmt 0     @ C:/Keil_v5/ARM/PACK/Nuvoton/NuMicro_M2351_BSP/1.0.0/Device/M2351/StdDriver/src/crypto.c:1439:29
	ldr	r1, [sp, #356]
	.loc	3 1439 8                @ C:/Keil_v5/ARM/PACK/Nuvoton/NuMicro_M2351_BSP/1.0.0/Device/M2351/StdDriver/src/crypto.c:1439:8
	str	r5, [sp, #32]           @ 4-byte Spill
	str	r6, [sp, #28]           @ 4-byte Spill
	str	r7, [sp, #24]           @ 4-byte Spill
	str	r4, [sp, #20]           @ 4-byte Spill
	bl	ecc_init_curve
.Ltmp380:
	.loc	3 1439 8                @ C:/Keil_v5/ARM/PACK/Nuvoton/NuMicro_M2351_BSP/1.0.0/Device/M2351/StdDriver/src/crypto.c:1439:8
	cmp	r0, #0
	beq	.LBB29_2
	b	.LBB29_1
.LBB29_1:
.Ltmp381:
	.loc	3 1441 13 is_stmt 1     @ C:/Keil_v5/ARM/PACK/Nuvoton/NuMicro_M2351_BSP/1.0.0/Device/M2351/StdDriver/src/crypto.c:1441:13
	movs	r0, #0
	mvns	r0, r0
	str	r0, [sp, #52]
	.loc	3 1442 5                @ C:/Keil_v5/ARM/PACK/Nuvoton/NuMicro_M2351_BSP/1.0.0/Device/M2351/StdDriver/src/crypto.c:1442:5
	b	.LBB29_2
.Ltmp382:
.LBB29_2:
	.loc	3 1444 8                @ C:/Keil_v5/ARM/PACK/Nuvoton/NuMicro_M2351_BSP/1.0.0/Device/M2351/StdDriver/src/crypto.c:1444:8
	ldr	r0, [sp, #52]
.Ltmp383:
	.loc	3 1444 8 is_stmt 0      @ C:/Keil_v5/ARM/PACK/Nuvoton/NuMicro_M2351_BSP/1.0.0/Device/M2351/StdDriver/src/crypto.c:1444:8
	cmp	r0, #0
	beq	.LBB29_3
	b	.LBB29_104
.LBB29_3:
.Ltmp384:
	.loc	3 1448 15 is_stmt 1     @ C:/Keil_v5/ARM/PACK/Nuvoton/NuMicro_M2351_BSP/1.0.0/Device/M2351/StdDriver/src/crypto.c:1448:15
	movs	r0, #0
	str	r0, [sp, #56]
	.loc	3 1448 13 is_stmt 0     @ C:/Keil_v5/ARM/PACK/Nuvoton/NuMicro_M2351_BSP/1.0.0/Device/M2351/StdDriver/src/crypto.c:1448:13
	b	.LBB29_4
.LBB29_4:                               @ =>This Inner Loop Header: Depth=1
.Ltmp385:
	.loc	3 1448 20               @ C:/Keil_v5/ARM/PACK/Nuvoton/NuMicro_M2351_BSP/1.0.0/Device/M2351/StdDriver/src/crypto.c:1448:20
	ldr	r0, [sp, #56]
.Ltmp386:
	.loc	3 1448 9                @ C:/Keil_v5/ARM/PACK/Nuvoton/NuMicro_M2351_BSP/1.0.0/Device/M2351/StdDriver/src/crypto.c:1448:9
	cmp	r0, #17
	bgt	.LBB29_7
	b	.LBB29_5
.LBB29_5:                               @   in Loop: Header=BB29_4 Depth=1
.Ltmp387:
	.loc	3 1450 13 is_stmt 1     @ C:/Keil_v5/ARM/PACK/Nuvoton/NuMicro_M2351_BSP/1.0.0/Device/M2351/StdDriver/src/crypto.c:1450:13
	ldr	r0, [sp, #360]
	.loc	3 1450 25 is_stmt 0     @ C:/Keil_v5/ARM/PACK/Nuvoton/NuMicro_M2351_BSP/1.0.0/Device/M2351/StdDriver/src/crypto.c:1450:25
	ldr	r1, [sp, #56]
	.loc	3 1450 13               @ C:/Keil_v5/ARM/PACK/Nuvoton/NuMicro_M2351_BSP/1.0.0/Device/M2351/StdDriver/src/crypto.c:1450:13
	lsls	r1, r1, #2
	.loc	3 1450 19               @ C:/Keil_v5/ARM/PACK/Nuvoton/NuMicro_M2351_BSP/1.0.0/Device/M2351/StdDriver/src/crypto.c:1450:19
	adds	r0, r0, r1
	ldr	r1, .LCPI29_6
	movs	r2, #0
	.loc	3 1450 28               @ C:/Keil_v5/ARM/PACK/Nuvoton/NuMicro_M2351_BSP/1.0.0/Device/M2351/StdDriver/src/crypto.c:1450:28
	str	r2, [r0, r1]
	.loc	3 1451 9 is_stmt 1      @ C:/Keil_v5/ARM/PACK/Nuvoton/NuMicro_M2351_BSP/1.0.0/Device/M2351/StdDriver/src/crypto.c:1451:9
	b	.LBB29_6
.Ltmp388:
.LBB29_6:                               @   in Loop: Header=BB29_4 Depth=1
	.loc	3 1448 29               @ C:/Keil_v5/ARM/PACK/Nuvoton/NuMicro_M2351_BSP/1.0.0/Device/M2351/StdDriver/src/crypto.c:1448:29
	ldr	r0, [sp, #56]
	adds	r0, r0, #1
	str	r0, [sp, #56]
	.loc	3 1448 9 is_stmt 0      @ C:/Keil_v5/ARM/PACK/Nuvoton/NuMicro_M2351_BSP/1.0.0/Device/M2351/StdDriver/src/crypto.c:1448:9
	b	.LBB29_4
.Ltmp389:
.LBB29_7:
	.loc	3 1452 17 is_stmt 1     @ C:/Keil_v5/ARM/PACK/Nuvoton/NuMicro_M2351_BSP/1.0.0/Device/M2351/StdDriver/src/crypto.c:1452:17
	ldr	r0, .LCPI29_7
	ldr	r0, [r0]
	.loc	3 1452 25 is_stmt 0     @ C:/Keil_v5/ARM/PACK/Nuvoton/NuMicro_M2351_BSP/1.0.0/Device/M2351/StdDriver/src/crypto.c:1452:25
	movw	r1, #768
	adds	r0, r0, r1
	.loc	3 1452 33               @ C:/Keil_v5/ARM/PACK/Nuvoton/NuMicro_M2351_BSP/1.0.0/Device/M2351/StdDriver/src/crypto.c:1452:33
	ldr	r1, [sp, #360]
	.loc	3 1452 39               @ C:/Keil_v5/ARM/PACK/Nuvoton/NuMicro_M2351_BSP/1.0.0/Device/M2351/StdDriver/src/crypto.c:1452:39
	ldr	r2, .LCPI29_6
	adds	r1, r1, r2
	.loc	3 1452 9                @ C:/Keil_v5/ARM/PACK/Nuvoton/NuMicro_M2351_BSP/1.0.0/Device/M2351/StdDriver/src/crypto.c:1452:9
	bl	Hex2Reg
	movs	r0, #0
.Ltmp390:
	.loc	3 1455 15 is_stmt 1     @ C:/Keil_v5/ARM/PACK/Nuvoton/NuMicro_M2351_BSP/1.0.0/Device/M2351/StdDriver/src/crypto.c:1455:15
	str	r0, [sp, #56]
	.loc	3 1455 13 is_stmt 0     @ C:/Keil_v5/ARM/PACK/Nuvoton/NuMicro_M2351_BSP/1.0.0/Device/M2351/StdDriver/src/crypto.c:1455:13
	b	.LBB29_8
.LBB29_8:                               @ =>This Inner Loop Header: Depth=1
.Ltmp391:
	.loc	3 1455 20               @ C:/Keil_v5/ARM/PACK/Nuvoton/NuMicro_M2351_BSP/1.0.0/Device/M2351/StdDriver/src/crypto.c:1455:20
	ldr	r0, [sp, #56]
.Ltmp392:
	.loc	3 1455 9                @ C:/Keil_v5/ARM/PACK/Nuvoton/NuMicro_M2351_BSP/1.0.0/Device/M2351/StdDriver/src/crypto.c:1455:9
	cmp	r0, #17
	bgt	.LBB29_11
	b	.LBB29_9
.LBB29_9:                               @   in Loop: Header=BB29_8 Depth=1
.Ltmp393:
	.loc	3 1457 13 is_stmt 1     @ C:/Keil_v5/ARM/PACK/Nuvoton/NuMicro_M2351_BSP/1.0.0/Device/M2351/StdDriver/src/crypto.c:1457:13
	ldr	r0, [sp, #360]
	.loc	3 1457 26 is_stmt 0     @ C:/Keil_v5/ARM/PACK/Nuvoton/NuMicro_M2351_BSP/1.0.0/Device/M2351/StdDriver/src/crypto.c:1457:26
	ldr	r1, [sp, #56]
	.loc	3 1457 13               @ C:/Keil_v5/ARM/PACK/Nuvoton/NuMicro_M2351_BSP/1.0.0/Device/M2351/StdDriver/src/crypto.c:1457:13
	lsls	r1, r1, #2
	.loc	3 1457 19               @ C:/Keil_v5/ARM/PACK/Nuvoton/NuMicro_M2351_BSP/1.0.0/Device/M2351/StdDriver/src/crypto.c:1457:19
	adds	r0, r0, r1
	movw	r1, #2128
	movs	r2, #0
	.loc	3 1457 29               @ C:/Keil_v5/ARM/PACK/Nuvoton/NuMicro_M2351_BSP/1.0.0/Device/M2351/StdDriver/src/crypto.c:1457:29
	str	r2, [r0, r1]
	.loc	3 1458 9 is_stmt 1      @ C:/Keil_v5/ARM/PACK/Nuvoton/NuMicro_M2351_BSP/1.0.0/Device/M2351/StdDriver/src/crypto.c:1458:9
	b	.LBB29_10
.Ltmp394:
.LBB29_10:                              @   in Loop: Header=BB29_8 Depth=1
	.loc	3 1455 29               @ C:/Keil_v5/ARM/PACK/Nuvoton/NuMicro_M2351_BSP/1.0.0/Device/M2351/StdDriver/src/crypto.c:1455:29
	ldr	r0, [sp, #56]
	adds	r0, r0, #1
	str	r0, [sp, #56]
	.loc	3 1455 9 is_stmt 0      @ C:/Keil_v5/ARM/PACK/Nuvoton/NuMicro_M2351_BSP/1.0.0/Device/M2351/StdDriver/src/crypto.c:1455:9
	b	.LBB29_8
.Ltmp395:
.LBB29_11:
	.loc	3 1459 9 is_stmt 1      @ C:/Keil_v5/ARM/PACK/Nuvoton/NuMicro_M2351_BSP/1.0.0/Device/M2351/StdDriver/src/crypto.c:1459:9
	ldr	r0, [sp, #360]
	.loc	3 1459 15 is_stmt 0     @ C:/Keil_v5/ARM/PACK/Nuvoton/NuMicro_M2351_BSP/1.0.0/Device/M2351/StdDriver/src/crypto.c:1459:15
	movw	r1, #2128
	.loc	3 1459 25               @ C:/Keil_v5/ARM/PACK/Nuvoton/NuMicro_M2351_BSP/1.0.0/Device/M2351/StdDriver/src/crypto.c:1459:25
	movs	r2, #1
	str	r2, [r0, r1]
	movs	r0, #0
.Ltmp396:
	.loc	3 1462 15 is_stmt 1     @ C:/Keil_v5/ARM/PACK/Nuvoton/NuMicro_M2351_BSP/1.0.0/Device/M2351/StdDriver/src/crypto.c:1462:15
	str	r0, [sp, #56]
	.loc	3 1462 13 is_stmt 0     @ C:/Keil_v5/ARM/PACK/Nuvoton/NuMicro_M2351_BSP/1.0.0/Device/M2351/StdDriver/src/crypto.c:1462:13
	b	.LBB29_12
.LBB29_12:                              @ =>This Inner Loop Header: Depth=1
.Ltmp397:
	.loc	3 1462 20               @ C:/Keil_v5/ARM/PACK/Nuvoton/NuMicro_M2351_BSP/1.0.0/Device/M2351/StdDriver/src/crypto.c:1462:20
	ldr	r0, [sp, #56]
.Ltmp398:
	.loc	3 1462 9                @ C:/Keil_v5/ARM/PACK/Nuvoton/NuMicro_M2351_BSP/1.0.0/Device/M2351/StdDriver/src/crypto.c:1462:9
	cmp	r0, #17
	bgt	.LBB29_15
	b	.LBB29_13
.LBB29_13:                              @   in Loop: Header=BB29_12 Depth=1
.Ltmp399:
	.loc	3 1464 26 is_stmt 1     @ C:/Keil_v5/ARM/PACK/Nuvoton/NuMicro_M2351_BSP/1.0.0/Device/M2351/StdDriver/src/crypto.c:1464:26
	ldr	r0, [sp, #56]
	.loc	3 1464 13 is_stmt 0     @ C:/Keil_v5/ARM/PACK/Nuvoton/NuMicro_M2351_BSP/1.0.0/Device/M2351/StdDriver/src/crypto.c:1464:13
	lsls	r0, r0, #2
	ldr	r1, __arm_cp.29_8
	movs	r2, #0
	.loc	3 1464 29               @ C:/Keil_v5/ARM/PACK/Nuvoton/NuMicro_M2351_BSP/1.0.0/Device/M2351/StdDriver/src/crypto.c:1464:29
	str	r2, [r0, r1]
	.loc	3 1465 9 is_stmt 1      @ C:/Keil_v5/ARM/PACK/Nuvoton/NuMicro_M2351_BSP/1.0.0/Device/M2351/StdDriver/src/crypto.c:1465:9
	b	.LBB29_14
.Ltmp400:
.LBB29_14:                              @   in Loop: Header=BB29_12 Depth=1
	.loc	3 1462 29               @ C:/Keil_v5/ARM/PACK/Nuvoton/NuMicro_M2351_BSP/1.0.0/Device/M2351/StdDriver/src/crypto.c:1462:29
	ldr	r0, [sp, #56]
	adds	r0, r0, #1
	str	r0, [sp, #56]
	.loc	3 1462 9 is_stmt 0      @ C:/Keil_v5/ARM/PACK/Nuvoton/NuMicro_M2351_BSP/1.0.0/Device/M2351/StdDriver/src/crypto.c:1462:9
	b	.LBB29_12
.Ltmp401:
.LBB29_15:
	.loc	3 1466 17 is_stmt 1     @ C:/Keil_v5/ARM/PACK/Nuvoton/NuMicro_M2351_BSP/1.0.0/Device/M2351/StdDriver/src/crypto.c:1466:17
	ldr	r0, [sp, #392]
	.loc	3 1466 20 is_stmt 0     @ C:/Keil_v5/ARM/PACK/Nuvoton/NuMicro_M2351_BSP/1.0.0/Device/M2351/StdDriver/src/crypto.c:1466:20
	ldr	r1, [sp, #360]
	.loc	3 1466 26               @ C:/Keil_v5/ARM/PACK/Nuvoton/NuMicro_M2351_BSP/1.0.0/Device/M2351/StdDriver/src/crypto.c:1466:26
	ldr	r2, .LCPI29_9
	adds	r1, r1, r2
	.loc	3 1466 9                @ C:/Keil_v5/ARM/PACK/Nuvoton/NuMicro_M2351_BSP/1.0.0/Device/M2351/StdDriver/src/crypto.c:1466:9
	bl	Hex2Reg
	.loc	3 1468 23 is_stmt 1     @ C:/Keil_v5/ARM/PACK/Nuvoton/NuMicro_M2351_BSP/1.0.0/Device/M2351/StdDriver/src/crypto.c:1468:23
	ldr	r0, [sp, #360]
	.loc	3 1468 9 is_stmt 0      @ C:/Keil_v5/ARM/PACK/Nuvoton/NuMicro_M2351_BSP/1.0.0/Device/M2351/StdDriver/src/crypto.c:1468:9
	movw	r1, #512
	bl	run_ecc_codec
	movs	r0, #0
.Ltmp402:
	.loc	3 1471 15 is_stmt 1     @ C:/Keil_v5/ARM/PACK/Nuvoton/NuMicro_M2351_BSP/1.0.0/Device/M2351/StdDriver/src/crypto.c:1471:15
	str	r0, [sp, #56]
	.loc	3 1471 13 is_stmt 0     @ C:/Keil_v5/ARM/PACK/Nuvoton/NuMicro_M2351_BSP/1.0.0/Device/M2351/StdDriver/src/crypto.c:1471:13
	b	.LBB29_16
.LBB29_16:                              @ =>This Inner Loop Header: Depth=1
.Ltmp403:
	.loc	3 1471 20               @ C:/Keil_v5/ARM/PACK/Nuvoton/NuMicro_M2351_BSP/1.0.0/Device/M2351/StdDriver/src/crypto.c:1471:20
	ldr	r0, [sp, #56]
.Ltmp404:
	.loc	3 1471 9                @ C:/Keil_v5/ARM/PACK/Nuvoton/NuMicro_M2351_BSP/1.0.0/Device/M2351/StdDriver/src/crypto.c:1471:9
	cmp	r0, #17
	bgt	.LBB29_19
	b	.LBB29_17
.LBB29_17:                              @   in Loop: Header=BB29_16 Depth=1
.Ltmp405:
	.loc	3 1473 31 is_stmt 1     @ C:/Keil_v5/ARM/PACK/Nuvoton/NuMicro_M2351_BSP/1.0.0/Device/M2351/StdDriver/src/crypto.c:1473:31
	ldr	r0, [sp, #360]
	.loc	3 1473 44 is_stmt 0     @ C:/Keil_v5/ARM/PACK/Nuvoton/NuMicro_M2351_BSP/1.0.0/Device/M2351/StdDriver/src/crypto.c:1473:44
	ldr	r1, [sp, #56]
	.loc	3 1473 31               @ C:/Keil_v5/ARM/PACK/Nuvoton/NuMicro_M2351_BSP/1.0.0/Device/M2351/StdDriver/src/crypto.c:1473:31
	lsls	r1, r1, #2
	.loc	3 1473 37               @ C:/Keil_v5/ARM/PACK/Nuvoton/NuMicro_M2351_BSP/1.0.0/Device/M2351/StdDriver/src/crypto.c:1473:37
	adds	r0, r0, r1
	ldr	r1, .LCPI29_9
	.loc	3 1473 31               @ C:/Keil_v5/ARM/PACK/Nuvoton/NuMicro_M2351_BSP/1.0.0/Device/M2351/StdDriver/src/crypto.c:1473:31
	ldr	r0, [r0, r1]
	.loc	3 1473 26               @ C:/Keil_v5/ARM/PACK/Nuvoton/NuMicro_M2351_BSP/1.0.0/Device/M2351/StdDriver/src/crypto.c:1473:26
	ldr	r1, [sp, #56]
	.loc	3 1473 13               @ C:/Keil_v5/ARM/PACK/Nuvoton/NuMicro_M2351_BSP/1.0.0/Device/M2351/StdDriver/src/crypto.c:1473:13
	lsls	r1, r1, #2
	add	r2, sp, #204
	.loc	3 1473 29               @ C:/Keil_v5/ARM/PACK/Nuvoton/NuMicro_M2351_BSP/1.0.0/Device/M2351/StdDriver/src/crypto.c:1473:29
	str	r0, [r2, r1]
	.loc	3 1474 9 is_stmt 1      @ C:/Keil_v5/ARM/PACK/Nuvoton/NuMicro_M2351_BSP/1.0.0/Device/M2351/StdDriver/src/crypto.c:1474:9
	b	.LBB29_18
.Ltmp406:
.LBB29_18:                              @   in Loop: Header=BB29_16 Depth=1
	.loc	3 1471 29               @ C:/Keil_v5/ARM/PACK/Nuvoton/NuMicro_M2351_BSP/1.0.0/Device/M2351/StdDriver/src/crypto.c:1471:29
	ldr	r0, [sp, #56]
	adds	r0, r0, #1
	str	r0, [sp, #56]
	.loc	3 1471 9 is_stmt 0      @ C:/Keil_v5/ARM/PACK/Nuvoton/NuMicro_M2351_BSP/1.0.0/Device/M2351/StdDriver/src/crypto.c:1471:9
	b	.LBB29_16
.Ltmp407:
.LBB29_19:
	.loc	3 1502 15 is_stmt 1     @ C:/Keil_v5/ARM/PACK/Nuvoton/NuMicro_M2351_BSP/1.0.0/Device/M2351/StdDriver/src/crypto.c:1502:15
	movs	r0, #0
	str	r0, [sp, #56]
	.loc	3 1502 13 is_stmt 0     @ C:/Keil_v5/ARM/PACK/Nuvoton/NuMicro_M2351_BSP/1.0.0/Device/M2351/StdDriver/src/crypto.c:1502:13
	b	.LBB29_20
.LBB29_20:                              @ =>This Inner Loop Header: Depth=1
.Ltmp408:
	.loc	3 1502 20               @ C:/Keil_v5/ARM/PACK/Nuvoton/NuMicro_M2351_BSP/1.0.0/Device/M2351/StdDriver/src/crypto.c:1502:20
	ldr	r0, [sp, #56]
.Ltmp409:
	.loc	3 1502 9                @ C:/Keil_v5/ARM/PACK/Nuvoton/NuMicro_M2351_BSP/1.0.0/Device/M2351/StdDriver/src/crypto.c:1502:9
