	.text
	.syntax unified
	.eabi_attribute	67, "2.09"	@ Tag_conformance
	.cpu	cortex-m23
	.eabi_attribute	6, 16	@ Tag_CPU_arch
	.eabi_attribute	7, 77	@ Tag_CPU_arch_profile
	.eabi_attribute	8, 0	@ Tag_ARM_ISA_use
	.eabi_attribute	9, 3	@ Tag_THUMB_ISA_use
	.eabi_attribute	34, 0	@ Tag_CPU_unaligned_access
	.eabi_attribute	17, 1	@ Tag_ABI_PCS_GOT_use
	.eabi_attribute	20, 2	@ Tag_ABI_FP_denormal
	.eabi_attribute	21, 0	@ Tag_ABI_FP_exceptions
	.eabi_attribute	23, 1	@ Tag_ABI_FP_number_model
	.eabi_attribute	24, 1	@ Tag_ABI_align_needed
	.eabi_attribute	25, 1	@ Tag_ABI_align_preserved
	.eabi_attribute	38, 1	@ Tag_ABI_FP_16bit_format
	.eabi_attribute	18, 4	@ Tag_ABI_PCS_wchar_t
	.eabi_attribute	26, 2	@ Tag_ABI_enum_size
	.eabi_attribute	14, 0	@ Tag_ABI_PCS_R9_use
	.file	"gpio.c"
	.section	.text.GPIO_SetMode,"ax",%progbits
	.hidden	GPIO_SetMode            @ -- Begin function GPIO_SetMode
	.globl	GPIO_SetMode
	.p2align	1
	.type	GPIO_SetMode,%function
	.code	16                      @ @GPIO_SetMode
	.thumb_func
GPIO_SetMode:
.Lfunc_begin0:
	.file	1 "../../../../../Library/StdDriver/src" "gpio.c"
	.loc	1 46 0                  @ ../../../../../Library/StdDriver/src/gpio.c:46:0
	.fnstart
	.cfi_sections .debug_frame
	.cfi_startproc
@ %bb.0:
	.save	{r4, r5, r7, lr}
	push	{r4, r5, r7, lr}
	.cfi_def_cfa_offset 16
	.cfi_offset lr, -4
	.cfi_offset r7, -8
	.cfi_offset r5, -12
	.cfi_offset r4, -16
	.pad	#28
	sub	sp, #28
	.cfi_def_cfa_offset 44
	mov	r3, r2
	mov	r4, r1
	mov	r5, r0
	str	r0, [sp, #24]
	str	r1, [sp, #20]
	str	r2, [sp, #16]
	movs	r0, #0
.Ltmp0:
	.loc	1 49 16 prologue_end    @ ../../../../../Library/StdDriver/src/gpio.c:49:16
	str	r0, [sp, #12]
	.loc	1 49 9 is_stmt 0        @ ../../../../../Library/StdDriver/src/gpio.c:49:9
	str	r3, [sp, #8]            @ 4-byte Spill
	str	r4, [sp, #4]            @ 4-byte Spill
	str	r5, [sp]                @ 4-byte Spill
	b	.LBB0_1
.LBB0_1:                                @ =>This Inner Loop Header: Depth=1
.Ltmp1:
	.loc	1 49 23                 @ ../../../../../Library/StdDriver/src/gpio.c:49:23
	ldr	r0, [sp, #12]
.Ltmp2:
	.loc	1 49 5                  @ ../../../../../Library/StdDriver/src/gpio.c:49:5
	cmp	r0, #15
	bhi	.LBB0_6
	b	.LBB0_2
.LBB0_2:                                @   in Loop: Header=BB0_1 Depth=1
.Ltmp3:
	.loc	1 51 13 is_stmt 1       @ ../../../../../Library/StdDriver/src/gpio.c:51:13
	ldr	r0, [sp, #20]
	.loc	1 51 34 is_stmt 0       @ ../../../../../Library/StdDriver/src/gpio.c:51:34
	ldr	r1, [sp, #12]
	.loc	1 51 31                 @ ../../../../../Library/StdDriver/src/gpio.c:51:31
	movs	r2, #1
	lsls	r2, r1
.Ltmp4:
	.loc	1 51 12                 @ ../../../../../Library/StdDriver/src/gpio.c:51:12
	tst	r0, r2
	beq	.LBB0_4
	b	.LBB0_3
.LBB0_3:                                @   in Loop: Header=BB0_1 Depth=1
.Ltmp5:
	.loc	1 53 27 is_stmt 1       @ ../../../../../Library/StdDriver/src/gpio.c:53:27
	ldr	r0, [sp, #24]
	.loc	1 53 33 is_stmt 0       @ ../../../../../Library/StdDriver/src/gpio.c:53:33
	ldr	r0, [r0]
	.loc	1 53 52                 @ ../../../../../Library/StdDriver/src/gpio.c:53:52
	ldr	r1, [sp, #12]
	.loc	1 53 59                 @ ../../../../../Library/StdDriver/src/gpio.c:53:59
	lsls	r1, r1, #1
	.loc	1 53 48                 @ ../../../../../Library/StdDriver/src/gpio.c:53:48
	movs	r2, #3
	lsls	r2, r1
	.loc	1 53 38                 @ ../../../../../Library/StdDriver/src/gpio.c:53:38
	bics	r0, r2
	.loc	1 53 70                 @ ../../../../../Library/StdDriver/src/gpio.c:53:70
	ldr	r2, [sp, #16]
	.loc	1 53 78                 @ ../../../../../Library/StdDriver/src/gpio.c:53:78
	lsls	r2, r1
	.loc	1 53 67                 @ ../../../../../Library/StdDriver/src/gpio.c:53:67
	orrs	r0, r2
	.loc	1 53 13                 @ ../../../../../Library/StdDriver/src/gpio.c:53:13
	ldr	r1, [sp, #24]
	.loc	1 53 24                 @ ../../../../../Library/StdDriver/src/gpio.c:53:24
	str	r0, [r1]
	.loc	1 54 9 is_stmt 1        @ ../../../../../Library/StdDriver/src/gpio.c:54:9
	b	.LBB0_4
.Ltmp6:
.LBB0_4:                                @   in Loop: Header=BB0_1 Depth=1
	.loc	1 55 5                  @ ../../../../../Library/StdDriver/src/gpio.c:55:5
	b	.LBB0_5
.Ltmp7:
.LBB0_5:                                @   in Loop: Header=BB0_1 Depth=1
	.loc	1 49 52                 @ ../../../../../Library/StdDriver/src/gpio.c:49:52
	ldr	r0, [sp, #12]
	adds	r0, r0, #1
	str	r0, [sp, #12]
	.loc	1 49 5 is_stmt 0        @ ../../../../../Library/StdDriver/src/gpio.c:49:5
	b	.LBB0_1
.Ltmp8:
.LBB0_6:
	.loc	1 56 1 is_stmt 1        @ ../../../../../Library/StdDriver/src/gpio.c:56:1
	add	sp, #28
	pop	{r4, r5, r7, pc}
.Ltmp9:
.Lfunc_end0:
	.size	GPIO_SetMode, .Lfunc_end0-GPIO_SetMode
	.cfi_endproc
	.cantunwind
	.fnend
                                        @ -- End function
	.section	.text.GPIO_EnableInt,"ax",%progbits
	.hidden	GPIO_EnableInt          @ -- Begin function GPIO_EnableInt
	.globl	GPIO_EnableInt
	.p2align	2
	.type	GPIO_EnableInt,%function
	.code	16                      @ @GPIO_EnableInt
	.thumb_func
GPIO_EnableInt:
.Lfunc_begin1:
	.loc	1 81 0                  @ ../../../../../Library/StdDriver/src/gpio.c:81:0
	.fnstart
	.cfi_startproc
@ %bb.0:
	.save	{r4, r5, r6, lr}
	push	{r4, r5, r6, lr}
	.cfi_def_cfa_offset 16
	.cfi_offset lr, -4
	.cfi_offset r6, -8
	.cfi_offset r5, -12
	.cfi_offset r4, -16
	.pad	#24
	sub	sp, #24
	.cfi_def_cfa_offset 40
	mov	r3, r2
	mov	r4, r1
	mov	r5, r0
	str	r0, [sp, #20]
	str	r1, [sp, #16]
	str	r2, [sp, #12]
.Ltmp10:
	.loc	1 83 22 prologue_end    @ ../../../../../Library/StdDriver/src/gpio.c:83:22
	ldr	r0, [sp, #20]
	.loc	1 83 28 is_stmt 0       @ ../../../../../Library/StdDriver/src/gpio.c:83:28
	ldr	r0, [r0, #24]
	.loc	1 83 47                 @ ../../../../../Library/StdDriver/src/gpio.c:83:47
	ldr	r1, [sp, #16]
	.loc	1 83 44                 @ ../../../../../Library/StdDriver/src/gpio.c:83:44
	movs	r2, #1
	lsls	r2, r1
	.loc	1 83 36                 @ ../../../../../Library/StdDriver/src/gpio.c:83:36
	bics	r0, r2
	add	r2, sp, #12
	.loc	1 83 61                 @ ../../../../../Library/StdDriver/src/gpio.c:83:61
	ldrb	r2, [r2, #3]
	.loc	1 83 92                 @ ../../../../../Library/StdDriver/src/gpio.c:83:92
	lsls	r2, r1
	.loc	1 83 56                 @ ../../../../../Library/StdDriver/src/gpio.c:83:56
	orrs	r0, r2
	.loc	1 83 5                  @ ../../../../../Library/StdDriver/src/gpio.c:83:5
	ldr	r1, [sp, #20]
	.loc	1 83 19                 @ ../../../../../Library/StdDriver/src/gpio.c:83:19
	str	r0, [r1, #24]
	.loc	1 86 20 is_stmt 1       @ ../../../../../Library/StdDriver/src/gpio.c:86:20
	ldr	r0, [sp, #20]
	.loc	1 86 26 is_stmt 0       @ ../../../../../Library/StdDriver/src/gpio.c:86:26
	ldr	r0, [r0, #28]
	.loc	1 86 52                 @ ../../../../../Library/StdDriver/src/gpio.c:86:52
	ldr	r1, [sp, #16]
	.loc	1 86 49                 @ ../../../../../Library/StdDriver/src/gpio.c:86:49
	ldr	r2, __arm_cp.1_0
	lsls	r2, r1
	.loc	1 86 32                 @ ../../../../../Library/StdDriver/src/gpio.c:86:32
	bics	r0, r2
	.loc	1 86 65                 @ ../../../../../Library/StdDriver/src/gpio.c:86:65
	ldr	r2, [sp, #12]
	.loc	1 86 79                 @ ../../../../../Library/StdDriver/src/gpio.c:86:79
	movs	r6, #255
	lsls	r6, r6, #24
	bics	r2, r6
	.loc	1 86 93                 @ ../../../../../Library/StdDriver/src/gpio.c:86:93
	lsls	r2, r1
	.loc	1 86 61                 @ ../../../../../Library/StdDriver/src/gpio.c:86:61
	orrs	r0, r2
	.loc	1 86 5                  @ ../../../../../Library/StdDriver/src/gpio.c:86:5
	ldr	r1, [sp, #20]
	.loc	1 86 17                 @ ../../../../../Library/StdDriver/src/gpio.c:86:17
	str	r0, [r1, #28]
	.loc	1 87 1 is_stmt 1        @ ../../../../../Library/StdDriver/src/gpio.c:87:1
	str	r3, [sp, #8]            @ 4-byte Spill
	str	r4, [sp, #4]            @ 4-byte Spill
	str	r5, [sp]                @ 4-byte Spill
	add	sp, #24
	pop	{r4, r5, r6, pc}
.Ltmp11:
	.p2align	2
@ %bb.1:
	.loc	1 0 1 is_stmt 0         @ ../../../../../Library/StdDriver/src/gpio.c:0:1
__arm_cp.1_0:
	.long	65537                   @ 0x10001
.Lcpi_end0:
	.size	__arm_cp.1_0, .Lcpi_end0-__arm_cp.1_0
.Lfunc_end1:
	.size	GPIO_EnableInt, .Lfunc_end1-GPIO_EnableInt
	.cfi_endproc
	.cantunwind
	.fnend
                                        @ -- End function
	.section	.text.GPIO_DisableInt,"ax",%progbits
	.hidden	GPIO_DisableInt         @ -- Begin function GPIO_DisableInt
	.globl	GPIO_DisableInt
	.p2align	2
	.type	GPIO_DisableInt,%function
	.code	16                      @ @GPIO_DisableInt
	.thumb_func
GPIO_DisableInt:
.Lfunc_begin2:
	.loc	1 108 0 is_stmt 1       @ ../../../../../Library/StdDriver/src/gpio.c:108:0
	.fnstart
	.cfi_startproc
@ %bb.0:
	.save	{r4, lr}
	push	{r4, lr}
	.cfi_def_cfa_offset 8
	.cfi_offset lr, -4
	.cfi_offset r4, -8
	.pad	#16
	sub	sp, #16
	.cfi_def_cfa_offset 24
	mov	r2, r1
	mov	r3, r0
	str	r0, [sp, #12]
	str	r1, [sp, #8]
.Ltmp12:
	.loc	1 110 31 prologue_end   @ ../../../../../Library/StdDriver/src/gpio.c:110:31
	ldr	r0, [sp, #8]
	.loc	1 110 28 is_stmt 0      @ ../../../../../Library/StdDriver/src/gpio.c:110:28
	movs	r1, #1
	lsls	r1, r0
	.loc	1 110 5                 @ ../../../../../Library/StdDriver/src/gpio.c:110:5
	ldr	r0, [sp, #12]
	.loc	1 110 19                @ ../../../../../Library/StdDriver/src/gpio.c:110:19
	ldr	r4, [r0, #24]
	bics	r4, r1
	str	r4, [r0, #24]
	.loc	1 113 40 is_stmt 1      @ ../../../../../Library/StdDriver/src/gpio.c:113:40
	ldr	r0, [sp, #8]
	.loc	1 113 37 is_stmt 0      @ ../../../../../Library/StdDriver/src/gpio.c:113:37
	ldr	r1, __arm_cp.2_0
	lsls	r1, r0
	.loc	1 113 5                 @ ../../../../../Library/StdDriver/src/gpio.c:113:5
	ldr	r0, [sp, #12]
	.loc	1 113 17                @ ../../../../../Library/StdDriver/src/gpio.c:113:17
	ldr	r4, [r0, #28]
	bics	r4, r1
	str	r4, [r0, #28]
	.loc	1 114 1 is_stmt 1       @ ../../../../../Library/StdDriver/src/gpio.c:114:1
	str	r2, [sp, #4]            @ 4-byte Spill
	str	r3, [sp]                @ 4-byte Spill
	add	sp, #16
	pop	{r4, pc}
.Ltmp13:
	.p2align	2
@ %bb.1:
	.loc	1 0 1 is_stmt 0         @ ../../../../../Library/StdDriver/src/gpio.c:0:1
__arm_cp.2_0:
	.long	65537                   @ 0x10001
.Lcpi_end1:
	.size	__arm_cp.2_0, .Lcpi_end1-__arm_cp.2_0
.Lfunc_end2:
	.size	GPIO_DisableInt, .Lfunc_end2-GPIO_DisableInt
	.cfi_endproc
	.cantunwind
	.fnend
                                        @ -- End function
	.section	.text.GPIO_SetSlewCtl,"ax",%progbits
	.hidden	GPIO_SetSlewCtl         @ -- Begin function GPIO_SetSlewCtl
	.globl	GPIO_SetSlewCtl
	.p2align	1
	.type	GPIO_SetSlewCtl,%function
	.code	16                      @ @GPIO_SetSlewCtl
	.thumb_func
GPIO_SetSlewCtl:
.Lfunc_begin3:
	.loc	1 138 0 is_stmt 1       @ ../../../../../Library/StdDriver/src/gpio.c:138:0
	.fnstart
	.cfi_startproc
@ %bb.0:
	.save	{r4, r5, r7, lr}
	push	{r4, r5, r7, lr}
	.cfi_def_cfa_offset 16
	.cfi_offset lr, -4
	.cfi_offset r7, -8
	.cfi_offset r5, -12
	.cfi_offset r4, -16
	.pad	#28
	sub	sp, #28
	.cfi_def_cfa_offset 44
	mov	r3, r2
	mov	r4, r1
	mov	r5, r0
	str	r0, [sp, #24]
	str	r1, [sp, #20]
	str	r2, [sp, #16]
	movs	r0, #0
.Ltmp14:
	.loc	1 141 16 prologue_end   @ ../../../../../Library/StdDriver/src/gpio.c:141:16
	str	r0, [sp, #12]
	.loc	1 141 9 is_stmt 0       @ ../../../../../Library/StdDriver/src/gpio.c:141:9
	str	r3, [sp, #8]            @ 4-byte Spill
	str	r4, [sp, #4]            @ 4-byte Spill
	str	r5, [sp]                @ 4-byte Spill
	b	.LBB3_1
.LBB3_1:                                @ =>This Inner Loop Header: Depth=1
.Ltmp15:
	.loc	1 141 23                @ ../../../../../Library/StdDriver/src/gpio.c:141:23
	ldr	r0, [sp, #12]
.Ltmp16:
	.loc	1 141 5                 @ ../../../../../Library/StdDriver/src/gpio.c:141:5
	cmp	r0, #15
	bhi	.LBB3_6
	b	.LBB3_2
.LBB3_2:                                @   in Loop: Header=BB3_1 Depth=1
.Ltmp17:
	.loc	1 143 12 is_stmt 1      @ ../../../../../Library/StdDriver/src/gpio.c:143:12
	ldr	r0, [sp, #20]
	.loc	1 143 33 is_stmt 0      @ ../../../../../Library/StdDriver/src/gpio.c:143:33
	ldr	r1, [sp, #12]
	.loc	1 143 30                @ ../../../../../Library/StdDriver/src/gpio.c:143:30
	movs	r2, #1
	lsls	r2, r1
.Ltmp18:
	.loc	1 143 12                @ ../../../../../Library/StdDriver/src/gpio.c:143:12
	tst	r0, r2
	beq	.LBB3_4
	b	.LBB3_3
.LBB3_3:                                @   in Loop: Header=BB3_1 Depth=1
.Ltmp19:
	.loc	1 145 30 is_stmt 1      @ ../../../../../Library/StdDriver/src/gpio.c:145:30
	ldr	r0, [sp, #24]
	.loc	1 145 36 is_stmt 0      @ ../../../../../Library/StdDriver/src/gpio.c:145:36
	ldr	r0, [r0, #40]
	.loc	1 145 58                @ ../../../../../Library/StdDriver/src/gpio.c:145:58
	ldr	r1, [sp, #12]
	.loc	1 145 65                @ ../../../../../Library/StdDriver/src/gpio.c:145:65
	lsls	r1, r1, #1
	.loc	1 145 54                @ ../../../../../Library/StdDriver/src/gpio.c:145:54
	movs	r2, #3
	lsls	r2, r1
	.loc	1 145 44                @ ../../../../../Library/StdDriver/src/gpio.c:145:44
	bics	r0, r2
	.loc	1 145 76                @ ../../../../../Library/StdDriver/src/gpio.c:145:76
	ldr	r2, [sp, #16]
	.loc	1 145 84                @ ../../../../../Library/StdDriver/src/gpio.c:145:84
	lsls	r2, r1
	.loc	1 145 73                @ ../../../../../Library/StdDriver/src/gpio.c:145:73
	orrs	r0, r2
	.loc	1 145 13                @ ../../../../../Library/StdDriver/src/gpio.c:145:13
	ldr	r1, [sp, #24]
	.loc	1 145 27                @ ../../../../../Library/StdDriver/src/gpio.c:145:27
	str	r0, [r1, #40]
	.loc	1 146 9 is_stmt 1       @ ../../../../../Library/StdDriver/src/gpio.c:146:9
	b	.LBB3_4
.Ltmp20:
.LBB3_4:                                @   in Loop: Header=BB3_1 Depth=1
	.loc	1 147 5                 @ ../../../../../Library/StdDriver/src/gpio.c:147:5
	b	.LBB3_5
.Ltmp21:
.LBB3_5:                                @   in Loop: Header=BB3_1 Depth=1
	.loc	1 141 52                @ ../../../../../Library/StdDriver/src/gpio.c:141:52
	ldr	r0, [sp, #12]
	adds	r0, r0, #1
	str	r0, [sp, #12]
	.loc	1 141 5 is_stmt 0       @ ../../../../../Library/StdDriver/src/gpio.c:141:5
	b	.LBB3_1
.Ltmp22:
.LBB3_6:
	.loc	1 148 1 is_stmt 1       @ ../../../../../Library/StdDriver/src/gpio.c:148:1
	add	sp, #28
	pop	{r4, r5, r7, pc}
.Ltmp23:
.Lfunc_end3:
	.size	GPIO_SetSlewCtl, .Lfunc_end3-GPIO_SetSlewCtl
	.cfi_endproc
	.cantunwind
	.fnend
                                        @ -- End function
	.section	.text.GPIO_SetPullCtl,"ax",%progbits
	.hidden	GPIO_SetPullCtl         @ -- Begin function GPIO_SetPullCtl
	.globl	GPIO_SetPullCtl
	.p2align	1
	.type	GPIO_SetPullCtl,%function
	.code	16                      @ @GPIO_SetPullCtl
	.thumb_func
GPIO_SetPullCtl:
.Lfunc_begin4:
	.loc	1 172 0                 @ ../../../../../Library/StdDriver/src/gpio.c:172:0
	.fnstart
	.cfi_startproc
@ %bb.0:
	.save	{r4, r5, r7, lr}
	push	{r4, r5, r7, lr}
	.cfi_def_cfa_offset 16
	.cfi_offset lr, -4
	.cfi_offset r7, -8
	.cfi_offset r5, -12
	.cfi_offset r4, -16
	.pad	#28
	sub	sp, #28
	.cfi_def_cfa_offset 44
	mov	r3, r2
	mov	r4, r1
	mov	r5, r0
	str	r0, [sp, #24]
	str	r1, [sp, #20]
	str	r2, [sp, #16]
	movs	r0, #0
.Ltmp24:
	.loc	1 175 16 prologue_end   @ ../../../../../Library/StdDriver/src/gpio.c:175:16
	str	r0, [sp, #12]
	.loc	1 175 9 is_stmt 0       @ ../../../../../Library/StdDriver/src/gpio.c:175:9
	str	r3, [sp, #8]            @ 4-byte Spill
	str	r4, [sp, #4]            @ 4-byte Spill
	str	r5, [sp]                @ 4-byte Spill
	b	.LBB4_1
.LBB4_1:                                @ =>This Inner Loop Header: Depth=1
.Ltmp25:
	.loc	1 175 23                @ ../../../../../Library/StdDriver/src/gpio.c:175:23
	ldr	r0, [sp, #12]
.Ltmp26:
	.loc	1 175 5                 @ ../../../../../Library/StdDriver/src/gpio.c:175:5
	cmp	r0, #15
	bhi	.LBB4_6
	b	.LBB4_2
.LBB4_2:                                @   in Loop: Header=BB4_1 Depth=1
.Ltmp27:
	.loc	1 177 12 is_stmt 1      @ ../../../../../Library/StdDriver/src/gpio.c:177:12
	ldr	r0, [sp, #20]
	.loc	1 177 33 is_stmt 0      @ ../../../../../Library/StdDriver/src/gpio.c:177:33
	ldr	r1, [sp, #12]
	.loc	1 177 30                @ ../../../../../Library/StdDriver/src/gpio.c:177:30
	movs	r2, #1
	lsls	r2, r1
.Ltmp28:
	.loc	1 177 12                @ ../../../../../Library/StdDriver/src/gpio.c:177:12
	tst	r0, r2
	beq	.LBB4_4
	b	.LBB4_3
.LBB4_3:                                @   in Loop: Header=BB4_1 Depth=1
.Ltmp29:
	.loc	1 179 28 is_stmt 1      @ ../../../../../Library/StdDriver/src/gpio.c:179:28
	ldr	r0, [sp, #24]
	.loc	1 179 34 is_stmt 0      @ ../../../../../Library/StdDriver/src/gpio.c:179:34
	ldr	r0, [r0, #48]
	.loc	1 179 54                @ ../../../../../Library/StdDriver/src/gpio.c:179:54
	ldr	r1, [sp, #12]
	.loc	1 179 61                @ ../../../../../Library/StdDriver/src/gpio.c:179:61
	lsls	r1, r1, #1
	.loc	1 179 50                @ ../../../../../Library/StdDriver/src/gpio.c:179:50
	movs	r2, #3
	lsls	r2, r1
	.loc	1 179 40                @ ../../../../../Library/StdDriver/src/gpio.c:179:40
	bics	r0, r2
	.loc	1 179 72                @ ../../../../../Library/StdDriver/src/gpio.c:179:72
	ldr	r2, [sp, #16]
	.loc	1 179 80                @ ../../../../../Library/StdDriver/src/gpio.c:179:80
	lsls	r2, r1
	.loc	1 179 69                @ ../../../../../Library/StdDriver/src/gpio.c:179:69
	orrs	r0, r2
	.loc	1 179 13                @ ../../../../../Library/StdDriver/src/gpio.c:179:13
	ldr	r1, [sp, #24]
	.loc	1 179 25                @ ../../../../../Library/StdDriver/src/gpio.c:179:25
	str	r0, [r1, #48]
	.loc	1 180 9 is_stmt 1       @ ../../../../../Library/StdDriver/src/gpio.c:180:9
	b	.LBB4_4
.Ltmp30:
.LBB4_4:                                @   in Loop: Header=BB4_1 Depth=1
	.loc	1 181 5                 @ ../../../../../Library/StdDriver/src/gpio.c:181:5
	b	.LBB4_5
.Ltmp31:
.LBB4_5:                                @   in Loop: Header=BB4_1 Depth=1
	.loc	1 175 52                @ ../../../../../Library/StdDriver/src/gpio.c:175:52
	ldr	r0, [sp, #12]
	adds	r0, r0, #1
	str	r0, [sp, #12]
	.loc	1 175 5 is_stmt 0       @ ../../../../../Library/StdDriver/src/gpio.c:175:5
	b	.LBB4_1
.Ltmp32:
.LBB4_6:
	.loc	1 182 1 is_stmt 1       @ ../../../../../Library/StdDriver/src/gpio.c:182:1
	add	sp, #28
	pop	{r4, r5, r7, pc}
.Ltmp33:
.Lfunc_end4:
	.size	GPIO_SetPullCtl, .Lfunc_end4-GPIO_SetPullCtl
	.cfi_endproc
	.cantunwind
	.fnend
                                        @ -- End function
	.file	2 "C:\\Keil_v5\\ARM\\ARMCLANG\\Bin\\..\\include" "stdint.h"
	.file	3 "../../../../../Library/Device/Nuvoton/M2351/Include" "gpio_reg.h"
	.section	".note.GNU-stack","",%progbits
	.eabi_attribute	30, 6	@ Tag_ABI_optimization_goals
	.ARM_attribute	16, 1	@ Tag_AV_eba