	.text
	.syntax unified
	.eabi_attribute	67, "2.09"	@ Tag_conformance
	.cpu	cortex-m23
	.eabi_attribute	6, 16	@ Tag_CPU_arch
	.eabi_attribute	7, 77	@ Tag_CPU_arch_profile
	.eabi_attribute	8, 0	@ Tag_ARM_ISA_use
	.eabi_attribute	9, 3	@ Tag_THUMB_ISA_use
	.eabi_attribute	34, 0	@ Tag_CPU_unaligned_access
	.eabi_attribute	17, 1	@ Tag_ABI_PCS_GOT_use
	.eabi_attribute	20, 2	@ Tag_ABI_FP_denormal
	.eabi_attribute	21, 0	@ Tag_ABI_FP_exceptions
	.eabi_attribute	23, 1	@ Tag_ABI_FP_number_model
	.eabi_attribute	24, 1	@ Tag_ABI_align_needed
	.eabi_attribute	25, 1	@ Tag_ABI_align_preserved
	.eabi_attribute	38, 1	@ Tag_ABI_FP_16bit_format
	.eabi_attribute	18, 4	@ Tag_ABI_PCS_wchar_t
	.eabi_attribute	26, 2	@ Tag_ABI_enum_size
	.eabi_attribute	14, 0	@ Tag_ABI_PCS_R9_use
	.file	"main.c"
	.file	1 "C:\\Keil_v5\\ARM\\ARMCLANG\\Bin\\..\\include" "stdint.h"
	.file	2 ".." "main.c"
	.file	3 "../../Secure" "main.h"
	.file	4 "../../../../../Library/Device/Nuvoton/M2351/Include" "M2351.h"
	.file	5 "../../../../../Library/Device/Nuvoton/M2351/Include" "crpt_reg.h"
	.file	6 "../../../../../Library/CMSIS/Include" "core_armv8mbl.h"
	.file	7 "../../../../../Library/Device/Nuvoton/M2351/Include" "clk_reg.h"
	.file	8 "../../../../../Library/Device/Nuvoton/M2351/Include" "sys_reg.h"
	.file	9 "../../../../../Library/Device/Nuvoton/M2351/Include" "gpio_reg.h"
	.file	10 "../../../../../Library/Device/Nuvoton/M2351/Include" "uart_reg.h"
	.section	.text.S_get_secure_value,"ax",%progbits
	.hidden	S_get_secure_value      @ -- Begin function S_get_secure_value
	.globl	S_get_secure_value
	.p2align	2
	.type	S_get_secure_value,%function
	.code	16                      @ @S_get_secure_value
	.thumb_func
	.globl	__acle_se_S_get_secure_value
	.type	__acle_se_S_get_secure_value,%function
__acle_se_S_get_secure_value:
S_get_secure_value:
.Lfunc_begin0:
	.loc	2 25 0                  @ ../main.c:25:0
	.fnstart
	.cfi_sections .debug_frame
	.cfi_startproc
@ %bb.0:
	.save	{r7, lr}
	push	{r7, lr}
	.cfi_def_cfa_offset 8
	.cfi_offset lr, -4
	.cfi_offset r7, -8
	.pad	#16
	sub	sp, #16
	.cfi_def_cfa_offset 24
.Ltmp0:
	.loc	2 26 2 prologue_end     @ ../main.c:26:2
	ldr	r0, __arm_cp.0_0
	bl	printf
	.loc	2 27 2                  @ ../main.c:27:2
	ldr	r1, __arm_cp.0_1
	ldr	r2, __arm_cp.0_2
	movw	r3, #256
	str	r0, [sp, #12]           @ 4-byte Spill
	mov	r0, r1
	str	r1, [sp, #8]            @ 4-byte Spill
	mov	r1, r3
	bl	fgets
	.loc	2 28 2                  @ ../main.c:28:2
	ldr	r1, __arm_cp.0_3
	str	r0, [sp, #4]            @ 4-byte Spill
	mov	r0, r1
	ldr	r1, [sp, #8]            @ 4-byte Reload
	bl	printf
	.loc	2 30 2                  @ ../main.c:30:2
	movs	r1, #0
	str	r0, [sp]                @ 4-byte Spill
	mov	r0, r1
	add	sp, #16
	pop	{r7}
	pop	{r1}
	mov	lr, r1
	mov	r1, lr
	mov	r2, lr
	mov	r3, lr
	mov	r12, lr
	msr	apsr, lr
	bxns	lr
.Ltmp1:
	.p2align	2
@ %bb.1:
	.loc	2 0 2 is_stmt 0         @ ../main.c:0:2
__arm_cp.0_0:
	.long	.L.str
.Lcpi_end0:
	.size	__arm_cp.0_0, .Lcpi_end0-__arm_cp.0_0
__arm_cp.0_1:
	.long	secret_value
.Lcpi_end1:
	.size	__arm_cp.0_1, .Lcpi_end1-__arm_cp.0_1
__arm_cp.0_2:
	.long	__stdin
.Lcpi_end2:
	.size	__arm_cp.0_2, .Lcpi_end2-__arm_cp.0_2
__arm_cp.0_3:
	.long	.L.str.1
.Lcpi_end3:
	.size	__arm_cp.0_3, .Lcpi_end3-__arm_cp.0_3
.Lfunc_end0:
	.size	S_get_secure_value, .Lfunc_end0-S_get_secure_value
	.cfi_endproc
	.cantunwind
	.fnend
                                        @ -- End function
	.section	.text.S_get_cipher_value,"ax",%progbits
	.hidden	S_get_cipher_value      @ -- Begin function S_get_cipher_value
	.globl	S_get_cipher_value
	.p2align	2
	.type	S_get_cipher_value,%function
	.code	16                      @ @S_get_cipher_value
	.thumb_func
	.globl	__acle_se_S_get_cipher_value
	.type	__acle_se_S_get_cipher_value,%function
__acle_se_S_get_cipher_value:
S_get_cipher_value:
.Lfunc_begin1:
	.loc	2 38 0 is_stmt 1        @ ../main.c:38:0
	.fnstart
	.cfi_startproc
@ %bb.0:
	.save	{r4, lr}
	push	{r4, lr}
	.cfi_def_cfa_offset 8
	.cfi_offset lr, -4
	.cfi_offset r4, -8
	.pad	#508
	sub	sp, #508
	.pad	#508
	sub	sp, #508
	.pad	#24
	sub	sp, #24
	.cfi_def_cfa_offset 1048
.Ltmp2:
	.loc	2 41 2 prologue_end     @ ../main.c:41:2
	ldr	r0, __arm_cp.1_0
	bl	printf
	.loc	2 42 2                  @ ../main.c:42:2
	ldr	r2, __arm_cp.1_1
	add	r1, sp, #16
	movw	r3, #1024
	str	r0, [sp, #12]           @ 4-byte Spill
	mov	r0, r1
	str	r1, [sp, #8]            @ 4-byte Spill
	mov	r1, r3
	str	r3, [sp, #4]            @ 4-byte Spill
	bl	fgets
	.loc	2 43 2                  @ ../main.c:43:2
	ldr	r1, __arm_cp.1_2
	ldr	r2, [sp, #8]            @ 4-byte Reload
	str	r0, [sp]                @ 4-byte Spill
	mov	r0, r2
	ldr	r2, [sp, #4]            @ 4-byte Reload
	bl	hex_to_byte
	.loc	2 45 2                  @ ../main.c:45:2
	movs	r0, #0
	add	sp, #508
	add	sp, #508
	add	sp, #24
	pop	{r4}
	pop	{r1}
	mov	lr, r1
	mov	r1, lr
	mov	r2, lr
	mov	r3, lr
	mov	r12, lr
	msr	apsr, lr
	bxns	lr
.Ltmp3:
	.p2align	2
@ %bb.1:
	.loc	2 0 2 is_stmt 0         @ ../main.c:0:2
__arm_cp.1_0:
	.long	.L.str.2
.Lcpi_end4:
	.size	__arm_cp.1_0, .Lcpi_end4-__arm_cp.1_0
__arm_cp.1_1:
	.long	__stdin
.Lcpi_end5:
	.size	__arm_cp.1_1, .Lcpi_end5-__arm_cp.1_1
__arm_cp.1_2:
	.long	cipher_value
.Lcpi_end6:
	.size	__arm_cp.1_2, .Lcpi_end6-__arm_cp.1_2
.Lfunc_end1:
	.size	S_get_cipher_value, .Lfunc_end1-S_get_cipher_value
	.cfi_endproc
	.cantunwind
	.fnend
                                        @ -- End function
	.section	.text.hex_to_byte,"ax",%progbits
	.hidden	hex_to_byte             @ -- Begin function hex_to_byte
	.globl	hex_to_byte
	.p2align	2
	.type	hex_to_byte,%function
	.code	16                      @ @hex_to_byte
	.thumb_func
hex_to_byte:
.Lfunc_begin2:
	.loc	2 300 0 is_stmt 1       @ ../main.c:300:0
	.fnstart
	.cfi_startproc
@ %bb.0:
	.save	{r4, r5, r7, lr}
	push	{r4, r5, r7, lr}
	.cfi_def_cfa_offset 16
	.cfi_offset lr, -4
	.cfi_offset r7, -8
	.cfi_offset r5, -12
	.cfi_offset r4, -16
	.pad	#56
	sub	sp, #56
	.cfi_def_cfa_offset 72
	mov	r3, r2
	mov	r4, r1
	mov	r5, r0
	str	r0, [sp, #52]
	str	r1, [sp, #48]
	str	r2, [sp, #44]
	movs	r0, #0
.Ltmp4:
	.loc	2 301 6 prologue_end    @ ../main.c:301:6
	str	r0, [sp, #40]
	.loc	2 302 19                @ ../main.c:302:19
	ldr	r0, [sp, #52]
	.loc	2 302 12 is_stmt 0      @ ../main.c:302:12
	str	r3, [sp, #28]           @ 4-byte Spill
	str	r4, [sp, #24]           @ 4-byte Spill
	str	r5, [sp, #20]           @ 4-byte Spill
	bl	strlen
	.loc	2 302 6                 @ ../main.c:302:6
	str	r0, [sp, #36]
.Ltmp5:
	.loc	2 303 5 is_stmt 1       @ ../main.c:303:5
	ldr	r0, [sp, #36]
	.loc	2 303 9 is_stmt 0       @ ../main.c:303:9
	lsrs	r1, r0, #31
	adds	r1, r0, r1
	movs	r2, #1
	bics	r1, r2
	subs	r0, r0, r1
.Ltmp6:
	.loc	2 303 5                 @ ../main.c:303:5
	cmp	r0, #0
	beq	.LBB2_2
	b	.LBB2_1
.LBB2_1:
.Ltmp7:
	.loc	2 304 3 is_stmt 1       @ ../main.c:304:3
	b	.LBB2_10
.Ltmp8:
.LBB2_2:
	.loc	2 306 10                @ ../main.c:306:10
	movs	r0, #0
	str	r0, [sp, #32]
	.loc	2 306 6 is_stmt 0       @ ../main.c:306:6
	b	.LBB2_3
.LBB2_3:                                @ =>This Inner Loop Header: Depth=1
.Ltmp9:
	.loc	2 306 17                @ ../main.c:306:17
	ldr	r0, [sp, #52]
	.loc	2 306 21                @ ../main.c:306:21
	ldr	r1, [sp, #32]
	.loc	2 306 17                @ ../main.c:306:17
	ldrb	r0, [r0, r1]
	movs	r1, #0
	.loc	2 306 29                @ ../main.c:306:29
	cmp	r0, #0
	str	r1, [sp, #16]           @ 4-byte Spill
	beq	.LBB2_7
	b	.LBB2_4
.LBB2_4:                                @   in Loop: Header=BB2_3 Depth=1
	.loc	2 306 32                @ ../main.c:306:32
	ldr	r0, [sp, #40]
	.loc	2 306 36                @ ../main.c:306:36
	ldr	r1, [sp, #44]
	.loc	2 306 34                @ ../main.c:306:34
	movs	r2, #1
	movs	r3, #0
	cmp	r0, r1
	str	r3, [sp, #12]           @ 4-byte Spill
	str	r2, [sp, #8]            @ 4-byte Spill
	blt	.LBB2_6
@ %bb.5:                                @   in Loop: Header=BB2_3 Depth=1
	ldr	r0, [sp, #12]           @ 4-byte Reload
	str	r0, [sp, #8]            @ 4-byte Spill
.LBB2_6:                                @   in Loop: Header=BB2_3 Depth=1
	ldr	r0, [sp, #8]            @ 4-byte Reload
	str	r0, [sp, #16]           @ 4-byte Spill
	b	.LBB2_7
.Ltmp10:
.LBB2_7:                                @   in Loop: Header=BB2_3 Depth=1
	.loc	2 0 34                  @ ../main.c:0:34
	ldr	r0, [sp, #16]           @ 4-byte Reload
	.loc	2 306 2                 @ ../main.c:306:2
	lsls	r0, r0, #31
	cmp	r0, #0
	beq	.LBB2_10
	b	.LBB2_8
.LBB2_8:                                @   in Loop: Header=BB2_3 Depth=1
.Ltmp11:
	.loc	2 309 11 is_stmt 1      @ ../main.c:309:11
	ldr	r0, [sp, #52]
	.loc	2 309 15 is_stmt 0      @ ../main.c:309:15
	ldr	r1, [sp, #32]
	.loc	2 309 11                @ ../main.c:309:11
	adds	r0, r0, r1
	.loc	2 309 29                @ ../main.c:309:29
	ldr	r1, [sp, #48]
	.loc	2 309 34                @ ../main.c:309:34
	ldr	r2, [sp, #40]
	adds	r3, r2, #1
	str	r3, [sp, #40]
	.loc	2 309 29                @ ../main.c:309:29
	adds	r2, r1, r2
	.loc	2 309 3                 @ ../main.c:309:3
	ldr	r1, __arm_cp.2_0
	bl	sscanf
	.loc	2 310 2 is_stmt 1       @ ../main.c:310:2
	str	r0, [sp, #4]            @ 4-byte Spill
	b	.LBB2_9
.Ltmp12:
.LBB2_9:                                @   in Loop: Header=BB2_3 Depth=1
	.loc	2 306 47                @ ../main.c:306:47
	ldr	r0, [sp, #32]
	adds	r0, r0, #2
	str	r0, [sp, #32]
	.loc	2 306 2 is_stmt 0       @ ../main.c:306:2
	b	.LBB2_3
.Ltmp13:
.LBB2_10:
	.loc	2 311 1 is_stmt 1       @ ../main.c:311:1
	add	sp, #56
	pop	{r4, r5, r7, pc}
.Ltmp14:
	.p2align	2
@ %bb.11:
	.loc	2 0 1 is_stmt 0         @ ../main.c:0:1
__arm_cp.2_0:
	.long	.L.str.15
.Lcpi_end7:
	.size	__arm_cp.2_0, .Lcpi_end7-__arm_cp.2_0
.Lfunc_end2:
	.size	hex_to_byte, .Lfunc_end2-hex_to_byte
	.cfi_endproc
	.cantunwind
	.fnend
                                        @ -- End function
	.section	.text.S_encrypt_secure_value,"ax",%progbits
	.hidden	S_encrypt_secure_value  @ -- Begin function S_encrypt_secure_value
	.globl	S_encrypt_secure_value
	.p2align	1
	.type	S_encrypt_secure_value,%function
	.code	16                      @ @S_encrypt_secure_value
	.thumb_func
	.globl	__acle_se_S_encrypt_secure_value
	.type	__acle_se_S_encrypt_secure_value,%function
__acle_se_S_encrypt_secure_value:
S_encrypt_secure_value:
.Lfunc_begin3:
	.loc	2 53 0 is_stmt 1        @ ../main.c:53:0
	.fnstart
	.cfi_startproc
@ %bb.0:
	.save	{r7, lr}
	push	{r7, lr}
	.cfi_def_cfa_offset 8
	.cfi_offset lr, -4
	.cfi_offset r7, -8
.Ltmp15:
	.loc	2 54 2 prologue_end     @ ../main.c:54:2
	bl	encrypt
	.loc	2 55 2                  @ ../main.c:55:2
	movs	r0, #0
	pop	{r7}
	pop	{r1}
	mov	lr, r1
	mov	r1, lr
	mov	r2, lr
	mov	r3, lr
	mov	r12, lr
	msr	apsr, lr
	bxns	lr
.Ltmp16:
.Lfunc_end3:
	.size	S_encrypt_secure_value, .Lfunc_end3-S_encrypt_secure_value
	.cfi_endproc
	.cantunwind
	.fnend
                                        @ -- End function
	.section	.text.encrypt,"ax",%progbits
	.hidden	encrypt                 @ -- Begin function encrypt
	.globl	encrypt
	.p2align	2
	.type	encrypt,%function
	.code	16                      @ @encrypt
	.thumb_func
encrypt:
.Lfunc_begin4:
	.loc	2 124 0                 @ ../main.c:124:0
	.fnstart
	.cfi_startproc
@ %bb.0:
	.save	{r7, lr}
	push	{r7, lr}
	.cfi_def_cfa_offset 8
	.cfi_offset lr, -4
	.cfi_offset r7, -8
	.pad	#32
	sub	sp, #32
	.cfi_def_cfa_offset 40
.Ltmp17:
	.loc	2 125 14 prologue_end   @ ../main.c:125:14
	ldr	r0, __arm_cp.4_0
	movs	r1, #1
	str	r1, [r0]
	.loc	2 127 5                 @ ../main.c:127:5
	mov	r0, sp
	movs	r2, #3
	str	r2, [r0, #4]
	movs	r2, #0
	str	r2, [r0]
	ldr	r0, __arm_cp.4_1
	str	r0, [sp, #28]           @ 4-byte Spill
	str	r1, [sp, #24]           @ 4-byte Spill
	mov	r1, r2
	ldr	r3, [sp, #24]           @ 4-byte Reload
	str	r2, [sp, #20]           @ 4-byte Spill
	mov	r2, r3
	ldr	r3, [sp, #20]           @ 4-byte Reload
	bl	AES_Open
	.loc	2 128 5                 @ ../main.c:128:5
	ldr	r2, __arm_cp.4_2
	ldr	r0, [sp, #28]           @ 4-byte Reload
	ldr	r1, [sp, #20]           @ 4-byte Reload
	ldr	r3, [sp, #20]           @ 4-byte Reload
	bl	AES_SetKey
	.loc	2 129 3                 @ ../main.c:129:3
	ldr	r2, __arm_cp.4_3
	ldr	r0, [sp, #28]           @ 4-byte Reload
	ldr	r1, [sp, #20]           @ 4-byte Reload
	bl	AES_SetInitVect
	.loc	2 130 79                @ ../main.c:130:79
	ldr	r0, __arm_cp.4_4
	str	r0, [sp, #16]           @ 4-byte Spill
	bl	strlen
	.loc	2 130 3 is_stmt 0       @ ../main.c:130:3
	mov	r1, sp
	str	r0, [r1]
	ldr	r3, __arm_cp.4_5
	ldr	r0, [sp, #28]           @ 4-byte Reload
	ldr	r1, [sp, #20]           @ 4-byte Reload
	ldr	r2, [sp, #16]           @ 4-byte Reload
	bl	AES_SetDMATransfer
	.loc	2 133 3 is_stmt 1       @ ../main.c:133:3
	ldr	r0, __arm_cp.4_6
	bl	printf
	.loc	2 134 5                 @ ../main.c:134:5
	movs	r2, #5
	ldr	r1, [sp, #28]           @ 4-byte Reload
	str	r0, [sp, #12]           @ 4-byte Spill
	mov	r0, r1
	ldr	r1, [sp, #20]           @ 4-byte Reload
	bl	AES_Start
	.loc	2 135 1                 @ ../main.c:135:1
	add	sp, #32
	pop	{r7, pc}
.Ltmp18:
	.p2align	2
@ %bb.1:
	.loc	2 0 1 is_stmt 0         @ ../main.c:0:1
__arm_cp.4_0:
	.long	is_encrypt
.Lcpi_end8:
	.size	__arm_cp.4_0, .Lcpi_end8-__arm_cp.4_0
__arm_cp.4_1:
	.long	1073946624              @ 0x40032000
.Lcpi_end9:
	.size	__arm_cp.4_1, .Lcpi_end9-__arm_cp.4_1
__arm_cp.4_2:
	.long	aes_key
.Lcpi_end10:
	.size	__arm_cp.4_2, .Lcpi_end10-__arm_cp.4_2
__arm_cp.4_3:
	.long	aes_iv
.Lcpi_end11:
	.size	__arm_cp.4_3, .Lcpi_end11-__arm_cp.4_3
__arm_cp.4_4:
	.long	secret_value
.Lcpi_end12:
	.size	__arm_cp.4_4, .Lcpi_end12-__arm_cp.4_4
__arm_cp.4_5:
	.long	cipher_value
.Lcpi_end13:
	.size	__arm_cp.4_5, .Lcpi_end13-__arm_cp.4_5
__arm_cp.4_6:
	.long	.L.str.9
.Lcpi_end14:
	.size	__arm_cp.4_6, .Lcpi_end14-__arm_cp.4_6
.Lfunc_end4:
	.size	encrypt, .Lfunc_end4-encrypt
	.cfi_endproc
	.cantunwind
	.fnend
                                        @ -- End function
	.section	.text.S_decrypt_cipher_value,"ax",%progbits
	.hidden	S_decrypt_cipher_value  @ -- Begin function S_decrypt_cipher_value
	.globl	S_decrypt_cipher_value
	.p2align	1
	.type	S_decrypt_cipher_value,%function
	.code	16                      @ @S_decrypt_cipher_value
	.thumb_func
	.globl	__acle_se_S_decrypt_cipher_value
	.type	__acle_se_S_decrypt_cipher_value,%function
__acle_se_S_decrypt_cipher_value:
S_decrypt_cipher_value:
.Lfunc_begin5:
	.loc	2 63 0 is_stmt 1        @ ../main.c:63:0
	.fnstart
	.cfi_startproc
@ %bb.0:
	.save	{r7, lr}
	push	{r7, lr}
	.cfi_def_cfa_offset 8
	.cfi_offset lr, -4
	.cfi_offset r7, -8
.Ltmp19:
	.loc	2 64 2 prologue_end     @ ../main.c:64:2
	bl	decrypt
	.loc	2 65 2                  @ ../main.c:65:2
	movs	r0, #0
	pop	{r7}
	pop	{r1}
	mov	lr, r1
	mov	r1, lr
	mov	r2, lr
	mov	r3, lr
	mov	r12, lr
	msr	apsr, lr
	bxns	lr
.Ltmp20:
.Lfunc_end5:
	.size	S_decrypt_cipher_value, .Lfunc_end5-S_decrypt_cipher_value
	.cfi_endproc
	.cantunwind
	.fnend
                                        @ -- End function
	.section	.text.decrypt,"ax",%progbits
	.hidden	decrypt                 @ -- Begin function decrypt
	.globl	decrypt
	.p2align	2
	.type	decrypt,%function
	.code	16                      @ @decrypt
	.thumb_func
decrypt:
.Lfunc_begin6:
	.loc	2 141 0                 @ ../main.c:141:0
	.fnstart
	.cfi_startproc
@ %bb.0:
	.save	{r7, lr}
	push	{r7, lr}
	.cfi_def_cfa_offset 8
	.cfi_offset lr, -4
	.cfi_offset r7, -8
	.pad	#24
	sub	sp, #24
	.cfi_def_cfa_offset 32
.Ltmp21:
	.loc	2 142 15 prologue_end   @ ../main.c:142:15
	ldr	r0, __arm_cp.6_0
	movs	r1, #0
	str	r1, [r0]
	.loc	2 144 3                 @ ../main.c:144:3
	mov	r0, sp
	movs	r2, #3
	str	r2, [r0, #4]
	str	r1, [r0]
	ldr	r0, __arm_cp.6_1
	str	r0, [sp, #20]           @ 4-byte Spill
	str	r1, [sp, #16]           @ 4-byte Spill
	ldr	r2, [sp, #16]           @ 4-byte Reload
	ldr	r3, [sp, #16]           @ 4-byte Reload
	bl	AES_Open
	.loc	2 145 5                 @ ../main.c:145:5
	ldr	r2, __arm_cp.6_2
	ldr	r0, [sp, #20]           @ 4-byte Reload
	ldr	r1, [sp, #16]           @ 4-byte Reload
	ldr	r3, [sp, #16]           @ 4-byte Reload
	bl	AES_SetKey
	.loc	2 146 5                 @ ../main.c:146:5
	ldr	r2, __arm_cp.6_3
	ldr	r0, [sp, #20]           @ 4-byte Reload
	ldr	r1, [sp, #16]           @ 4-byte Reload
	bl	AES_SetInitVect
	.loc	2 147 81                @ ../main.c:147:81
	ldr	r0, __arm_cp.6_4
	str	r0, [sp, #12]           @ 4-byte Spill
	bl	strlen
	.loc	2 147 5 is_stmt 0       @ ../main.c:147:5
	mov	r1, sp
	str	r0, [r1]
	ldr	r3, __arm_cp.6_5
	ldr	r0, [sp, #20]           @ 4-byte Reload
	ldr	r1, [sp, #16]           @ 4-byte Reload
	ldr	r2, [sp, #12]           @ 4-byte Reload
	bl	AES_SetDMATransfer
	.loc	2 150 3 is_stmt 1       @ ../main.c:150:3
	ldr	r0, __arm_cp.6_6
	bl	printf
	.loc	2 151 5                 @ ../main.c:151:5
	movs	r2, #5
	ldr	r1, [sp, #20]           @ 4-byte Reload
	str	r0, [sp, #8]            @ 4-byte Spill
	mov	r0, r1
	ldr	r1, [sp, #16]           @ 4-byte Reload
	bl	AES_Start
	.loc	2 152 1                 @ ../main.c:152:1
	add	sp, #24
	pop	{r7, pc}
.Ltmp22:
	.p2align	2
@ %bb.1:
	.loc	2 0 1 is_stmt 0         @ ../main.c:0:1
__arm_cp.6_0:
	.long	is_encrypt
.Lcpi_end15:
	.size	__arm_cp.6_0, .Lcpi_end15-__arm_cp.6_0
__arm_cp.6_1:
	.long	1073946624              @ 0x40032000
.Lcpi_end16:
	.size	__arm_cp.6_1, .Lcpi_end16-__arm_cp.6_1
__arm_cp.6_2:
	.long	aes_key
.Lcpi_end17:
	.size	__arm_cp.6_2, .Lcpi_end17-__arm_cp.6_2
__arm_cp.6_3:
	.long	aes_iv
.Lcpi_end18:
	.size	__arm_cp.6_3, .Lcpi_end18-__arm_cp.6_3
__arm_cp.6_4:
	.long	cipher_value
.Lcpi_end19:
	.size	__arm_cp.6_4, .Lcpi_end19-__arm_cp.6_4
__arm_cp.6_5:
	.long	secret_value
.Lcpi_end20:
	.size	__arm_cp.6_5, .Lcpi_end20-__arm_cp.6_5
__arm_cp.6_6:
	.long	.L.str.10
.Lcpi_end21:
	.size	__arm_cp.6_6, .Lcpi_end21-__arm_cp.6_6
.Lfunc_end6:
	.size	decrypt, .Lfunc_end6-decrypt
	.cfi_endproc
	.cantunwind
	.fnend
                                        @ -- End function
	.section	.text.CRPT_IRQHandler,"ax",%progbits
	.hidden	CRPT_IRQHandler         @ -- Begin function CRPT_IRQHandler
	.globl	CRPT_IRQHandler
	.p2align	2
	.type	CRPT_IRQHandler,%function
	.code	16                      @ @CRPT_IRQHandler
	.thumb_func
CRPT_IRQHandler:
.Lfunc_begin7:
	.loc	2 72 0 is_stmt 1        @ ../main.c:72:0
	.fnstart
	.cfi_startproc
@ %bb.0:
	.save	{r7, lr}
	push	{r7, lr}
	.cfi_def_cfa_offset 8
	.cfi_offset lr, -4
	.cfi_offset r7, -8
	.pad	#24
	sub	sp, #24
	.cfi_def_cfa_offset 32
.Ltmp23:
	.loc	2 73 8 prologue_end     @ ../main.c:73:8
	ldr	r0, __arm_cp.7_0
	ldr	r0, [r0]
	movs	r1, #3
.Ltmp24:
	.loc	2 73 8 is_stmt 0        @ ../main.c:73:8
	tst	r0, r1
	beq	.LBB7_5
	b	.LBB7_1
.LBB7_1:
.Ltmp25:
	.loc	2 75 5 is_stmt 1        @ ../main.c:75:5
	ldr	r0, __arm_cp.7_1
	bl	printf
.Ltmp26:
	.loc	2 76 9                  @ ../main.c:76:9
	ldr	r1, __arm_cp.7_2
	ldr	r1, [r1]
.Ltmp27:
	.loc	2 76 9 is_stmt 0        @ ../main.c:76:9
	cmp	r1, #0
	str	r0, [sp, #20]           @ 4-byte Spill
	beq	.LBB7_3
	b	.LBB7_2
.LBB7_2:
.Ltmp28:
	.loc	2 78 6 is_stmt 1        @ ../main.c:78:6
	ldr	r0, __arm_cp.7_5
	bl	printf
	.loc	2 79 38                 @ ../main.c:79:38
	ldr	r1, __arm_cp.7_6
	str	r0, [sp, #16]           @ 4-byte Spill
	mov	r0, r1
	str	r1, [sp, #12]           @ 4-byte Spill
	bl	strlen
	.loc	2 79 6 is_stmt 0        @ ../main.c:79:6
	ldr	r1, [sp, #12]           @ 4-byte Reload
	str	r0, [sp, #8]            @ 4-byte Spill
	mov	r0, r1
	ldr	r1, [sp, #8]            @ 4-byte Reload
	bl	print_hex
	.loc	2 80 5 is_stmt 1        @ ../main.c:80:5
	b	.LBB7_4
.Ltmp29:
.LBB7_3:
	.loc	2 83 6                  @ ../main.c:83:6
	ldr	r0, __arm_cp.7_3
	ldr	r1, __arm_cp.7_4
	bl	printf
	str	r0, [sp, #4]            @ 4-byte Spill
	b	.LBB7_4
.Ltmp30:
.LBB7_4:
	.loc	2 85 6                  @ ../main.c:85:6
	ldr	r0, __arm_cp.7_7
	bl	printf
	.loc	2 86 9                  @ ../main.c:86:9
	ldr	r1, __arm_cp.7_0
	movs	r2, #3
	str	r2, [r1]
	.loc	2 87 5                  @ ../main.c:87:5
	str	r0, [sp]                @ 4-byte Spill
	b	.LBB7_5
.Ltmp31:
.LBB7_5:
	.loc	2 88 1                  @ ../main.c:88:1
	add	sp, #24
	pop	{r7, pc}
.Ltmp32:
	.p2align	2
@ %bb.6:
	.loc	2 0 1 is_stmt 0         @ ../main.c:0:1
__arm_cp.7_0:
	.long	1073946628              @ 0x40032004
.Lcpi_end22:
	.size	__arm_cp.7_0, .Lcpi_end22-__arm_cp.7_0
__arm_cp.7_1:
	.long	.L.str.3
.Lcpi_end23:
	.size	__arm_cp.7_1, .Lcpi_end23-__arm_cp.7_1
__arm_cp.7_2:
	.long	is_encrypt
.Lcpi_end24:
	.size	__arm_cp.7_2, .Lcpi_end24-__arm_cp.7_2
__arm_cp.7_3:
	.long	.L.str.5
.Lcpi_end25:
	.size	__arm_cp.7_3, .Lcpi_end25-__arm_cp.7_3
__arm_cp.7_4:
	.long	secret_value
.Lcpi_end26:
	.size	__arm_cp.7_4, .Lcpi_end26-__arm_cp.7_4
__arm_cp.7_5:
	.long	.L.str.4
.Lcpi_end27:
	.size	__arm_cp.7_5, .Lcpi_end27-__arm_cp.7_5
__arm_cp.7_6:
	.long	cipher_value
.Lcpi_end28:
	.size	__arm_cp.7_6, .Lcpi_end28-__arm_cp.7_6
__arm_cp.7_7:
	.long	.L.str.6
.Lcpi_end29:
	.size	__arm_cp.7_7, .Lcpi_end29-__arm_cp.7_7
.Lfunc_end7:
	.size	CRPT_IRQHandler, .Lfunc_end7-CRPT_IRQHandler
	.cfi_endproc
	.cantunwind
	.fnend
                                        @ -- End function
	.section	.text.print_hex,"ax",%progbits
	.hidden	print_hex               @ -- Begin function print_hex
	.globl	print_hex
	.p2align	2
	.type	print_hex,%function
	.code	16                      @ @print_hex
	.thumb_func
print_hex:
.Lfunc_begin8:
	.loc	2 289 0 is_stmt 1       @ ../main.c:289:0
	.fnstart
	.cfi_startproc
@ %bb.0:
	.save	{r7, lr}
	push	{r7, lr}
	.cfi_def_cfa_offset 8
	.cfi_offset lr, -4
	.cfi_offset r7, -8
	.pad	#24
	sub	sp, #24
	.cfi_def_cfa_offset 32
	mov	r2, r1
	mov	r3, r0
	str	r0, [sp, #20]
	str	r1, [sp, #16]
	movs	r0, #0
.Ltmp33:
	.loc	2 290 10 prologue_end   @ ../main.c:290:10
	str	r0, [sp, #12]
	.loc	2 290 6 is_stmt 0       @ ../main.c:290:6
	str	r2, [sp, #8]            @ 4-byte Spill
	str	r3, [sp, #4]            @ 4-byte Spill
	b	.LBB8_1
.LBB8_1:                                @ =>This Inner Loop Header: Depth=1
.Ltmp34:
	.loc	2 290 17                @ ../main.c:290:17
	ldr	r0, [sp, #12]
	.loc	2 290 21                @ ../main.c:290:21
	ldr	r1, [sp, #16]
.Ltmp35:
	.loc	2 290 2                 @ ../main.c:290:2
	cmp	r0, r1
	bge	.LBB8_4
	b	.LBB8_2
.LBB8_2:                                @   in Loop: Header=BB8_1 Depth=1
.Ltmp36:
	.loc	2 292 18 is_stmt 1      @ ../main.c:292:18
	ldr	r0, [sp, #20]
	.loc	2 292 23 is_stmt 0      @ ../main.c:292:23
	ldr	r1, [sp, #12]
	.loc	2 292 18                @ ../main.c:292:18
	ldrb	r1, [r0, r1]
	.loc	2 292 3                 @ ../main.c:292:3
	ldr	r0, __arm_cp.8_0
	bl	printf
	.loc	2 293 2 is_stmt 1       @ ../main.c:293:2
	str	r0, [sp]                @ 4-byte Spill
	b	.LBB8_3
.Ltmp37:
.LBB8_3:                                @   in Loop: Header=BB8_1 Depth=1
	.loc	2 290 28                @ ../main.c:290:28
	ldr	r0, [sp, #12]
	adds	r0, r0, #1
	str	r0, [sp, #12]
	.loc	2 290 2 is_stmt 0       @ ../main.c:290:2
	b	.LBB8_1
.Ltmp38:
.LBB8_4:
	.loc	2 294 1 is_stmt 1       @ ../main.c:294:1
	add	sp, #24
	pop	{r7, pc}
.Ltmp39:
	.p2align	2
@ %bb.5:
	.loc	2 0 1 is_stmt 0         @ ../main.c:0:1
__arm_cp.8_0:
	.long	.L.str.14
.Lcpi_end30:
	.size	__arm_cp.8_0, .Lcpi_end30-__arm_cp.8_0
.Lfunc_end8:
	.size	print_hex, .Lfunc_end8-print_hex
	.cfi_endproc
	.cantunwind
	.fnend
                                        @ -- End function
	.section	.text.main,"ax",%progbits
	.hidden	main                    @ -- Begin function main
	.globl	main
	.p2align	2
	.type	main,%function
	.code	16                      @ @main
	.thumb_func
main:
.Lfunc_begin9:
	.loc	2 95 0 is_stmt 1        @ ../main.c:95:0
	.fnstart
	.cfi_startproc
@ %bb.0:
	.save	{r7, lr}
	push	{r7, lr}
	.cfi_def_cfa_offset 8
	.cfi_offset lr, -4
	.cfi_offset r7, -8
	.pad	#16
	sub	sp, #16
	.cfi_def_cfa_offset 24
	movs	r0, #0
	str	r0, [sp, #12]
.Ltmp40:
	.loc	2 96 3 prologue_end     @ ../main.c:96:3
	ldr	r0, __arm_cp.9_0
	bl	printf
	.loc	2 97 5                  @ ../main.c:97:5
	str	r0, [sp, #8]            @ 4-byte Spill
	bl	SYS_UnlockReg
	.loc	2 99 5                  @ ../main.c:99:5
	bl	init_system
	.loc	2 101 3                 @ ../main.c:101:3
	bl	init_debug_port
	.loc	2 103 3                 @ ../main.c:103:3
	ldr	r0, __arm_cp.9_1
	bl	printf
	.loc	2 105 5                 @ ../main.c:105:5
	str	r0, [sp, #4]            @ 4-byte Spill
	bl	itsc_startup
	.loc	2 107 3                 @ ../main.c:107:3
	bl	init_crypto
	.loc	2 109 3                 @ ../main.c:109:3
	bl	SYS_LockReg
	.loc	2 111 5                 @ ../main.c:111:5
	bl	init_non_secure
	.loc	2 113 5                 @ ../main.c:113:5
	b	.LBB9_1
.LBB9_1:                                @ =>This Inner Loop Header: Depth=1
.Ltmp41:
	.loc	2 115 9                 @ ../main.c:115:9
	wfi
	.loc	2 116 5                 @ ../main.c:116:5
	b	.LBB9_2
.LBB9_2:                                @   in Loop: Header=BB9_1 Depth=1
	movs	r0, #1
	cmp	r0, #0
	bne	.LBB9_1
	b	.LBB9_3
.Ltmp42:
.LBB9_3:
	.loc	2 118 1                 @ ../main.c:118:1
	ldr	r0, [sp, #12]
	add	sp, #16
	pop	{r7, pc}
.Ltmp43:
	.p2align	2
@ %bb.4:
	.loc	2 0 1 is_stmt 0         @ ../main.c:0:1
__arm_cp.9_0:
	.long	.L.str.7
.Lcpi_end31:
	.size	__arm_cp.9_0, .Lcpi_end31-__arm_cp.9_0
__arm_cp.9_1:
	.long	.L.str.8
.Lcpi_end32:
	.size	__arm_cp.9_1, .Lcpi_end32-__arm_cp.9_1
.Lfunc_end9:
	.size	main, .Lfunc_end9-main
	.cfi_endproc
	.cantunwind
	.fnend
                                        @ -- End function
	.section	.text.SYS_UnlockReg,"ax",%progbits
	.p2align	2               @ -- Begin function SYS_UnlockReg
	.type	SYS_UnlockReg,%function
	.code	16                      @ @SYS_UnlockReg
	.thumb_func
SYS_UnlockReg:
.Lfunc_begin10:
	.file	11 "../../../../../Library/StdDriver/inc" "sys.h"
	.loc	11 3042 0 is_stmt 1     @ ../../../../../Library/StdDriver/inc\sys.h:3042:0
	.fnstart
	.cfi_startproc
@ %bb.0:
	.loc	11 3043 5 prologue_end  @ ../../../../../Library/StdDriver/inc\sys.h:3043:5
	b	.LBB10_1
.LBB10_1:                               @ =>This Inner Loop Header: Depth=1
.Ltmp44:
	.loc	11 3045 22              @ ../../../../../Library/StdDriver/inc\sys.h:3045:22
	ldr	r0, __arm_cp.10_0
	movs	r1, #89
	str	r1, [r0]
	.loc	11 3046 22              @ ../../../../../Library/StdDriver/inc\sys.h:3046:22
	movs	r1, #22
	str	r1, [r0]
	.loc	11 3047 22              @ ../../../../../Library/StdDriver/inc\sys.h:3047:22
	movs	r1, #136
	str	r1, [r0]
	.loc	11 3048 5               @ ../../../../../Library/StdDriver/inc\sys.h:3048:5
	b	.LBB10_2
.Ltmp45:
.LBB10_2:                               @   in Loop: Header=BB10_1 Depth=1
	.loc	11 3049 16              @ ../../../../../Library/StdDriver/inc\sys.h:3049:16
	ldr	r0, __arm_cp.10_0
	ldr	r0, [r0]
.Ltmp46:
	.loc	11 3048 5               @ ../../../../../Library/StdDriver/inc\sys.h:3048:5
	cmp	r0, #0
	beq	.LBB10_1
	b	.LBB10_3
.Ltmp47:
.LBB10_3:
	.loc	11 3050 1               @ ../../../../../Library/StdDriver/inc\sys.h:3050:1
	bx	lr
.Ltmp48:
	.p2align	2
@ %bb.4:
	.loc	11 0 1 is_stmt 0        @ ../../../../../Library/StdDriver/inc\sys.h:0:1
__arm_cp.10_0:
	.long	1073742080              @ 0x40000100
.Lcpi_end33:
	.size	__arm_cp.10_0, .Lcpi_end33-__arm_cp.10_0
.Lfunc_end10:
	.size	SYS_UnlockReg, .Lfunc_end10-SYS_UnlockReg
	.cfi_endproc
	.cantunwind
	.fnend
                                        @ -- End function
	.section	.text.init_system,"ax",%progbits
	.hidden	init_system             @ -- Begin function init_system
	.globl	init_system
	.p2align	2
	.type	init_system,%function
	.code	16                      @ @init_system
	.thumb_func
init_system:
.Lfunc_begin11:
	.loc	2 225 0 is_stmt 1       @ ../main.c:225:0
	.fnstart
	.cfi_startproc
@ %bb.0:
	.save	{r4, r5, r7, lr}
	push	{r4, r5, r7, lr}
	.cfi_def_cfa_offset 16
	.cfi_offset lr, -4
	.cfi_offset r7, -8
	.cfi_offset r5, -12
	.cfi_offset r4, -16
	.pad	#8
	sub	sp, #8
	.cfi_def_cfa_offset 24
.Ltmp49:
	.loc	2 231 17 prologue_end   @ ../main.c:231:17
	ldr	r0, __arm_cp.11_0
	ldr	r1, __arm_cp.11_1
	str	r1, [r0]
	.loc	2 234 5                 @ ../main.c:234:5
	b	.LBB11_1
.LBB11_1:                               @ =>This Inner Loop Header: Depth=1
	.loc	2 234 17 is_stmt 0      @ ../main.c:234:17
	ldr	r0, __arm_cp.11_2
	ldr	r0, [r0]
	.loc	2 234 24                @ ../main.c:234:24
	movs	r1, #4
	.loc	2 234 5                 @ ../main.c:234:5
	tst	r0, r1
	bne	.LBB11_3
	b	.LBB11_2
.LBB11_2:                               @   in Loop: Header=BB11_1 Depth=1
	b	.LBB11_1
.LBB11_3:
	.loc	2 237 26 is_stmt 1      @ ../main.c:237:26
	ldr	r0, __arm_cp.11_3
	ldr	r1, [r0]
	.loc	2 237 34 is_stmt 0      @ ../main.c:237:34
	movs	r2, #15
	bics	r1, r2
	.loc	2 237 64                @ ../main.c:237:64
	movs	r2, #1
	orrs	r1, r2
	.loc	2 237 18                @ ../main.c:237:18
	str	r1, [r0]
	.loc	2 240 26 is_stmt 1      @ ../main.c:240:26
	ldr	r0, __arm_cp.11_4
	ldr	r1, [r0]
	.loc	2 240 34 is_stmt 0      @ ../main.c:240:34
	movs	r3, #7
	bics	r1, r3
	.loc	2 240 64                @ ../main.c:240:64
	movs	r3, #2
	orrs	r1, r3
	.loc	2 240 18                @ ../main.c:240:18
	str	r1, [r0]
	.loc	2 243 18 is_stmt 1      @ ../main.c:243:18
	movs	r0, #3
	lsls	r0, r0, #24
	ldr	r1, __arm_cp.11_5
	str	r0, [r1]
	.loc	2 246 18                @ ../main.c:246:18
	ldr	r3, __arm_cp.11_6
	ldr	r4, [r3]
	movw	r5, #4096
	orrs	r4, r5
	str	r4, [r3]
	.loc	2 247 18                @ ../main.c:247:18
	ldr	r3, __arm_cp.11_7
	ldr	r4, [r3]
	ldr	r5, __arm_cp.11_8
	orrs	r4, r5
	str	r4, [r3]
	.loc	2 253 26                @ ../main.c:253:26
	ldr	r3, [r1]
	.loc	2 253 65 is_stmt 0      @ ../main.c:253:65
	orrs	r3, r0
	.loc	2 253 18                @ ../main.c:253:18
	str	r3, [r1]
	.loc	2 258 21 is_stmt 1      @ ../main.c:258:21
	ldr	r0, __arm_cp.11_9
	ldr	r1, __arm_cp.11_10
	str	r1, [r0]
	.loc	2 259 21                @ ../main.c:259:21
	ldr	r0, __arm_cp.11_11
	ldr	r1, __arm_cp.11_12
	str	r1, [r0]
	.loc	2 260 21                @ ../main.c:260:21
	ldr	r0, __arm_cp.11_13
	movs	r1, #64
	str	r1, [r0]
	.loc	2 266 27                @ ../main.c:266:27
	ldr	r0, __arm_cp.11_14
	ldr	r1, [r0]
	.loc	2 266 36 is_stmt 0      @ ../main.c:266:36
	movs	r3, #255
	lsls	r3, r3, #16
	bics	r1, r3
	.loc	2 266 101               @ ../main.c:266:101
	movs	r3, #51
	lsls	r3, r3, #17
	orrs	r1, r3
	.loc	2 266 19                @ ../main.c:266:19
	str	r1, [r0]
	.loc	2 268 3 is_stmt 1       @ ../main.c:268:3
	ldr	r0, __arm_cp.11_15
	movs	r1, #0
	str	r1, [sp, #4]            @ 4-byte Spill
	mov	r1, r2
	ldr	r2, [sp, #4]            @ 4-byte Reload
	bl	GPIO_SetMode
	.loc	2 269 1                 @ ../main.c:269:1
	add	sp, #8
	pop	{r4, r5, r7, pc}
.Ltmp50:
	.p2align	2
@ %bb.4:
	.loc	2 0 1 is_stmt 0         @ ../main.c:0:1
__arm_cp.11_0:
	.long	1073742400              @ 0x40000240
.Lcpi_end34:
	.size	__arm_cp.11_0, .Lcpi_end34-__arm_cp.11_0
__arm_cp.11_1:
	.long	525326                  @ 0x8040e
.Lcpi_end35:
	.size	__arm_cp.11_1, .Lcpi_end35-__arm_cp.11_1
__arm_cp.11_2:
	.long	1073742416              @ 0x40000250
.Lcpi_end36:
	.size	__arm_cp.11_2, .Lcpi_end36-__arm_cp.11_2
__arm_cp.11_3:
	.long	1073742368              @ 0x40000220
.Lcpi_end37:
	.size	__arm_cp.11_3, .Lcpi_end37-__arm_cp.11_3
__arm_cp.11_4:
	.long	1073742352              @ 0x40000210
.Lcpi_end38:
	.size	__arm_cp.11_4, .Lcpi_end38-__arm_cp.11_4
__arm_cp.11_5:
	.long	1073742356              @ 0x40000214
.Lcpi_end39:
	.size	__arm_cp.11_5, .Lcpi_end39-__arm_cp.11_5
__arm_cp.11_6:
	.long	1073742340              @ 0x40000204
.Lcpi_end40:
	.size	__arm_cp.11_6, .Lcpi_end40-__arm_cp.11_6
__arm_cp.11_7:
	.long	1073742344              @ 0x40000208
.Lcpi_end41:
	.size	__arm_cp.11_7, .Lcpi_end41-__arm_cp.11_7
__arm_cp.11_8:
	.long	65540                   @ 0x10004
.Lcpi_end42:
	.size	__arm_cp.11_8, .Lcpi_end42-__arm_cp.11_8
__arm_cp.11_9:
	.long	PllClock
.Lcpi_end43:
	.size	__arm_cp.11_9, .Lcpi_end43-__arm_cp.11_9
__arm_cp.11_10:
	.long	128000000               @ 0x7a12000
.Lcpi_end44:
	.size	__arm_cp.11_10, .Lcpi_end44-__arm_cp.11_10
__arm_cp.11_11:
	.long	SystemCoreClock
.Lcpi_end45:
	.size	__arm_cp.11_11, .Lcpi_end45-__arm_cp.11_11
__arm_cp.11_12:
	.long	64000000                @ 0x3d09000
.Lcpi_end46:
	.size	__arm_cp.11_12, .Lcpi_end46-__arm_cp.11_12
__arm_cp.11_13:
	.long	CyclesPerUs
.Lcpi_end47:
	.size	__arm_cp.11_13, .Lcpi_end47-__arm_cp.11_13
__arm_cp.11_14:
	.long	1073741884              @ 0x4000003c
.Lcpi_end48:
	.size	__arm_cp.11_14, .Lcpi_end48-__arm_cp.11_14
__arm_cp.11_15:
	.long	1342193728              @ 0x50004040
.Lcpi_end49:
	.size	__arm_cp.11_15, .Lcpi_end49-__arm_cp.11_15
.Lfunc_end11:
	.size	init_system, .Lfunc_end11-init_system
	.cfi_endproc
	.cantunwind
	.fnend
                                        @ -- End function
	.section	.text.init_debug_port,"ax",%progbits
	.hidden	init_debug_port         @ -- Begin function init_debug_port
	.globl	init_debug_port
	.p2align	2
	.type	init_debug_port,%function
	.code	16                      @ @init_debug_port
	.thumb_func
init_debug_port:
.Lfunc_begin12:
	.loc	2 275 0 is_stmt 1       @ ../main.c:275:0
	.fnstart
	.cfi_startproc
@ %bb.0:
	.loc	2 281 22 prologue_end   @ ../main.c:281:22
	ldr	r0, __arm_cp.12_0
	ldr	r1, __arm_cp.12_1
	str	r1, [r0]
	.loc	2 282 22                @ ../main.c:282:22
	ldr	r0, __arm_cp.12_2
	movs	r1, #3
	str	r1, [r0]
	.loc	2 283 1                 @ ../main.c:283:1
	bx	lr
.Ltmp51:
	.p2align	2
@ %bb.1:
	.loc	2 0 1 is_stmt 0         @ ../main.c:0:1
__arm_cp.12_0:
	.long	1342636068              @ 0x50070024
.Lcpi_end50:
	.size	__arm_cp.12_0, .Lcpi_end50-__arm_cp.12_0
__arm_cp.12_1:
	.long	805306470               @ 0x30000066
.Lcpi_end51:
	.size	__arm_cp.12_1, .Lcpi_end51-__arm_cp.12_1
__arm_cp.12_2:
	.long	1342636044              @ 0x5007000c
.Lcpi_end52:
	.size	__arm_cp.12_2, .Lcpi_end52-__arm_cp.12_2
.Lfunc_end12:
	.size	init_debug_port, .Lfunc_end12-init_debug_port
	.cfi_endproc
	.cantunwind
	.fnend
                                        @ -- End function
	.section	.text.init_crypto,"ax",%progbits
	.hidden	init_crypto             @ -- Begin function init_crypto
	.globl	init_crypto
	.p2align	2
	.type	init_crypto,%function
	.code	16                      @ @init_crypto
	.thumb_func
init_crypto:
.Lfunc_begin13:
	.loc	2 158 0 is_stmt 1       @ ../main.c:158:0
	.fnstart
	.cfi_startproc
@ %bb.0:
	.save	{r7, lr}
	push	{r7, lr}
	.cfi_def_cfa_offset 8
	.cfi_offset lr, -4
	.cfi_offset r7, -8
	.pad	#80
	sub	sp, #80
	.cfi_def_cfa_offset 88
.Ltmp52:
	.loc	2 159 3 prologue_end    @ ../main.c:159:3
	movs	r0, #71
	bl	__NVIC_EnableIRQ
	.loc	2 160 3                 @ ../main.c:160:3
	ldr	r0, __arm_cp.13_0
	ldr	r1, [r0]
	movs	r2, #3
	orrs	r1, r2
	str	r1, [r0]
	.loc	2 162 11                @ ../main.c:162:11
	movw	r0, #256
	str	r0, [sp, #76]
	add	r0, sp, #16
	movs	r1, #0
	.loc	2 166 5                 @ ../main.c:166:5
	str	r0, [sp, #12]           @ 4-byte Spill
	bl	BL_RandomInit
	.loc	2 169 28                @ ../main.c:169:28
	ldr	r1, [sp, #76]
	.loc	2 169 34 is_stmt 0      @ ../main.c:169:34
	asrs	r2, r1, #31
	lsrs	r2, r2, #29
	adds	r1, r1, r2
	asrs	r2, r1, #3
	.loc	2 169 3                 @ ../main.c:169:3
	ldr	r1, __arm_cp.13_1
	ldr	r3, [sp, #12]           @ 4-byte Reload
	str	r0, [sp, #8]            @ 4-byte Spill
	mov	r0, r3
	bl	BL_Random
	.loc	2 175 1 is_stmt 1       @ ../main.c:175:1
	str	r0, [sp, #4]            @ 4-byte Spill
	add	sp, #80
	pop	{r7, pc}
.Ltmp53:
	.p2align	2
@ %bb.1:
	.loc	2 0 1 is_stmt 0         @ ../main.c:0:1
__arm_cp.13_0:
	.long	1073946624              @ 0x40032000
.Lcpi_end53:
	.size	__arm_cp.13_0, .Lcpi_end53-__arm_cp.13_0
__arm_cp.13_1:
	.long	aes_key
.Lcpi_end54:
	.size	__arm_cp.13_1, .Lcpi_end54-__arm_cp.13_1
.Lfunc_end13:
	.size	init_crypto, .Lfunc_end13-init_crypto
	.cfi_endproc
	.cantunwind
	.fnend
                                        @ -- End function
	.section	.text.SYS_LockReg,"ax",%progbits
	.p2align	2               @ -- Begin function SYS_LockReg
	.type	SYS_LockReg,%function
	.code	16                      @ @SYS_LockReg
	.thumb_func
SYS_LockReg:
.Lfunc_begin14:
	.loc	11 3060 0 is_stmt 1     @ ../../../../../Library/StdDriver/inc\sys.h:3060:0
	.fnstart
	.cfi_startproc
@ %bb.0:
	.loc	11 3061 18 prologue_end @ ../../../../../Library/StdDriver/inc\sys.h:3061:18
	ldr	r0, __arm_cp.14_0
	movs	r1, #0
	str	r1, [r0]
	.loc	11 3062 1               @ ../../../../../Library/StdDriver/inc\sys.h:3062:1
	bx	lr
.Ltmp54:
	.p2align	2
@ %bb.1:
	.loc	11 0 1 is_stmt 0        @ ../../../../../Library/StdDriver/inc\sys.h:0:1
__arm_cp.14_0:
	.long	1073742080              @ 0x40000100
.Lcpi_end55:
	.size	__arm_cp.14_0, .Lcpi_end55-__arm_cp.14_0
.Lfunc_end14:
	.size	SYS_LockReg, .Lfunc_end14-SYS_LockReg
	.cfi_endproc
	.cantunwind
	.fnend
                                        @ -- End function
	.section	.text.init_non_secure,"ax",%progbits
	.hidden	init_non_secure         @ -- Begin function init_non_secure
	.globl	init_non_secure
	.p2align	2
	.type	init_non_secure,%function
	.code	16                      @ @init_non_secure
	.thumb_func
init_non_secure:
.Lfunc_begin15:
	.loc	2 181 0 is_stmt 1       @ ../main.c:181:0
	.fnstart
	.cfi_startproc
@ %bb.0:
	.save	{r7, lr}
	push	{r7, lr}
	.cfi_def_cfa_offset 8
	.cfi_offset lr, -4
	.cfi_offset r7, -8
	.pad	#32
	sub	sp, #32
	.cfi_def_cfa_offset 40
.Ltmp55:
	.loc	2 185 18 prologue_end   @ ../main.c:185:18
	ldr	r0, __arm_cp.15_0
	ldr	r1, __arm_cp.15_1
	str	r1, [r0]
	.loc	2 188 43                @ ../main.c:188:43
	ldr	r1, [r0]
	.loc	2 188 21 is_stmt 0      @ ../main.c:188:21
	ldr	r1, [r1]
	str	r1, [sp, #24]
.Ltmp56:
	.file	12 "../../../../../Library/CMSIS/Include" "cmsis_armclang.h"
	.loc	12 331 45 is_stmt 1     @ ../../../../../Library/CMSIS/Include/cmsis_armclang.h:331:45
	ldr	r1, [sp, #24]
	.loc	12 331 3 is_stmt 0      @ ../../../../../Library/CMSIS/Include/cmsis_armclang.h:331:3
	@APP
	msr	msp_ns, r1
	@NO_APP
.Ltmp57:
	.loc	2 191 54 is_stmt 1      @ ../main.c:191:54
	ldr	r0, [r0]
	.loc	2 191 31 is_stmt 0      @ ../main.c:191:31
	ldr	r0, [r0, #4]
	.loc	2 191 8                 @ ../main.c:191:8
	str	r0, [sp, #20]
	.loc	2 195 10 is_stmt 1      @ ../main.c:195:10
	ldr	r0, [sp, #20]
	movs	r1, #1
	bics	r0, r1
	.loc	2 195 8 is_stmt 0       @ ../main.c:195:8
	str	r0, [sp, #20]
	add	r0, sp, #20
.Ltmp58:
	.loc	2 198 27 is_stmt 1      @ ../main.c:198:27
	ldrb	r0, [r0]
	lsls	r0, r0, #31
	cmp	r0, #0
	bne	.LBB15_3
	b	.LBB15_1
.LBB15_1:
	.loc	2 198 42 is_stmt 0      @ ../main.c:198:42
	ldr	r0, [sp, #20]
.Ltmp59:
	.loc	2 198 8                 @ ../main.c:198:8
	lsrs	r0, r0, #28
	cmp	r0, #1
	bne	.LBB15_3
	b	.LBB15_2
.LBB15_2:
.Ltmp60:
	.loc	2 200 9 is_stmt 1       @ ../main.c:200:9
	ldr	r0, __arm_cp.15_2
	bl	printf
	.loc	2 201 9                 @ ../main.c:201:9
	ldr	r1, [sp, #20]
	movs	r2, #0
	str	r0, [sp, #16]           @ 4-byte Spill
	mov	r0, r2
	push	{r4, r5, r6, r7}
	mov	r4, r8
	mov	r5, r9
	mov	r6, r10
	mov	r7, r11
	push	{r4, r5, r6, r7}
	mov	r2, #1
	bics	r1, r2
	mov	r2, r1
	mov	r3, r1
	mov	r4, r1
	mov	r5, r1
	mov	r6, r1
	mov	r7, r1
	mov	r8, r1
	mov	r9, r1
	mov	r10, r1
	mov	r11, r1
	mov	r12, r1
	msr	apsr, r1
	blxns	r1
	pop	{r4, r5, r6, r7}
	mov	r8, r4
	mov	r9, r5
	mov	r10, r6
	mov	r11, r7
	pop	{r4, r5, r6, r7}
	.loc	2 202 5                 @ ../main.c:202:5
	str	r0, [sp, #12]           @ 4-byte Spill
	b	.LBB15_5
.Ltmp61:
.LBB15_3:
	.loc	2 206 9                 @ ../main.c:206:9
	ldr	r0, __arm_cp.15_3
	bl	printf
	.loc	2 207 9                 @ ../main.c:207:9
	ldr	r1, __arm_cp.15_4
	str	r0, [sp, #8]            @ 4-byte Spill
	mov	r0, r1
	bl	printf
	ldr	r1, __arm_cp.15_5
	str	r1, [sp, #28]
.Ltmp62:
	.loc	12 331 45               @ ../../../../../Library/CMSIS/Include/cmsis_armclang.h:331:45
	ldr	r1, [sp, #28]
	.loc	12 331 3 is_stmt 0      @ ../../../../../Library/CMSIS/Include/cmsis_armclang.h:331:3
	@APP
	msr	msp_ns, r1
	@NO_APP
.Ltmp63:
	.loc	2 213 35 is_stmt 1      @ ../main.c:213:35
	ldr	r1, __arm_cp.15_6
	ldr	r2, __arm_cp.15_7
	str	r2, [r1]
	.loc	2 214 12                @ ../main.c:214:12
	ldr	r1, __arm_cp.15_8
	str	r1, [sp, #20]
	.loc	2 215 9                 @ ../main.c:215:9
	ldr	r1, [sp, #20]
	movs	r2, #0
	str	r0, [sp, #4]            @ 4-byte Spill
	mov	r0, r2
	push	{r4, r5, r6, r7}
	mov	r4, r8
	mov	r5, r9
	mov	r6, r10
	mov	r7, r11
	push	{r4, r5, r6, r7}
	mov	r2, #1
	bics	r1, r2
	mov	r2, r1
	mov	r3, r1
	mov	r4, r1
	mov	r5, r1
	mov	r6, r1
	mov	r7, r1
	mov	r8, r1
	mov	r9, r1
	mov	r10, r1
	mov	r11, r1
	mov	r12, r1
	msr	apsr, r1
	blxns	r1
	pop	{r4, r5, r6, r7}
	mov	r8, r4
	mov	r9, r5
	mov	r10, r6
	mov	r11, r7
	pop	{r4, r5, r6, r7}
	.loc	2 217 9                 @ ../main.c:217:9
	str	r0, [sp]                @ 4-byte Spill
	b	.LBB15_4
.LBB15_4:                               @ =>This Inner Loop Header: Depth=1
	b	.LBB15_4
.Ltmp64:
.LBB15_5:
	.loc	2 219 1                 @ ../main.c:219:1
	add	sp, #32
	pop	{r7, pc}
.Ltmp65:
	.p2align	2
@ %bb.6:
	.loc	2 0 1 is_stmt 0         @ ../main.c:0:1
__arm_cp.15_0:
	.long	3758288136              @ 0xe002ed08
.Lcpi_end56:
	.size	__arm_cp.15_0, .Lcpi_end56-__arm_cp.15_0
__arm_cp.15_1:
	.long	268697600               @ 0x10040000
.Lcpi_end57:
	.size	__arm_cp.15_1, .Lcpi_end57-__arm_cp.15_1
__arm_cp.15_2:
	.long	.L.str.11
.Lcpi_end58:
	.size	__arm_cp.15_2, .Lcpi_end58-__arm_cp.15_2
__arm_cp.15_3:
	.long	.L.str.12
.Lcpi_end59:
	.size	__arm_cp.15_3, .Lcpi_end59-__arm_cp.15_3
__arm_cp.15_4:
	.long	.L.str.13
.Lcpi_end60:
	.size	__arm_cp.15_4, .Lcpi_end60-__arm_cp.15_4
__arm_cp.15_5:
	.long	805339648               @ 0x30008200
.Lcpi_end61:
	.size	__arm_cp.15_5, .Lcpi_end61-__arm_cp.15_5
__arm_cp.15_6:
	.long	805339136               @ 0x30008000
.Lcpi_end62:
	.size	__arm_cp.15_6, .Lcpi_end62-__arm_cp.15_6
__arm_cp.15_7:
	.long	3892242431              @ 0xe7fee7ff
.Lcpi_end63:
	.size	__arm_cp.15_7, .Lcpi_end63-__arm_cp.15_7
__arm_cp.15_8:
	.long	805339137               @ 0x30008001
.Lcpi_end64:
	.size	__arm_cp.15_8, .Lcpi_end64-__arm_cp.15_8
.Lfunc_end15:
	.size	init_non_secure, .Lfunc_end15-init_non_secure
	.cfi_endproc
	.cantunwind
	.fnend
                                        @ -- End function
	.section	.text.__NVIC_EnableIRQ,"ax",%progbits
	.p2align	2               @ -- Begin function __NVIC_EnableIRQ
	.type	__NVIC_EnableIRQ,%function
	.code	16                      @ @__NVIC_EnableIRQ
	.thumb_func
__NVIC_EnableIRQ:
.Lfunc_begin16:
	.loc	6 1276 0 is_stmt 1      @ ../../../../../Library/CMSIS/Include\core_armv8mbl.h:1276:0
	.fnstart
	.cfi_startproc
@ %bb.0:
	.pad	#8
	sub	sp, #8
	.cfi_def_cfa_offset 8
	mov	r1, r0
	str	r0, [sp, #4]
.Ltmp66:
	.loc	6 1277 17 prologue_end  @ ../../../../../Library/CMSIS/Include\core_armv8mbl.h:1277:17
	ldr	r0, [sp, #4]
.Ltmp67:
	.loc	6 1277 7 is_stmt 0      @ ../../../../../Library/CMSIS/Include\core_armv8mbl.h:1277:7
	cmp	r0, #0
	str	r1, [sp]                @ 4-byte Spill
	blt	.LBB16_2
	b	.LBB16_1
.LBB16_1:
.Ltmp68:
	.loc	6 1279 93 is_stmt 1     @ ../../../../../Library/CMSIS/Include\core_armv8mbl.h:1279:93
	ldr	r0, [sp, #4]
	.loc	6 1279 99 is_stmt 0     @ ../../../../../Library/CMSIS/Include\core_armv8mbl.h:1279:99
	movs	r1, #31
	mov	r2, r0
	ands	r2, r1
	.loc	6 1279 69               @ ../../../../../Library/CMSIS/Include\core_armv8mbl.h:1279:69
	movs	r1, #1
	lsls	r1, r2
	.loc	6 1279 5                @ ../../../../../Library/CMSIS/Include\core_armv8mbl.h:1279:5
	lsrs	r0, r0, #3
	.loc	6 1279 43               @ ../../../../../Library/CMSIS/Include\core_armv8mbl.h:1279:43
	ldr	r2, __arm_cp.16_0
	ands	r0, r2
	.loc	6 1279 5                @ ../../../../../Library/CMSIS/Include\core_armv8mbl.h:1279:5
	ldr	r2, __arm_cp.16_1
	.loc	6 1279 52               @ ../../../../../Library/CMSIS/Include\core_armv8mbl.h:1279:52
	str	r1, [r0, r2]
	.loc	6 1280 3 is_stmt 1      @ ../../../../../Library/CMSIS/Include\core_armv8mbl.h:1280:3
	b	.LBB16_2
.Ltmp69:
.LBB16_2:
	.loc	6 1281 1                @ ../../../../../Library/CMSIS/Include\core_armv8mbl.h:1281:1
	add	sp, #8
	bx	lr
.Ltmp70:
	.p2align	2
@ %bb.3:
	.loc	6 0 1 is_stmt 0         @ ../../../../../Library/CMSIS/Include\core_armv8mbl.h:0:1
__arm_cp.16_0:
	.long	536870908               @ 0x1ffffffc
.Lcpi_end65:
	.size	__arm_cp.16_0, .Lcpi_end65-__arm_cp.16_0
__arm_cp.16_1:
	.long	3758153984              @ 0xe000e100
.Lcpi_end66:
	.size	__arm_cp.16_1, .Lcpi_end66-__arm_cp.16_1
.Lfunc_end16:
	.size	__NVIC_EnableIRQ, .Lfunc_end16-__NVIC_EnableIRQ
	.cfi_endproc
	.cantunwind
	.fnend
                                        @ -- End function
	.section	.text.itsc_startup,"ax",%progbits
	.hidden	itsc_startup            @ -- Begin function itsc_startup
	.globl	itsc_startup
	.p2align	2
	.type	itsc_startup,%function
	.code	16                      @ @itsc_startup
	.thumb_func
itsc_startup:
.Lfunc_begin17:
	.loc	2 314 0 is_stmt 1       @ ../main.c:314:0
	.fnstart
	.cfi_startproc
@ %bb.0:
	.save	{r7, lr}
	push	{r7, lr}
	.cfi_def_cfa_offset 8
	.cfi_offset lr, -4
	.cfi_offset r7, -8
	.pad	#32
	sub	sp, #32
	.cfi_def_cfa_offset 40
.Ltmp71:
	.loc	2 315 2 prologue_end    @ ../main.c:315:2
	ldr	r0, __arm_cp.17_0
	bl	printf
	.loc	2 316 2                 @ ../main.c:316:2
	ldr	r1, __arm_cp.17_1
	str	r0, [sp, #28]           @ 4-byte Spill
	mov	r0, r1
	bl	printf
	.loc	2 317 2                 @ ../main.c:317:2
	ldr	r1, __arm_cp.17_2
	str	r0, [sp, #24]           @ 4-byte Spill
	mov	r0, r1
	bl	printf
	.loc	2 318 2                 @ ../main.c:318:2
	ldr	r1, __arm_cp.17_3
	str	r0, [sp, #20]           @ 4-byte Spill
	mov	r0, r1
	bl	printf
	.loc	2 319 2                 @ ../main.c:319:2
	ldr	r1, __arm_cp.17_4
	str	r0, [sp, #16]           @ 4-byte Spill
	mov	r0, r1
	bl	printf
	.loc	2 320 2                 @ ../main.c:320:2
	ldr	r1, __arm_cp.17_5
	str	r0, [sp, #12]           @ 4-byte Spill
	mov	r0, r1
	bl	printf
	.loc	2 321 3                 @ ../main.c:321:3
	ldr	r1, __arm_cp.17_6
	str	r0, [sp, #8]            @ 4-byte Spill
	mov	r0, r1
	bl	printf
	.loc	2 323 2                 @ ../main.c:323:2
	ldr	r1, __arm_cp.17_7
	str	r0, [sp, #4]            @ 4-byte Spill
	mov	r0, r1
	bl	printf
	.loc	2 324 1                 @ ../main.c:324:1
	str	r0, [sp]                @ 4-byte Spill
	add	sp, #32
	pop	{r7, pc}
.Ltmp72:
	.p2align	2
@ %bb.1:
	.loc	2 0 1 is_stmt 0         @ ../main.c:0:1
__arm_cp.17_0:
	.long	.L.str.6
.Lcpi_end67:
	.size	__arm_cp.17_0, .Lcpi_end67-__arm_cp.17_0
__arm_cp.17_1:
	.long	.L.str.16
.Lcpi_end68:
	.size	__arm_cp.17_1, .Lcpi_end68-__arm_cp.17_1
__arm_cp.17_2:
	.long	.L.str.17
.Lcpi_end69:
	.size	__arm_cp.17_2, .Lcpi_end69-__arm_cp.17_2
__arm_cp.17_3:
	.long	.L.str.18
.Lcpi_end70:
	.size	__arm_cp.17_3, .Lcpi_end70-__arm_cp.17_3
__arm_cp.17_4:
	.long	.L.str.19
.Lcpi_end71:
	.size	__arm_cp.17_4, .Lcpi_end71-__arm_cp.17_4
__arm_cp.17_5:
	.long	.L.str.20
.Lcpi_end72:
	.size	__arm_cp.17_5, .Lcpi_end72-__arm_cp.17_5
__arm_cp.17_6:
	.long	.L.str.21
.Lcpi_end73:
	.size	__arm_cp.17_6, .Lcpi_end73-__arm_cp.17_6
__arm_cp.17_7:
	.long	.L.str.22
.Lcpi_end74:
	.size	__arm_cp.17_7, .Lcpi_end74-__arm_cp.17_7
.Lfunc_end17:
	.size	itsc_startup, .Lfunc_end17-itsc_startup
	.cfi_endproc
	.cantunwind
	.fnend
                                        @ -- End function
	.hidden	aes_iv                  @ @aes_iv
	.type	aes_iv,%object
	.section	.bss.aes_iv,"aw",%nobits
	.globl	aes_iv
	.p2align	2
aes_iv:
	.zero	16
	.size	aes_iv, 16

	.type	.L.str,%object          @ @.str
	.section	.rodata.str1.1,"aMS",%progbits,1
.L.str:
	.asciz	"Enter Secret Value: \n"
	.size	.L.str, 22

	.hidden	secret_value            @ @secret_value
	.type	secret_value,%object
	.section	.bss.secret_value,"aw",%nobits
	.globl	secret_value
secret_value:
	.zero	256
	.size	secret_value, 256

	.type	.L.str.1,%object        @ @.str.1
	.section	.rodata.str1.1,"aMS",%progbits,1
.L.str.1:
	.asciz	"Secret Value:%s \n"
	.size	.L.str.1, 18

	.type	.L.str.2,%object        @ @.str.2
.L.str.2:
	.asciz	"Enter Ciphertext: \n"
	.size	.L.str.2, 20

	.hidden	cipher_value            @ @cipher_value
	.type	cipher_value,%object
	.section	.bss.cipher_value,"aw",%nobits
	.globl	cipher_value
cipher_value:
	.zero	1024
	.size	cipher_value, 1024

	.type	.L.str.3,%object        @ @.str.3
	.section	.rodata.str1.1,"aMS",%progbits,1
.L.str.3:
	.asciz	"AES work done.\n\n"
	.size	.L.str.3, 17

	.hidden	is_encrypt              @ @is_encrypt
	.type	is_encrypt,%object
	.section	.bss.is_encrypt,"aw",%nobits
	.globl	is_encrypt
	.p2align	2
is_encrypt:
	.long	0                       @ 0x0
	.size	is_encrypt, 4

	.type	.L.str.4,%object        @ @.str.4
	.section	.rodata.str1.1,"aMS",%progbits,1
.L.str.4:
	.asciz	"Cipher value = "
	.size	.L.str.4, 16

	.type	.L.str.5,%object        @ @.str.5
.L.str.5:
	.asciz	"Secret value = %s"
	.size	.L.str.5, 18

	.type	.L.str.6,%object        @ @.str.6
.L.str.6:
	.asciz	"\n"
	.size	.L.str.6, 2

	.type	.L.str.7,%object        @ @.str.7
.L.str.7:
	.asciz	"Secure code is running...This cannot be seen, as the debug port isn't initialzed yet!\n"
	.size	.L.str.7, 87

	.type	.L.str.8,%object        @ @.str.8
.L.str.8:
	.asciz	"\nDebug port initialized!\n\n"
	.size	.L.str.8, 27

	.hidden	aes_key                 @ @aes_key
	.type	aes_key,%object
	.section	.bss.aes_key,"aw",%nobits
	.globl	aes_key
aes_key:
	.zero	32
	.size	aes_key, 32

	.type	.L.str.9,%object        @ @.str.9
	.section	.rodata.str1.1,"aMS",%progbits,1
.L.str.9:
	.asciz	"AES encrypt started.\n\n"
	.size	.L.str.9, 23

	.type	.L.str.10,%object       @ @.str.10
.L.str.10:
	.asciz	"AES decrypt started.\n\n"
	.size	.L.str.10, 23

	.type	.L.str.11,%object       @ @.str.11
.L.str.11:
	.asciz	"Execute non-secure code ...\n"
	.size	.L.str.11, 29

	.type	.L.str.12,%object       @ @.str.12
.L.str.12:
	.asciz	"No code in non-secure region!\n"
	.size	.L.str.12, 31

	.type	.L.str.13,%object       @ @.str.13
.L.str.13:
	.asciz	"CPU will halted at non-secure state\n"
	.size	.L.str.13, 37

	.type	.L.str.14,%object       @ @.str.14
.L.str.14:
	.asciz	"%02x"
	.size	.L.str.14, 5

	.type	.L.str.15,%object       @ @.str.15
.L.str.15:
	.asciz	"%2hhx"
	.size	.L.str.15, 6

	.type	.L.str.16,%object       @ @.str.16
.L.str.16:
	.asciz	" __     ______   ______     ______    \n"
	.size	.L.str.16, 40

	.type	.L.str.17,%object       @ @.str.17
.L.str.17:
	.asciz	"/\\ \\   /\\__  _\\ /\\  ___\\   /\\  ___\\   \n"
	.size	.L.str.17, 40

	.type	.L.str.18,%object       @ @.str.18
.L.str.18:
	.asciz	"\\ \\ \\  \\/_/\\ \\/ \\ \\___  \\  \\ \\ \\____  \n"
	.size	.L.str.18, 40

	.type	.L.str.19,%object       @ @.str.19
.L.str.19:
	.asciz	" \\ \\_\\    \\ \\_\\  \\/\\_____\\  \\ \\_____\\ \n"
	.size	.L.str.19, 40

	.type	.L.str.20,%object       @ @.str.20
.L.str.20:
	.asciz	"  \\/_/     \\/_/   \\/_____/   \\/_____/ \n"
	.size	.L.str.20, 40

	.type	.L.str.21,%object       @ @.str.21
.L.str.21:
	.asciz	"          F L E N S B U R G         \n"
	.size	.L.str.21, 38

	.type	.L.str.22,%object       @ @.str.22
.L.str.22:
	.asciz	"Push button SW2 to call the menue by the GPIO interrupt!\n\n"
	.size	.L.str.22, 59

	.file	13 "../../../../../Library/StdDriver/inc" "mkromlib.h"
	.section	".note.GNU-stack","",%progbits
	.eabi_attribute	30, 6	@ Tag_ABI_optimization_goals
	.ARM_attribute	16, 1	@ Tag_AV_eba