	.text
	.syntax unified
	.eabi_attribute	67, "2.09"	@ Tag_conformance
	.cpu	cortex-m23
	.eabi_attribute	6, 16	@ Tag_CPU_arch
	.eabi_attribute	7, 77	@ Tag_CPU_arch_profile
	.eabi_attribute	8, 0	@ Tag_ARM_ISA_use
	.eabi_attribute	9, 3	@ Tag_THUMB_ISA_use
	.eabi_attribute	34, 0	@ Tag_CPU_unaligned_access
	.eabi_attribute	17, 1	@ Tag_ABI_PCS_GOT_use
	.eabi_attribute	20, 2	@ Tag_ABI_FP_denormal
	.eabi_attribute	21, 0	@ Tag_ABI_FP_exceptions
	.eabi_attribute	23, 1	@ Tag_ABI_FP_number_model
	.eabi_attribute	24, 1	@ Tag_ABI_align_needed
	.eabi_attribute	25, 1	@ Tag_ABI_align_preserved
	.eabi_attribute	38, 1	@ Tag_ABI_FP_16bit_format
	.eabi_attribute	18, 4	@ Tag_ABI_PCS_wchar_t
	.eabi_attribute	26, 2	@ Tag_ABI_enum_size
	.eabi_attribute	14, 0	@ Tag_ABI_PCS_R9_use
	.file	"main_ns.c"
	.file	1 "../../../../../Library/Device/Nuvoton/M2351/Include" "M2351.h"
	.file	2 "C:\\Keil_v5\\ARM\\ARMCLANG\\Bin\\..\\include" "stdint.h"
	.file	3 "../../../../../Library/Device/Nuvoton/M2351/Include" "gpio_reg.h"
	.file	4 "../../../../../Library/CMSIS/Include" "core_armv8mbl.h"
	.section	.text.display_menue,"ax",%progbits
	.hidden	display_menue           @ -- Begin function display_menue
	.globl	display_menue
	.p2align	2
	.type	display_menue,%function
	.code	16                      @ @display_menue
	.thumb_func
display_menue:
.Lfunc_begin0:
	.file	5 ".." "main_ns.c"
	.loc	5 9 0                   @ ../main_ns.c:9:0
	.fnstart
	.cfi_sections .debug_frame
	.cfi_startproc
@ %bb.0:
	.save	{r7, lr}
	push	{r7, lr}
	.cfi_def_cfa_offset 8
	.cfi_offset lr, -4
	.cfi_offset r7, -8
	.pad	#48
	sub	sp, #48
	.cfi_def_cfa_offset 56
.Ltmp0:
	.loc	5 12 3 prologue_end     @ ../main_ns.c:12:3
	ldr	r0, __arm_cp.0_0
	bl	printf
	.loc	5 13 2                  @ ../main_ns.c:13:2
	ldr	r1, __arm_cp.0_1
	str	r0, [sp, #36]           @ 4-byte Spill
	mov	r0, r1
	bl	printf
	.loc	5 14 2                  @ ../main_ns.c:14:2
	ldr	r1, __arm_cp.0_2
	str	r0, [sp, #32]           @ 4-byte Spill
	mov	r0, r1
	bl	printf
	.loc	5 15 2                  @ ../main_ns.c:15:2
	ldr	r1, __arm_cp.0_3
	str	r0, [sp, #28]           @ 4-byte Spill
	mov	r0, r1
	bl	printf
	.loc	5 16 11                 @ ../main_ns.c:16:11
	ldr	r1, __arm_cp.0_4
	str	r0, [sp, #24]           @ 4-byte Spill
	mov	r0, r1
	bl	fgetc
	.loc	5 16 9 is_stmt 0        @ ../main_ns.c:16:9
	str	r0, [sp, #44]
	.loc	5 20 2 is_stmt 1        @ ../main_ns.c:20:2
	b	.LBB0_1
.LBB0_1:                                @ =>This Inner Loop Header: Depth=1
	.loc	5 20 14 is_stmt 0       @ ../main_ns.c:20:14
	ldr	r0, __arm_cp.0_4
	bl	getc
	.loc	5 20 12                 @ ../main_ns.c:20:12
	str	r0, [sp, #40]
	movs	r1, #0
	.loc	5 20 33                 @ ../main_ns.c:20:33
	cmp	r0, #10
	str	r1, [sp, #20]           @ 4-byte Spill
	beq	.LBB0_3
	b	.LBB0_2
.LBB0_2:                                @   in Loop: Header=BB0_1 Depth=1
	.loc	5 20 36                 @ ../main_ns.c:20:36
	ldr	r0, [sp, #40]
	.loc	5 20 38                 @ ../main_ns.c:20:38
	adds	r0, r0, #1
	subs	r1, r0, #1
	sbcs	r0, r1
	str	r0, [sp, #20]           @ 4-byte Spill
	b	.LBB0_3
.LBB0_3:                                @   in Loop: Header=BB0_1 Depth=1
	.loc	5 0 38                  @ ../main_ns.c:0:38
	ldr	r0, [sp, #20]           @ 4-byte Reload
	.loc	5 20 2                  @ ../main_ns.c:20:2
	lsls	r0, r0, #31
	cmp	r0, #0
	beq	.LBB0_5
	b	.LBB0_4
.LBB0_4:                                @   in Loop: Header=BB0_1 Depth=1
	b	.LBB0_1
.LBB0_5:
.Ltmp1:
	.loc	5 22 5 is_stmt 1        @ ../main_ns.c:22:5
	ldr	r0, [sp, #44]
.Ltmp2:
	.loc	5 22 5 is_stmt 0        @ ../main_ns.c:22:5
	cmp	r0, #49
	bne	.LBB0_7
	b	.LBB0_6
.LBB0_6:
.Ltmp3:
	.loc	5 24 3 is_stmt 1        @ ../main_ns.c:24:3
	bl	S_get_secure_value
	.loc	5 25 3                  @ ../main_ns.c:25:3
	str	r0, [sp, #16]           @ 4-byte Spill
	bl	S_encrypt_secure_value
	.loc	5 26 2                  @ ../main_ns.c:26:2
	str	r0, [sp, #12]           @ 4-byte Spill
	b	.LBB0_10
.Ltmp4:
.LBB0_7:
	.loc	5 27 10                 @ ../main_ns.c:27:10
	ldr	r0, [sp, #44]
.Ltmp5:
	.loc	5 27 10 is_stmt 0       @ ../main_ns.c:27:10
	cmp	r0, #50
	bne	.LBB0_9
	b	.LBB0_8
.LBB0_8:
.Ltmp6:
	.loc	5 29 3 is_stmt 1        @ ../main_ns.c:29:3
	bl	S_get_cipher_value
	.loc	5 30 3                  @ ../main_ns.c:30:3
	str	r0, [sp, #8]            @ 4-byte Spill
	bl	S_decrypt_cipher_value
	.loc	5 31 2                  @ ../main_ns.c:31:2
	str	r0, [sp, #4]            @ 4-byte Spill
	b	.LBB0_9
.Ltmp7:
.LBB0_9:
	.loc	5 0 2 is_stmt 0         @ ../main_ns.c:0:2
	b	.LBB0_10
.LBB0_10:
	.loc	5 32 1 is_stmt 1        @ ../main_ns.c:32:1
	add	sp, #48
	pop	{r7, pc}
.Ltmp8:
	.p2align	2
@ %bb.11:
	.loc	5 0 1 is_stmt 0         @ ../main_ns.c:0:1
__arm_cp.0_0:
	.long	.L.str
.Lcpi_end0:
	.size	__arm_cp.0_0, .Lcpi_end0-__arm_cp.0_0
__arm_cp.0_1:
	.long	.L.str.1
.Lcpi_end1:
	.size	__arm_cp.0_1, .Lcpi_end1-__arm_cp.0_1
__arm_cp.0_2:
	.long	.L.str.2
.Lcpi_end2:
	.size	__arm_cp.0_2, .Lcpi_end2-__arm_cp.0_2
__arm_cp.0_3:
	.long	.L.str.3
.Lcpi_end3:
	.size	__arm_cp.0_3, .Lcpi_end3-__arm_cp.0_3
__arm_cp.0_4:
	.long	__stdin
.Lcpi_end4:
	.size	__arm_cp.0_4, .Lcpi_end4-__arm_cp.0_4
.Lfunc_end0:
	.size	display_menue, .Lfunc_end0-display_menue
	.cfi_endproc
	.cantunwind
	.fnend
                                        @ -- End function
	.section	.text.GPB_IRQHandler,"ax",%progbits
	.hidden	GPB_IRQHandler          @ -- Begin function GPB_IRQHandler
	.globl	GPB_IRQHandler
	.p2align	2
	.type	GPB_IRQHandler,%function
	.code	16                      @ @GPB_IRQHandler
	.thumb_func
GPB_IRQHandler:
.Lfunc_begin1:
	.loc	5 37 0 is_stmt 1        @ ../main_ns.c:37:0
	.fnstart
	.cfi_startproc
@ %bb.0:
	.save	{r7, lr}
	push	{r7, lr}
	.cfi_def_cfa_offset 8
	.cfi_offset lr, -4
	.cfi_offset r7, -8
	.pad	#16
	sub	sp, #16
	.cfi_def_cfa_offset 24
.Ltmp9:
	.loc	5 39 8 prologue_end     @ ../main_ns.c:39:8
	ldr	r0, __arm_cp.1_0
	ldr	r0, [r0]
	movs	r1, #1
.Ltmp10:
	.loc	5 39 8 is_stmt 0        @ ../main_ns.c:39:8
	tst	r0, r1
	beq	.LBB1_2
	b	.LBB1_1
.LBB1_1:
.Ltmp11:
	.loc	5 41 5 is_stmt 1        @ ../main_ns.c:41:5
	ldr	r0, __arm_cp.1_1
	bl	printf
	.loc	5 42 5                  @ ../main_ns.c:42:5
	ldr	r1, __arm_cp.1_0
	movs	r2, #1
	str	r2, [r1]
	.loc	5 43 5                  @ ../main_ns.c:43:5
	str	r0, [sp, #12]           @ 4-byte Spill
	bl	display_menue
	.loc	5 44 3                  @ ../main_ns.c:44:3
	b	.LBB1_2
.Ltmp12:
.LBB1_2:
	.loc	5 45 6                  @ ../main_ns.c:45:6
	ldr	r0, __arm_cp.1_0
	ldr	r0, [r0]
	movs	r1, #2
.Ltmp13:
	.loc	5 45 6 is_stmt 0        @ ../main_ns.c:45:6
	tst	r0, r1
	beq	.LBB1_4
	b	.LBB1_3
.LBB1_3:
.Ltmp14:
	.loc	5 47 5 is_stmt 1        @ ../main_ns.c:47:5
	ldr	r0, __arm_cp.1_2
	bl	printf
	.loc	5 48 5                  @ ../main_ns.c:48:5
	ldr	r1, __arm_cp.1_3
	str	r0, [sp, #8]            @ 4-byte Spill
	mov	r0, r1
	bl	printf
	.loc	5 49 5                  @ ../main_ns.c:49:5
	ldr	r1, __arm_cp.1_0
	movs	r2, #2
	str	r2, [r1]
	.loc	5 50 3                  @ ../main_ns.c:50:3
	str	r0, [sp, #4]            @ 4-byte Spill
	b	.LBB1_5
.Ltmp15:
.LBB1_4:
	.loc	5 54 32                 @ ../main_ns.c:54:32
	ldr	r0, __arm_cp.1_0
	ldr	r1, [r0]
	.loc	5 54 23 is_stmt 0       @ ../main_ns.c:54:23
	str	r1, [r0]
	b	.LBB1_5
.Ltmp16:
.LBB1_5:
	.loc	5 56 1 is_stmt 1        @ ../main_ns.c:56:1
	add	sp, #16
	pop	{r7, pc}
.Ltmp17:
	.p2align	2
@ %bb.6:
	.loc	5 0 1 is_stmt 0         @ ../main_ns.c:0:1
__arm_cp.1_0:
	.long	1342193760              @ 0x50004060
.Lcpi_end5:
	.size	__arm_cp.1_0, .Lcpi_end5-__arm_cp.1_0
__arm_cp.1_1:
	.long	.L.str.4
.Lcpi_end6:
	.size	__arm_cp.1_1, .Lcpi_end6-__arm_cp.1_1
__arm_cp.1_2:
	.long	.L.str.5
.Lcpi_end7:
	.size	__arm_cp.1_2, .Lcpi_end7-__arm_cp.1_2
__arm_cp.1_3:
	.long	.L.str.6
.Lcpi_end8:
	.size	__arm_cp.1_3, .Lcpi_end8-__arm_cp.1_3
.Lfunc_end1:
	.size	GPB_IRQHandler, .Lfunc_end1-GPB_IRQHandler
	.cfi_endproc
	.cantunwind
	.fnend
                                        @ -- End function
	.section	.text.GPIO_INT_Init,"ax",%progbits
	.hidden	GPIO_INT_Init           @ -- Begin function GPIO_INT_Init
	.globl	GPIO_INT_Init
	.p2align	2
	.type	GPIO_INT_Init,%function
	.code	16                      @ @GPIO_INT_Init
	.thumb_func
GPIO_INT_Init:
.Lfunc_begin2:
	.loc	5 60 0 is_stmt 1        @ ../main_ns.c:60:0
	.fnstart
	.cfi_startproc
@ %bb.0:
	.save	{r7, lr}
	push	{r7, lr}
	.cfi_def_cfa_offset 8
	.cfi_offset lr, -4
	.cfi_offset r7, -8
	.pad	#40
	sub	sp, #40
	.cfi_def_cfa_offset 48
.Ltmp18:
	.loc	5 61 3 prologue_end     @ ../main_ns.c:61:3
	ldr	r0, __arm_cp.2_0
	str	r0, [sp, #36]           @ 4-byte Spill
	bl	printf
	.loc	5 62 3                  @ ../main_ns.c:62:3
	ldr	r1, __arm_cp.2_1
	str	r0, [sp, #32]           @ 4-byte Spill
	mov	r0, r1
	bl	printf
	.loc	5 63 3                  @ ../main_ns.c:63:3
	ldr	r1, [sp, #36]           @ 4-byte Reload
	str	r0, [sp, #28]           @ 4-byte Spill
	mov	r0, r1
	bl	printf
	.loc	5 66 5                  @ ../main_ns.c:66:5
	ldr	r1, __arm_cp.2_2
	movs	r2, #1
	movs	r3, #0
	str	r0, [sp, #24]           @ 4-byte Spill
	mov	r0, r1
	str	r1, [sp, #20]           @ 4-byte Spill
	mov	r1, r2
	str	r2, [sp, #16]           @ 4-byte Spill
	mov	r2, r3
	str	r3, [sp, #12]           @ 4-byte Spill
	bl	GPIO_SetMode
	.loc	5 67 3                  @ ../main_ns.c:67:3
	movs	r0, #2
	ldr	r1, [sp, #20]           @ 4-byte Reload
	str	r0, [sp, #8]            @ 4-byte Spill
	mov	r0, r1
	ldr	r1, [sp, #8]            @ 4-byte Reload
	ldr	r2, [sp, #12]           @ 4-byte Reload
	bl	GPIO_SetMode
	.loc	5 68 5                  @ ../main_ns.c:68:5
	ldr	r0, [sp, #16]           @ 4-byte Reload
	lsls	r1, r0, #16
	ldr	r0, [sp, #20]           @ 4-byte Reload
	ldr	r2, [sp, #12]           @ 4-byte Reload
	str	r1, [sp, #4]            @ 4-byte Spill
	mov	r1, r2
	ldr	r2, [sp, #4]            @ 4-byte Reload
	bl	GPIO_EnableInt
	.loc	5 69 3                  @ ../main_ns.c:69:3
	ldr	r0, [sp, #20]           @ 4-byte Reload
	ldr	r1, [sp, #16]           @ 4-byte Reload
	ldr	r2, [sp, #4]            @ 4-byte Reload
	bl	GPIO_EnableInt
	.loc	5 70 5                  @ ../main_ns.c:70:5
	movs	r0, #17
	bl	__NVIC_EnableIRQ
	.loc	5 73 5                  @ ../main_ns.c:73:5
	ldr	r0, __arm_cp.2_3
	movs	r1, #58
	str	r1, [r0]
	.loc	5 74 5                  @ ../main_ns.c:74:5
	ldr	r0, __arm_cp.2_4
	ldr	r1, [r0]
	ldr	r2, [sp, #16]           @ 4-byte Reload
	orrs	r1, r2
	str	r1, [r0]
	.loc	5 75 3                  @ ../main_ns.c:75:3
	ldr	r1, [r0]
	ldr	r3, [sp, #8]            @ 4-byte Reload
	orrs	r1, r3
	str	r1, [r0]
	.loc	5 77 3                  @ ../main_ns.c:77:3
	ldr	r0, __arm_cp.2_5
	bl	printf
	.loc	5 78 1                  @ ../main_ns.c:78:1
	str	r0, [sp]                @ 4-byte Spill
	add	sp, #40
	pop	{r7, pc}
.Ltmp19:
	.p2align	2
@ %bb.1:
	.loc	5 0 1 is_stmt 0         @ ../main_ns.c:0:1
__arm_cp.2_0:
	.long	.L.str.7
.Lcpi_end9:
	.size	__arm_cp.2_0, .Lcpi_end9-__arm_cp.2_0
__arm_cp.2_1:
	.long	.L.str.8
.Lcpi_end10:
	.size	__arm_cp.2_1, .Lcpi_end10-__arm_cp.2_1
__arm_cp.2_2:
	.long	1342193728              @ 0x50004040
.Lcpi_end11:
	.size	__arm_cp.2_2, .Lcpi_end11-__arm_cp.2_2
__arm_cp.2_3:
	.long	1342193780              @ 0x50004074
.Lcpi_end12:
	.size	__arm_cp.2_3, .Lcpi_end12-__arm_cp.2_3
__arm_cp.2_4:
	.long	1342193748              @ 0x50004054
.Lcpi_end13:
	.size	__arm_cp.2_4, .Lcpi_end13-__arm_cp.2_4
__arm_cp.2_5:
	.long	.L.str.9
.Lcpi_end14:
	.size	__arm_cp.2_5, .Lcpi_end14-__arm_cp.2_5
.Lfunc_end2:
	.size	GPIO_INT_Init, .Lfunc_end2-GPIO_INT_Init
	.cfi_endproc
	.cantunwind
	.fnend
                                        @ -- End function
	.section	.text.__NVIC_EnableIRQ,"ax",%progbits
	.p2align	2               @ -- Begin function __NVIC_EnableIRQ
	.type	__NVIC_EnableIRQ,%function
	.code	16                      @ @__NVIC_EnableIRQ
	.thumb_func
__NVIC_EnableIRQ:
.Lfunc_begin3:
	.loc	4 1276 0 is_stmt 1      @ ../../../../../Library/CMSIS/Include\core_armv8mbl.h:1276:0
	.fnstart
	.cfi_startproc
@ %bb.0:
	.pad	#8
	sub	sp, #8
	.cfi_def_cfa_offset 8
	mov	r1, r0
	str	r0, [sp, #4]
.Ltmp20:
	.loc	4 1277 17 prologue_end  @ ../../../../../Library/CMSIS/Include\core_armv8mbl.h:1277:17
	ldr	r0, [sp, #4]
.Ltmp21:
	.loc	4 1277 7 is_stmt 0      @ ../../../../../Library/CMSIS/Include\core_armv8mbl.h:1277:7
	cmp	r0, #0
	str	r1, [sp]                @ 4-byte Spill
	blt	.LBB3_2
	b	.LBB3_1
.LBB3_1:
.Ltmp22:
	.loc	4 1279 93 is_stmt 1     @ ../../../../../Library/CMSIS/Include\core_armv8mbl.h:1279:93
	ldr	r0, [sp, #4]
	.loc	4 1279 99 is_stmt 0     @ ../../../../../Library/CMSIS/Include\core_armv8mbl.h:1279:99
	movs	r1, #31
	mov	r2, r0
	ands	r2, r1
	.loc	4 1279 69               @ ../../../../../Library/CMSIS/Include\core_armv8mbl.h:1279:69
	movs	r1, #1
	lsls	r1, r2
	.loc	4 1279 5                @ ../../../../../Library/CMSIS/Include\core_armv8mbl.h:1279:5
	lsrs	r0, r0, #3
	.loc	4 1279 43               @ ../../../../../Library/CMSIS/Include\core_armv8mbl.h:1279:43
	ldr	r2, __arm_cp.3_0
	ands	r0, r2
	.loc	4 1279 5                @ ../../../../../Library/CMSIS/Include\core_armv8mbl.h:1279:5
	ldr	r2, __arm_cp.3_1
	.loc	4 1279 52               @ ../../../../../Library/CMSIS/Include\core_armv8mbl.h:1279:52
	str	r1, [r0, r2]
	.loc	4 1280 3 is_stmt 1      @ ../../../../../Library/CMSIS/Include\core_armv8mbl.h:1280:3
	b	.LBB3_2
.Ltmp23:
.LBB3_2:
	.loc	4 1281 1                @ ../../../../../Library/CMSIS/Include\core_armv8mbl.h:1281:1
	add	sp, #8
	bx	lr
.Ltmp24:
	.p2align	2
@ %bb.3:
	.loc	4 0 1 is_stmt 0         @ ../../../../../Library/CMSIS/Include\core_armv8mbl.h:0:1
__arm_cp.3_0:
	.long	536870908               @ 0x1ffffffc
.Lcpi_end15:
	.size	__arm_cp.3_0, .Lcpi_end15-__arm_cp.3_0
__arm_cp.3_1:
	.long	3758153984              @ 0xe000e100
.Lcpi_end16:
	.size	__arm_cp.3_1, .Lcpi_end16-__arm_cp.3_1
.Lfunc_end3:
	.size	__NVIC_EnableIRQ, .Lfunc_end3-__NVIC_EnableIRQ
	.cfi_endproc
	.cantunwind
	.fnend
                                        @ -- End function
	.section	.text.main,"ax",%progbits
	.hidden	main                    @ -- Begin function main
	.globl	main
	.p2align	2
	.type	main,%function
	.code	16                      @ @main
	.thumb_func
main:
.Lfunc_begin4:
	.loc	5 84 0 is_stmt 1        @ ../main_ns.c:84:0
	.fnstart
	.cfi_startproc
@ %bb.0:
	.save	{r7, lr}
	push	{r7, lr}
	.cfi_def_cfa_offset 8
	.cfi_offset lr, -4
	.cfi_offset r7, -8
	.pad	#8
	sub	sp, #8
	.cfi_def_cfa_offset 16
	movs	r0, #0
	str	r0, [sp, #4]
.Ltmp25:
	.loc	5 85 3 prologue_end     @ ../main_ns.c:85:3
	ldr	r0, __arm_cp.4_0
	bl	printf
	.loc	5 87 3                  @ ../main_ns.c:87:3
	str	r0, [sp]                @ 4-byte Spill
	bl	GPIO_INT_Init
	.loc	5 89 5                  @ ../main_ns.c:89:5
	b	.LBB4_1
.LBB4_1:                                @ =>This Inner Loop Header: Depth=1
	b	.LBB4_1
.Ltmp26:
	.p2align	2
@ %bb.2:
	.loc	5 0 5 is_stmt 0         @ ../main_ns.c:0:5
__arm_cp.4_0:
	.long	.L.str.10
.Lcpi_end17:
	.size	__arm_cp.4_0, .Lcpi_end17-__arm_cp.4_0
.Lfunc_end4:
	.size	main, .Lfunc_end4-main
	.cfi_endproc
	.cantunwind
	.fnend
                                        @ -- End function
	.type	.L.str,%object          @ @.str
	.section	.rodata.str1.1,"aMS",%progbits,1
.L.str:
	.asciz	"\n__________________________________________\n"
	.size	.L.str, 45

	.type	.L.str.1,%object        @ @.str.1
.L.str.1:
	.asciz	"|   Trustzone AES Cryptography Demo      |\n"
	.size	.L.str.1, 44

	.type	.L.str.2,%object        @ @.str.2
.L.str.2:
	.asciz	"__________________________________________\n"
	.size	.L.str.2, 44

	.type	.L.str.3,%object        @ @.str.3
.L.str.3:
	.asciz	"Select: \n\t\t\t1 - Encrypt\n\t\t\t2 - Decrypt\n"
	.size	.L.str.3, 40

	.type	.L.str.4,%object        @ @.str.4
.L.str.4:
	.asciz	"Button 0 -SW2- pushed\n"
	.size	.L.str.4, 23

	.type	.L.str.5,%object        @ @.str.5
.L.str.5:
	.asciz	"Button 1 -SW3- pushed\n"
	.size	.L.str.5, 23

	.type	.L.str.6,%object        @ @.str.6
.L.str.6:
	.asciz	"Not used - get creative!\n"
	.size	.L.str.6, 26

	.type	.L.str.7,%object        @ @.str.7
.L.str.7:
	.asciz	"\n"
	.size	.L.str.7, 2

	.type	.L.str.8,%object        @ @.str.8
.L.str.8:
	.asciz	"GPI0 INTERRUPT INIT ......\n"
	.size	.L.str.8, 28

	.type	.L.str.9,%object        @ @.str.9
.L.str.9:
	.asciz	"GPI0 INTERRUPT INIT SUCCESSFULLY COMPLETED!\n"
	.size	.L.str.9, 45

	.type	.L.str.10,%object       @ @.str.10
.L.str.10:
	.asciz	"Non-secure code is running...\n"
	.size	.L.str.10, 31

	.section	".note.GNU-stack","",%progbits
	.eabi_attribute	30, 6	@ Tag_ABI_optimization_goals
	.ARM_attribute	16, 1	@ Tag_AV_eba