	.text
	.syntax unified
	.eabi_attribute	67, "2.09"	@ Tag_conformance
	.cpu	cortex-m23
	.eabi_attribute	6, 16	@ Tag_CPU_arch
	.eabi_attribute	7, 77	@ Tag_CPU_arch_profile
	.eabi_attribute	8, 0	@ Tag_ARM_ISA_use
	.eabi_attribute	9, 3	@ Tag_THUMB_ISA_use
	.eabi_attribute	34, 0	@ Tag_CPU_unaligned_access
	.eabi_attribute	17, 1	@ Tag_ABI_PCS_GOT_use
	.eabi_attribute	20, 2	@ Tag_ABI_FP_denormal
	.eabi_attribute	21, 0	@ Tag_ABI_FP_exceptions
	.eabi_attribute	23, 1	@ Tag_ABI_FP_number_model
	.eabi_attribute	24, 1	@ Tag_ABI_align_needed
	.eabi_attribute	25, 1	@ Tag_ABI_align_preserved
	.eabi_attribute	38, 1	@ Tag_ABI_FP_16bit_format
	.eabi_attribute	18, 4	@ Tag_ABI_PCS_wchar_t
	.eabi_attribute	26, 2	@ Tag_ABI_enum_size
	.eabi_attribute	14, 0	@ Tag_ABI_PCS_R9_use
	.file	"retarget.c"
	.file	1 "C:\\Keil_v5\\ARM\\ARMCLANG\\Bin\\..\\include" "stdio.h"
	.file	2 "../../../../../Library/StdDriver/src" "retarget.c"
	.file	3 "C:\\Keil_v5\\ARM\\ARMCLANG\\Bin\\..\\include" "stdint.h"
	.file	4 "../../../../../Library/Device/Nuvoton/M2351/Include" "uart_reg.h"
	.section	.text.ProcessHardFault,"ax",%progbits
	.hidden	ProcessHardFault        @ -- Begin function ProcessHardFault
	.weak	ProcessHardFault
	.p2align	1
	.type	ProcessHardFault,%function
	.code	16                      @ @ProcessHardFault
	.thumb_func
ProcessHardFault:
.Lfunc_begin0:
	.loc	2 188 0                 @ ../../../../../Library/StdDriver/src/retarget.c:188:0
	.fnstart
	.cfi_sections .debug_frame
	.cfi_startproc
@ %bb.0:
	.save	{r4, r5, r7, lr}
	push	{r4, r5, r7, lr}
	.cfi_def_cfa_offset 16
	.cfi_offset lr, -4
	.cfi_offset r7, -8
	.cfi_offset r5, -12
	.cfi_offset r4, -16
	.pad	#28
	sub	sp, #28
	.cfi_def_cfa_offset 44
	mov	r3, r2
	mov	r4, r1
	mov	r5, r0
	str	r0, [sp, #24]
	str	r1, [sp, #20]
	str	r2, [sp, #16]
	add	r0, sp, #24
.Ltmp0:
	.loc	2 194 8 prologue_end    @ ../../../../../Library/StdDriver/src/retarget.c:194:8
	ldrb	r0, [r0]
	lsls	r0, r0, #25
	cmp	r0, #0
	str	r3, [sp, #8]            @ 4-byte Spill
	str	r4, [sp, #4]            @ 4-byte Spill
	str	r5, [sp]                @ 4-byte Spill
	bpl	.LBB0_5
	b	.LBB0_1
.LBB0_1:
	.loc	2 0 8 is_stmt 0         @ ../../../../../Library/StdDriver/src/retarget.c:0:8
	add	r0, sp, #24
.Ltmp1:
	.loc	2 197 12 is_stmt 1      @ ../../../../../Library/StdDriver/src/retarget.c:197:12
	ldrb	r0, [r0]
	lsls	r0, r0, #29
	cmp	r0, #0
	bpl	.LBB0_3
	b	.LBB0_2
.LBB0_2:
.Ltmp2:
	.loc	2 199 30                @ ../../../../../Library/StdDriver/src/retarget.c:199:30
	ldr	r0, [sp, #16]
	.loc	2 199 16 is_stmt 0      @ ../../../../../Library/StdDriver/src/retarget.c:199:16
	str	r0, [sp, #12]
	.loc	2 200 9 is_stmt 1       @ ../../../../../Library/StdDriver/src/retarget.c:200:9
	b	.LBB0_4
.Ltmp3:
.LBB0_3:
	.loc	2 203 30                @ ../../../../../Library/StdDriver/src/retarget.c:203:30
	ldr	r0, [sp, #20]
	.loc	2 203 16 is_stmt 0      @ ../../../../../Library/StdDriver/src/retarget.c:203:16
	str	r0, [sp, #12]
	b	.LBB0_4
.Ltmp4:
.LBB0_4:
	.loc	2 206 5 is_stmt 1       @ ../../../../../Library/StdDriver/src/retarget.c:206:5
	b	.LBB0_5
.Ltmp5:
.LBB0_5:
	.loc	2 232 5                 @ ../../../../../Library/StdDriver/src/retarget.c:232:5
	b	.LBB0_6
.LBB0_6:                                @ =>This Inner Loop Header: Depth=1
	.loc	2 232 15 is_stmt 0      @ ../../../../../Library/StdDriver/src/retarget.c:232:15
	ldr	r0, [sp, #12]
	.loc	2 232 14                @ ../../../../../Library/StdDriver/src/retarget.c:232:14
	ldr	r0, [r0]
	.loc	2 232 13                @ ../../../../../Library/StdDriver/src/retarget.c:232:13
	movs	r1, #1
	orrs	r0, r1
	.loc	2 232 5                 @ ../../../../../Library/StdDriver/src/retarget.c:232:5
	cmp	r0, #0
	beq	.LBB0_8
	b	.LBB0_7
.LBB0_7:                                @   in Loop: Header=BB0_6 Depth=1
	b	.LBB0_6
.LBB0_8:
	.loc	2 234 12 is_stmt 1      @ ../../../../../Library/StdDriver/src/retarget.c:234:12
	ldr	r0, [sp, #24]
	.loc	2 234 5 is_stmt 0       @ ../../../../../Library/StdDriver/src/retarget.c:234:5
	add	sp, #28
	pop	{r4, r5, r7, pc}
.Ltmp6:
.Lfunc_end0:
	.size	ProcessHardFault, .Lfunc_end0-ProcessHardFault
	.cfi_endproc
	.cantunwind
	.fnend
                                        @ -- End function
	.section	.text.SH_Return,"ax",%progbits
	.hidden	SH_Return               @ -- Begin function SH_Return
	.globl	SH_Return
	.p2align	1
	.type	SH_Return,%function
	.code	16                      @ @SH_Return
	.thumb_func
SH_Return:
.Lfunc_begin1:
	.loc	2 239 0 is_stmt 1       @ ../../../../../Library/StdDriver/src/retarget.c:239:0
	.fnstart
	.cfi_startproc
@ %bb.0:
	.save	{r4, r5, r7, lr}
	push	{r4, r5, r7, lr}
	.cfi_def_cfa_offset 16
	.cfi_offset lr, -4
	.cfi_offset r7, -8
	.cfi_offset r5, -12
	.cfi_offset r4, -16
	.pad	#24
	sub	sp, #24
	.cfi_def_cfa_offset 40
	mov	r3, r2
	mov	r4, r1
	mov	r5, r0
	str	r0, [sp, #20]
	str	r1, [sp, #16]
	str	r2, [sp, #12]
	movs	r0, #0
.Ltmp7:
	.loc	2 240 5 prologue_end    @ ../../../../../Library/StdDriver/src/retarget.c:240:5
	str	r3, [sp, #8]            @ 4-byte Spill
	str	r4, [sp, #4]            @ 4-byte Spill
	str	r5, [sp]                @ 4-byte Spill
	add	sp, #24
	pop	{r4, r5, r7, pc}
.Ltmp8:
.Lfunc_end1:
	.size	SH_Return, .Lfunc_end1-SH_Return
	.cfi_endproc
	.cantunwind
	.fnend
                                        @ -- End function
	.section	.text.SendChar_ToUART,"ax",%progbits
	.hidden	SendChar_ToUART         @ -- Begin function SendChar_ToUART
	.globl	SendChar_ToUART
	.p2align	2
	.type	SendChar_ToUART,%function
	.code	16                      @ @SendChar_ToUART
	.thumb_func
SendChar_ToUART:
.Lfunc_begin2:
	.loc	2 257 0                 @ ../../../../../Library/StdDriver/src/retarget.c:257:0
	.fnstart
	.cfi_startproc
@ %bb.0:
	.pad	#8
	sub	sp, #8
	.cfi_def_cfa_offset 8
	mov	r1, r0
	str	r0, [sp, #4]
.Ltmp9:
	.loc	2 259 5 prologue_end    @ ../../../../../Library/StdDriver/src/retarget.c:259:5
	str	r1, [sp]                @ 4-byte Spill
	b	.LBB2_1
.LBB2_1:                                @ =>This Inner Loop Header: Depth=1
	.loc	2 259 23 is_stmt 0      @ ../../../../../Library/StdDriver/src/retarget.c:259:23
	ldr	r0, __arm_cp.2_0
	ldr	r0, [r0]
	.loc	2 259 31                @ ../../../../../Library/StdDriver/src/retarget.c:259:31
	movs	r1, #1
	lsls	r1, r1, #23
	.loc	2 259 5                 @ ../../../../../Library/StdDriver/src/retarget.c:259:5
	tst	r0, r1
	beq	.LBB2_3
	b	.LBB2_2
.LBB2_2:                                @   in Loop: Header=BB2_1 Depth=1
	b	.LBB2_1
.LBB2_3:
	.loc	2 260 33 is_stmt 1      @ ../../../../../Library/StdDriver/src/retarget.c:260:33
	ldr	r0, [sp, #4]
	.loc	2 260 21 is_stmt 0      @ ../../../../../Library/StdDriver/src/retarget.c:260:21
	ldr	r1, __arm_cp.2_1
	str	r0, [r1]
	add	r0, sp, #4
.Ltmp10:
	.loc	2 261 14 is_stmt 1      @ ../../../../../Library/StdDriver/src/retarget.c:261:14
	ldrb	r0, [r0]
.Ltmp11:
	.loc	2 261 8 is_stmt 0       @ ../../../../../Library/StdDriver/src/retarget.c:261:8
	cmp	r0, #10
	bne	.LBB2_8
	b	.LBB2_4
.LBB2_4:
.Ltmp12:
	.loc	2 263 9 is_stmt 1       @ ../../../../../Library/StdDriver/src/retarget.c:263:9
	b	.LBB2_5
.LBB2_5:                                @ =>This Inner Loop Header: Depth=1
	.loc	2 263 27 is_stmt 0      @ ../../../../../Library/StdDriver/src/retarget.c:263:27
	ldr	r0, __arm_cp.2_0
	ldr	r0, [r0]
	.loc	2 263 35                @ ../../../../../Library/StdDriver/src/retarget.c:263:35
	movs	r1, #1
	lsls	r1, r1, #23
	.loc	2 263 9                 @ ../../../../../Library/StdDriver/src/retarget.c:263:9
	tst	r0, r1
	beq	.LBB2_7
	b	.LBB2_6
.LBB2_6:                                @   in Loop: Header=BB2_5 Depth=1
	b	.LBB2_5
.LBB2_7:
	.loc	2 264 25 is_stmt 1      @ ../../../../../Library/StdDriver/src/retarget.c:264:25
	ldr	r0, __arm_cp.2_1
	movs	r1, #13
	str	r1, [r0]
	.loc	2 265 5                 @ ../../../../../Library/StdDriver/src/retarget.c:265:5
	b	.LBB2_8
.Ltmp13:
.LBB2_8:
	.loc	2 266 1                 @ ../../../../../Library/StdDriver/src/retarget.c:266:1
	add	sp, #8
	bx	lr
.Ltmp14:
	.p2align	2
@ %bb.9:
	.loc	2 0 1 is_stmt 0         @ ../../../../../Library/StdDriver/src/retarget.c:0:1
__arm_cp.2_0:
	.long	1342636056              @ 0x50070018
.Lcpi_end0:
	.size	__arm_cp.2_0, .Lcpi_end0-__arm_cp.2_0
__arm_cp.2_1:
	.long	1342636032              @ 0x50070000
.Lcpi_end1:
	.size	__arm_cp.2_1, .Lcpi_end1-__arm_cp.2_1
.Lfunc_end2:
	.size	SendChar_ToUART, .Lfunc_end2-SendChar_ToUART
	.cfi_endproc
	.cantunwind
	.fnend
                                        @ -- End function
	.section	.text.SendChar,"ax",%progbits
	.hidden	SendChar                @ -- Begin function SendChar
	.globl	SendChar
	.p2align	1
	.type	SendChar,%function
	.code	16                      @ @SendChar
	.thumb_func
SendChar:
.Lfunc_begin3:
	.loc	2 334 0 is_stmt 1       @ ../../../../../Library/StdDriver/src/retarget.c:334:0
	.fnstart
	.cfi_startproc
@ %bb.0:
	.save	{r7, lr}
	push	{r7, lr}
	.cfi_def_cfa_offset 8
	.cfi_offset lr, -4
	.cfi_offset r7, -8
	.pad	#8
	sub	sp, #8
	.cfi_def_cfa_offset 16
	mov	r1, r0
	str	r0, [sp, #4]
.Ltmp15:
	.loc	2 364 21 prologue_end   @ ../../../../../Library/StdDriver/src/retarget.c:364:21
	ldr	r0, [sp, #4]
	.loc	2 364 5 is_stmt 0       @ ../../../../../Library/StdDriver/src/retarget.c:364:5
	str	r1, [sp]                @ 4-byte Spill
	bl	SendChar_ToUART
	.loc	2 366 1 is_stmt 1       @ ../../../../../Library/StdDriver/src/retarget.c:366:1
	add	sp, #8
	pop	{r7, pc}
.Ltmp16:
.Lfunc_end3:
	.size	SendChar, .Lfunc_end3-SendChar
	.cfi_endproc
	.cantunwind
	.fnend
                                        @ -- End function
	.section	.text.GetChar,"ax",%progbits
	.hidden	GetChar                 @ -- Begin function GetChar
	.globl	GetChar
	.p2align	2
	.type	GetChar,%function
	.code	16                      @ @GetChar
	.thumb_func
GetChar:
.Lfunc_begin4:
	.loc	2 378 0                 @ ../../../../../Library/StdDriver/src/retarget.c:378:0
	.fnstart
	.cfi_startproc
@ %bb.0:
	.loc	2 415 5 prologue_end    @ ../../../../../Library/StdDriver/src/retarget.c:415:5
	b	.LBB4_1
.LBB4_1:                                @ =>This Inner Loop Header: Depth=1
.Ltmp17:
	.loc	2 417 25                @ ../../../../../Library/StdDriver/src/retarget.c:417:25
	ldr	r0, __arm_cp.4_0
	ldr	r0, [r0]
	.loc	2 417 33 is_stmt 0      @ ../../../../../Library/StdDriver/src/retarget.c:417:33
	movw	r1, #16384
.Ltmp18:
	.loc	2 417 12                @ ../../../../../Library/StdDriver/src/retarget.c:417:12
	tst	r0, r1
	bne	.LBB4_3
	b	.LBB4_2
.LBB4_2:
.Ltmp19:
	.loc	2 419 39 is_stmt 1      @ ../../../../../Library/StdDriver/src/retarget.c:419:39
	ldr	r0, __arm_cp.4_1
	ldr	r0, [r0]
	.loc	2 419 13 is_stmt 0      @ ../../../../../Library/StdDriver/src/retarget.c:419:13
	uxtb	r0, r0
	bx	lr
.Ltmp20:
.LBB4_3:                                @   in Loop: Header=BB4_1 Depth=1
	.loc	2 415 5 is_stmt 1       @ ../../../../../Library/StdDriver/src/retarget.c:415:5
	b	.LBB4_1
.Ltmp21:
	.p2align	2
@ %bb.4:
	.loc	2 0 5 is_stmt 0         @ ../../../../../Library/StdDriver/src/retarget.c:0:5
__arm_cp.4_0:
	.long	1342636056              @ 0x50070018
.Lcpi_end2:
	.size	__arm_cp.4_0, .Lcpi_end2-__arm_cp.4_0
__arm_cp.4_1:
	.long	1342636032              @ 0x50070000
.Lcpi_end3:
	.size	__arm_cp.4_1, .Lcpi_end3-__arm_cp.4_1
.Lfunc_end4:
	.size	GetChar, .Lfunc_end4-GetChar
	.cfi_endproc
	.cantunwind
	.fnend
                                        @ -- End function
	.section	.text.kbhit,"ax",%progbits
	.hidden	kbhit                   @ -- Begin function kbhit
	.globl	kbhit
	.p2align	2
	.type	kbhit,%function
	.code	16                      @ @kbhit
	.thumb_func
kbhit:
.Lfunc_begin5:
	.loc	2 438 0 is_stmt 1       @ ../../../../../Library/StdDriver/src/retarget.c:438:0
	.fnstart
	.cfi_startproc
@ %bb.0:
	.loc	2 439 27 prologue_end   @ ../../../../../Library/StdDriver/src/retarget.c:439:27
	ldr	r0, __arm_cp.5_0
	ldr	r0, [r0]
	.loc	2 439 35 is_stmt 0      @ ../../../../../Library/StdDriver/src/retarget.c:439:35
	movw	r1, #16384
	ands	r0, r1
	.loc	2 439 63                @ ../../../../../Library/StdDriver/src/retarget.c:439:63
	lsrs	r0, r0, #14
	.loc	2 439 5                 @ ../../../../../Library/StdDriver/src/retarget.c:439:5
	bx	lr
.Ltmp22:
	.p2align	2
@ %bb.1:
	.loc	2 0 5                   @ ../../../../../Library/StdDriver/src/retarget.c:0:5
__arm_cp.5_0:
	.long	1342636056              @ 0x50070018
.Lcpi_end4:
	.size	__arm_cp.5_0, .Lcpi_end4-__arm_cp.5_0
.Lfunc_end5:
	.size	kbhit, .Lfunc_end5-kbhit
	.cfi_endproc
	.cantunwind
	.fnend
                                        @ -- End function
	.section	.text.IsDebugFifoEmpty,"ax",%progbits
	.hidden	IsDebugFifoEmpty        @ -- Begin function IsDebugFifoEmpty
	.globl	IsDebugFifoEmpty
	.p2align	2
	.type	IsDebugFifoEmpty,%function
	.code	16                      @ @IsDebugFifoEmpty
	.thumb_func
IsDebugFifoEmpty:
.Lfunc_begin6:
	.loc	2 453 0 is_stmt 1       @ ../../../../../Library/StdDriver/src/retarget.c:453:0
	.fnstart
	.cfi_startproc
@ %bb.0:
	.loc	2 454 26 prologue_end   @ ../../../../../Library/StdDriver/src/retarget.c:454:26
	ldr	r0, __arm_cp.6_0
	ldr	r0, [r0]
	.loc	2 454 34 is_stmt 0      @ ../../../../../Library/StdDriver/src/retarget.c:454:34
	movs	r1, #1
	lsls	r1, r1, #28
	ands	r0, r1
	.loc	2 454 63                @ ../../../../../Library/StdDriver/src/retarget.c:454:63
	lsrs	r0, r0, #28
	.loc	2 454 5                 @ ../../../../../Library/StdDriver/src/retarget.c:454:5
	bx	lr
.Ltmp23:
	.p2align	2
@ %bb.1:
	.loc	2 0 5                   @ ../../../../../Library/StdDriver/src/retarget.c:0:5
__arm_cp.6_0:
	.long	1342636056              @ 0x50070018
.Lcpi_end5:
	.size	__arm_cp.6_0, .Lcpi_end5-__arm_cp.6_0
.Lfunc_end6:
	.size	IsDebugFifoEmpty, .Lfunc_end6-IsDebugFifoEmpty
	.cfi_endproc
	.cantunwind
	.fnend
                                        @ -- End function
	.section	.text._ttywrch,"ax",%progbits
	.hidden	_ttywrch                @ -- Begin function _ttywrch
	.globl	_ttywrch
	.p2align	1
	.type	_ttywrch,%function
	.code	16                      @ @_ttywrch
	.thumb_func
_ttywrch:
.Lfunc_begin7:
	.loc	2 468 0 is_stmt 1       @ ../../../../../Library/StdDriver/src/retarget.c:468:0
	.fnstart
	.cfi_startproc
@ %bb.0:
	.save	{r7, lr}
	push	{r7, lr}
	.cfi_def_cfa_offset 8
	.cfi_offset lr, -4
	.cfi_offset r7, -8
	.pad	#8
	sub	sp, #8
	.cfi_def_cfa_offset 16
	mov	r1, r0
	str	r0, [sp, #4]
.Ltmp24:
	.loc	2 469 14 prologue_end   @ ../../../../../Library/StdDriver/src/retarget.c:469:14
	ldr	r0, [sp, #4]
	.loc	2 469 5 is_stmt 0       @ ../../../../../Library/StdDriver/src/retarget.c:469:5
	str	r1, [sp]                @ 4-byte Spill
	bl	SendChar
	.loc	2 470 5 is_stmt 1       @ ../../../../../Library/StdDriver/src/retarget.c:470:5
	add	sp, #8
	pop	{r7, pc}
.Ltmp25:
.Lfunc_end7:
	.size	_ttywrch, .Lfunc_end7-_ttywrch
	.cfi_endproc
	.cantunwind
	.fnend
                                        @ -- End function
	.section	.text.fputc,"ax",%progbits
	.hidden	fputc                   @ -- Begin function fputc
	.globl	fputc
	.p2align	1
	.type	fputc,%function
	.code	16                      @ @fputc
	.thumb_func
fputc:
.Lfunc_begin8:
	.loc	2 493 0                 @ ../../../../../Library/StdDriver/src/retarget.c:493:0
	.fnstart
	.cfi_startproc
@ %bb.0:
	.save	{r7, lr}
	push	{r7, lr}
	.cfi_def_cfa_offset 8
	.cfi_offset lr, -4
	.cfi_offset r7, -8
	.pad	#16
	sub	sp, #16
	.cfi_def_cfa_offset 24
	mov	r2, r1
	mov	r3, r0
	str	r0, [sp, #12]
	str	r1, [sp, #8]
.Ltmp26:
	.loc	2 494 14 prologue_end   @ ../../../../../Library/StdDriver/src/retarget.c:494:14
	ldr	r0, [sp, #12]
	.loc	2 494 5 is_stmt 0       @ ../../../../../Library/StdDriver/src/retarget.c:494:5
	str	r2, [sp, #4]            @ 4-byte Spill
	str	r3, [sp]                @ 4-byte Spill
	bl	SendChar
	.loc	2 495 12 is_stmt 1      @ ../../../../../Library/StdDriver/src/retarget.c:495:12
	ldr	r0, [sp, #12]
	.loc	2 495 5 is_stmt 0       @ ../../../../../Library/StdDriver/src/retarget.c:495:5
	add	sp, #16
	pop	{r7, pc}
.Ltmp27:
.Lfunc_end8:
	.size	fputc, .Lfunc_end8-fputc
	.cfi_endproc
	.cantunwind
	.fnend
                                        @ -- End function
	.section	.text.fgetc,"ax",%progbits
	.hidden	fgetc                   @ -- Begin function fgetc
	.globl	fgetc
	.p2align	1
	.type	fgetc,%function
	.code	16                      @ @fgetc
	.thumb_func
fgetc:
.Lfunc_begin9:
	.loc	2 543 0 is_stmt 1       @ ../../../../../Library/StdDriver/src/retarget.c:543:0
	.fnstart
	.cfi_startproc
@ %bb.0:
	.save	{r7, lr}
	push	{r7, lr}
	.cfi_def_cfa_offset 8
	.cfi_offset lr, -4
	.cfi_offset r7, -8
	.pad	#8
	sub	sp, #8
	.cfi_def_cfa_offset 16
	mov	r1, r0
	str	r0, [sp, #4]
.Ltmp28:
	.loc	2 544 18 prologue_end   @ ../../../../../Library/StdDriver/src/retarget.c:544:18
	str	r1, [sp]                @ 4-byte Spill
	bl	GetChar
	.loc	2 544 5 is_stmt 0       @ ../../../../../Library/StdDriver/src/retarget.c:544:5
	add	sp, #8
	pop	{r7, pc}
.Ltmp29:
.Lfunc_end9:
	.size	fgetc, .Lfunc_end9-fgetc
	.cfi_endproc
	.cantunwind
	.fnend
                                        @ -- End function
	.section	.text.ferror,"ax",%progbits
	.hidden	ferror                  @ -- Begin function ferror
	.globl	ferror
	.p2align	1
	.type	ferror,%function
	.code	16                      @ @ferror
	.thumb_func
ferror:
.Lfunc_begin10:
	.loc	2 563 0 is_stmt 1       @ ../../../../../Library/StdDriver/src/retarget.c:563:0
	.fnstart
	.cfi_startproc
@ %bb.0:
	.pad	#8
	sub	sp, #8
	.cfi_def_cfa_offset 8
	mov	r1, r0
	str	r0, [sp, #4]
.Ltmp30:
	.loc	2 564 5 prologue_end    @ ../../../../../Library/StdDriver/src/retarget.c:564:5
	movs	r0, #0
	mvns	r0, r0
	str	r1, [sp]                @ 4-byte Spill
	add	sp, #8
	bx	lr
.Ltmp31:
.Lfunc_end10:
	.size	ferror, .Lfunc_end10-ferror
	.cfi_endproc
	.cantunwind
	.fnend
                                        @ -- End function
	.hidden	__stdout                @ @__stdout
	.type	__stdout,%object
	.section	.bss.__stdout,"aw",%nobits
	.globl	__stdout
	.p2align	2
__stdout:
	.zero	84
	.size	__stdout, 84

	.hidden	__stdin                 @ @__stdin
	.type	__stdin,%object
	.section	.bss.__stdin,"aw",%nobits
	.globl	__stdin
	.p2align	2
__stdin:
	.zero	84
	.size	__stdin, 84

	.section	".note.GNU-stack","",%progbits
	.eabi_attribute	30, 6	@ Tag_ABI_optimization_goals
	.ARM_attribute	16, 1	@ Tag_AV_eba