	.text
	.syntax unified
	.eabi_attribute	67, "2.09"	@ Tag_conformance
	.cpu	cortex-m23
	.eabi_attribute	6, 16	@ Tag_CPU_arch
	.eabi_attribute	7, 77	@ Tag_CPU_arch_profile
	.eabi_attribute	8, 0	@ Tag_ARM_ISA_use
	.eabi_attribute	9, 3	@ Tag_THUMB_ISA_use
	.eabi_attribute	34, 0	@ Tag_CPU_unaligned_access
	.eabi_attribute	17, 1	@ Tag_ABI_PCS_GOT_use
	.eabi_attribute	20, 2	@ Tag_ABI_FP_denormal
	.eabi_attribute	21, 0	@ Tag_ABI_FP_exceptions
	.eabi_attribute	23, 1	@ Tag_ABI_FP_number_model
	.eabi_attribute	24, 1	@ Tag_ABI_align_needed
	.eabi_attribute	25, 1	@ Tag_ABI_align_preserved
	.eabi_attribute	38, 1	@ Tag_ABI_FP_16bit_format
	.eabi_attribute	18, 4	@ Tag_ABI_PCS_wchar_t
	.eabi_attribute	26, 2	@ Tag_ABI_enum_size
	.eabi_attribute	14, 0	@ Tag_ABI_PCS_R9_use
	.file	"uart.c"
	.file	1 "../../../../../Library/Device/Nuvoton/M2351/Include" "M2351.h"
	.file	2 "C:\\Keil_v5\\ARM\\ARMCLANG\\Bin\\..\\include" "stdint.h"
	.file	3 "../../../../../Library/CMSIS/Include" "core_armv8mbl.h"
	.section	.text.UART_ClearIntFlag,"ax",%progbits
	.hidden	UART_ClearIntFlag       @ -- Begin function UART_ClearIntFlag
	.globl	UART_ClearIntFlag
	.p2align	2
	.type	UART_ClearIntFlag,%function
	.code	16                      @ @UART_ClearIntFlag
	.thumb_func
UART_ClearIntFlag:
.Lfunc_begin0:
	.file	4 "C:/Keil_v5/ARM/PACK/Nuvoton/NuMicro_M2351_BSP/1.0.0/Device/M2351/StdDriver/src" "uart.c"
	.loc	4 42 0                  @ C:/Keil_v5/ARM/PACK/Nuvoton/NuMicro_M2351_BSP/1.0.0/Device/M2351/StdDriver/src/uart.c:42:0
	.fnstart
	.cfi_sections .debug_frame
	.cfi_startproc
@ %bb.0:
	.pad	#16
	sub	sp, #16
	.cfi_def_cfa_offset 16
	mov	r2, r1
	mov	r3, r0
	str	r0, [sp, #12]
	str	r1, [sp, #8]
	add	r0, sp, #8
.Ltmp0:
	.loc	4 44 8 prologue_end     @ C:/Keil_v5/ARM/PACK/Nuvoton/NuMicro_M2351_BSP/1.0.0/Device/M2351/StdDriver/src/uart.c:44:8
	ldrb	r0, [r0, #1]
	lsls	r0, r0, #29
	cmp	r0, #0
	str	r2, [sp, #4]            @ 4-byte Spill
	str	r3, [sp]                @ 4-byte Spill
	bpl	.LBB0_2
	b	.LBB0_1
.LBB0_1:
.Ltmp1:
	.loc	4 46 9                  @ C:/Keil_v5/ARM/PACK/Nuvoton/NuMicro_M2351_BSP/1.0.0/Device/M2351/StdDriver/src/uart.c:46:9
	ldr	r0, [sp, #12]
	.loc	4 46 23 is_stmt 0       @ C:/Keil_v5/ARM/PACK/Nuvoton/NuMicro_M2351_BSP/1.0.0/Device/M2351/StdDriver/src/uart.c:46:23
	movs	r1, #104
	str	r1, [r0, #24]
	.loc	4 47 5 is_stmt 1        @ C:/Keil_v5/ARM/PACK/Nuvoton/NuMicro_M2351_BSP/1.0.0/Device/M2351/StdDriver/src/uart.c:47:5
	b	.LBB0_2
.Ltmp2:
.LBB0_2:
	.loc	4 0 5 is_stmt 0         @ C:/Keil_v5/ARM/PACK/Nuvoton/NuMicro_M2351_BSP/1.0.0/Device/M2351/StdDriver/src/uart.c:0:5
	add	r0, sp, #8
	.loc	4 49 8 is_stmt 1        @ C:/Keil_v5/ARM/PACK/Nuvoton/NuMicro_M2351_BSP/1.0.0/Device/M2351/StdDriver/src/uart.c:49:8
	ldrb	r0, [r0, #1]
	lsls	r0, r0, #28
	cmp	r0, #0
	bpl	.LBB0_4
	b	.LBB0_3
.LBB0_3:
.Ltmp3:
	.loc	4 51 9                  @ C:/Keil_v5/ARM/PACK/Nuvoton/NuMicro_M2351_BSP/1.0.0/Device/M2351/StdDriver/src/uart.c:51:9
	ldr	r0, [sp, #12]
	.loc	4 51 24 is_stmt 0       @ C:/Keil_v5/ARM/PACK/Nuvoton/NuMicro_M2351_BSP/1.0.0/Device/M2351/StdDriver/src/uart.c:51:24
	ldr	r1, [r0, #20]
	movs	r2, #1
	orrs	r1, r2
	str	r1, [r0, #20]
	.loc	4 52 5 is_stmt 1        @ C:/Keil_v5/ARM/PACK/Nuvoton/NuMicro_M2351_BSP/1.0.0/Device/M2351/StdDriver/src/uart.c:52:5
	b	.LBB0_4
.Ltmp4:
.LBB0_4:
	.loc	4 0 5 is_stmt 0         @ C:/Keil_v5/ARM/PACK/Nuvoton/NuMicro_M2351_BSP/1.0.0/Device/M2351/StdDriver/src/uart.c:0:5
	add	r0, sp, #8
	.loc	4 54 8 is_stmt 1        @ C:/Keil_v5/ARM/PACK/Nuvoton/NuMicro_M2351_BSP/1.0.0/Device/M2351/StdDriver/src/uart.c:54:8
	ldrb	r0, [r0, #1]
	lsls	r0, r0, #26
	cmp	r0, #0
	bpl	.LBB0_6
	b	.LBB0_5
.LBB0_5:
.Ltmp5:
	.loc	4 56 9                  @ C:/Keil_v5/ARM/PACK/Nuvoton/NuMicro_M2351_BSP/1.0.0/Device/M2351/StdDriver/src/uart.c:56:9
	ldr	r0, [sp, #12]
	.loc	4 56 23 is_stmt 0       @ C:/Keil_v5/ARM/PACK/Nuvoton/NuMicro_M2351_BSP/1.0.0/Device/M2351/StdDriver/src/uart.c:56:23
	ldr	r1, __arm_cp.0_0
	str	r1, [r0, #24]
	.loc	4 57 5 is_stmt 1        @ C:/Keil_v5/ARM/PACK/Nuvoton/NuMicro_M2351_BSP/1.0.0/Device/M2351/StdDriver/src/uart.c:57:5
	b	.LBB0_6
.Ltmp6:
.LBB0_6:
	.loc	4 0 5 is_stmt 0         @ C:/Keil_v5/ARM/PACK/Nuvoton/NuMicro_M2351_BSP/1.0.0/Device/M2351/StdDriver/src/uart.c:0:5
	add	r0, sp, #8
	.loc	4 59 8 is_stmt 1        @ C:/Keil_v5/ARM/PACK/Nuvoton/NuMicro_M2351_BSP/1.0.0/Device/M2351/StdDriver/src/uart.c:59:8
	ldrb	r0, [r0, #1]
	lsls	r0, r0, #25
	cmp	r0, #0
	bpl	.LBB0_8
	b	.LBB0_7
.LBB0_7:
.Ltmp7:
	.loc	4 61 9                  @ C:/Keil_v5/ARM/PACK/Nuvoton/NuMicro_M2351_BSP/1.0.0/Device/M2351/StdDriver/src/uart.c:61:9
	ldr	r0, [sp, #12]
	.loc	4 61 21 is_stmt 0       @ C:/Keil_v5/ARM/PACK/Nuvoton/NuMicro_M2351_BSP/1.0.0/Device/M2351/StdDriver/src/uart.c:61:21
	movs	r1, #31
	str	r1, [r0, #68]
	.loc	4 64 5 is_stmt 1        @ C:/Keil_v5/ARM/PACK/Nuvoton/NuMicro_M2351_BSP/1.0.0/Device/M2351/StdDriver/src/uart.c:64:5
	b	.LBB0_8
.Ltmp8:
.LBB0_8:
	.loc	4 0 5 is_stmt 0         @ C:/Keil_v5/ARM/PACK/Nuvoton/NuMicro_M2351_BSP/1.0.0/Device/M2351/StdDriver/src/uart.c:0:5
	add	r0, sp, #8
	.loc	4 66 8 is_stmt 1        @ C:/Keil_v5/ARM/PACK/Nuvoton/NuMicro_M2351_BSP/1.0.0/Device/M2351/StdDriver/src/uart.c:66:8
	ldrb	r0, [r0, #1]
	lsls	r0, r0, #24
	cmp	r0, #0
	bpl	.LBB0_10
	b	.LBB0_9
.LBB0_9:
.Ltmp9:
	.loc	4 68 9                  @ C:/Keil_v5/ARM/PACK/Nuvoton/NuMicro_M2351_BSP/1.0.0/Device/M2351/StdDriver/src/uart.c:68:9
	ldr	r0, [sp, #12]
	.loc	4 68 22 is_stmt 0       @ C:/Keil_v5/ARM/PACK/Nuvoton/NuMicro_M2351_BSP/1.0.0/Device/M2351/StdDriver/src/uart.c:68:22
	movs	r1, #128
	str	r1, [r0, #28]
	.loc	4 69 9 is_stmt 1        @ C:/Keil_v5/ARM/PACK/Nuvoton/NuMicro_M2351_BSP/1.0.0/Device/M2351/StdDriver/src/uart.c:69:9
	ldr	r0, [sp, #12]
	.loc	4 69 22 is_stmt 0       @ C:/Keil_v5/ARM/PACK/Nuvoton/NuMicro_M2351_BSP/1.0.0/Device/M2351/StdDriver/src/uart.c:69:22
	ldr	r1, __arm_cp.0_1
	str	r1, [r0, #56]
	.loc	4 72 5 is_stmt 1        @ C:/Keil_v5/ARM/PACK/Nuvoton/NuMicro_M2351_BSP/1.0.0/Device/M2351/StdDriver/src/uart.c:72:5
	b	.LBB0_10
.Ltmp10:
.LBB0_10:
	.loc	4 74 1                  @ C:/Keil_v5/ARM/PACK/Nuvoton/NuMicro_M2351_BSP/1.0.0/Device/M2351/StdDriver/src/uart.c:74:1
	add	sp, #16
	bx	lr
.Ltmp11:
	.p2align	2
@ %bb.11:
	.loc	4 0 1 is_stmt 0         @ C:/Keil_v5/ARM/PACK/Nuvoton/NuMicro_M2351_BSP/1.0.0/Device/M2351/StdDriver/src/uart.c:0:1
__arm_cp.0_0:
	.long	16777217                @ 0x1000001
.Lcpi_end0:
	.size	__arm_cp.0_0, .Lcpi_end0-__arm_cp.0_0
__arm_cp.0_1:
	.long	783                     @ 0x30f
.Lcpi_end1:
	.size	__arm_cp.0_1, .Lcpi_end1-__arm_cp.0_1
.Lfunc_end0:
	.size	UART_ClearIntFlag, .Lfunc_end0-UART_ClearIntFlag
	.cfi_endproc
	.cantunwind
	.fnend
                                        @ -- End function
	.section	.text.UART_Close,"ax",%progbits
	.hidden	UART_Close              @ -- Begin function UART_Close
	.globl	UART_Close
	.p2align	1
	.type	UART_Close,%function
	.code	16                      @ @UART_Close
	.thumb_func
UART_Close:
.Lfunc_begin1:
	.loc	4 87 0 is_stmt 1        @ C:/Keil_v5/ARM/PACK/Nuvoton/NuMicro_M2351_BSP/1.0.0/Device/M2351/StdDriver/src/uart.c:87:0
	.fnstart
	.cfi_startproc
@ %bb.0:
	.pad	#8
	sub	sp, #8
	.cfi_def_cfa_offset 8
	mov	r1, r0
	str	r0, [sp, #4]
.Ltmp12:
	.loc	4 88 5 prologue_end     @ C:/Keil_v5/ARM/PACK/Nuvoton/NuMicro_M2351_BSP/1.0.0/Device/M2351/StdDriver/src/uart.c:88:5
	ldr	r0, [sp, #4]
	movs	r2, #0
	.loc	4 88 17 is_stmt 0       @ C:/Keil_v5/ARM/PACK/Nuvoton/NuMicro_M2351_BSP/1.0.0/Device/M2351/StdDriver/src/uart.c:88:17
	str	r2, [r0, #4]
	.loc	4 89 1 is_stmt 1        @ C:/Keil_v5/ARM/PACK/Nuvoton/NuMicro_M2351_BSP/1.0.0/Device/M2351/StdDriver/src/uart.c:89:1
	str	r1, [sp]                @ 4-byte Spill
	add	sp, #8
	bx	lr
.Ltmp13:
.Lfunc_end1:
	.size	UART_Close, .Lfunc_end1-UART_Close
	.cfi_endproc
	.cantunwind
	.fnend
                                        @ -- End function
	.section	.text.UART_DisableFlowCtrl,"ax",%progbits
	.hidden	UART_DisableFlowCtrl    @ -- Begin function UART_DisableFlowCtrl
	.globl	UART_DisableFlowCtrl
	.p2align	1
	.type	UART_DisableFlowCtrl,%function
	.code	16                      @ @UART_DisableFlowCtrl
	.thumb_func
UART_DisableFlowCtrl:
.Lfunc_begin2:
	.loc	4 102 0                 @ C:/Keil_v5/ARM/PACK/Nuvoton/NuMicro_M2351_BSP/1.0.0/Device/M2351/StdDriver/src/uart.c:102:0
	.fnstart
	.cfi_startproc
@ %bb.0:
	.pad	#8
	sub	sp, #8
	.cfi_def_cfa_offset 8
	mov	r1, r0
	str	r0, [sp, #4]
.Ltmp14:
	.loc	4 103 5 prologue_end    @ C:/Keil_v5/ARM/PACK/Nuvoton/NuMicro_M2351_BSP/1.0.0/Device/M2351/StdDriver/src/uart.c:103:5
	ldr	r0, [sp, #4]
	.loc	4 103 17 is_stmt 0      @ C:/Keil_v5/ARM/PACK/Nuvoton/NuMicro_M2351_BSP/1.0.0/Device/M2351/StdDriver/src/uart.c:103:17
	ldr	r2, [r0, #4]
	movw	r3, #12288
	bics	r2, r3
	str	r2, [r0, #4]
	.loc	4 104 1 is_stmt 1       @ C:/Keil_v5/ARM/PACK/Nuvoton/NuMicro_M2351_BSP/1.0.0/Device/M2351/StdDriver/src/uart.c:104:1
	str	r1, [sp]                @ 4-byte Spill
	add	sp, #8
	bx	lr
.Ltmp15:
.Lfunc_end2:
	.size	UART_DisableFlowCtrl, .Lfunc_end2-UART_DisableFlowCtrl
	.cfi_endproc
	.cantunwind
	.fnend
                                        @ -- End function
	.section	.text.UART_DisableInt,"ax",%progbits
	.hidden	UART_DisableInt         @ -- Begin function UART_DisableInt
	.globl	UART_DisableInt
	.p2align	2
	.type	UART_DisableInt,%function
	.code	16                      @ @UART_DisableInt
	.thumb_func
UART_DisableInt:
.Lfunc_begin3:
	.loc	4 128 0                 @ C:/Keil_v5/ARM/PACK/Nuvoton/NuMicro_M2351_BSP/1.0.0/Device/M2351/StdDriver/src/uart.c:128:0
	.fnstart
	.cfi_startproc
@ %bb.0:
	.save	{r4, lr}
	push	{r4, lr}
	.cfi_def_cfa_offset 8
	.cfi_offset lr, -4
	.cfi_offset r4, -8
	.pad	#24
	sub	sp, #24
	.cfi_def_cfa_offset 32
	mov	r2, r1
	mov	r3, r0
	str	r0, [sp, #20]
	str	r1, [sp, #16]
.Ltmp16:
	.loc	4 130 5 prologue_end    @ C:/Keil_v5/ARM/PACK/Nuvoton/NuMicro_M2351_BSP/1.0.0/Device/M2351/StdDriver/src/uart.c:130:5
	ldr	r0, [sp, #16]
	ldr	r1, [sp, #20]
	ldr	r4, [r1, #4]
	bics	r4, r0
	str	r4, [r1, #4]
	.loc	4 133 22                @ C:/Keil_v5/ARM/PACK/Nuvoton/NuMicro_M2351_BSP/1.0.0/Device/M2351/StdDriver/src/uart.c:133:22
	ldr	r0, [sp, #20]
	.loc	4 133 5 is_stmt 0       @ C:/Keil_v5/ARM/PACK/Nuvoton/NuMicro_M2351_BSP/1.0.0/Device/M2351/StdDriver/src/uart.c:133:5
	ldr	r1, __arm_cp.3_0
	cmp	r0, r1
	str	r2, [sp, #12]           @ 4-byte Spill
	str	r3, [sp, #8]            @ 4-byte Spill
	str	r0, [sp, #4]            @ 4-byte Spill
	beq	.LBB3_12
	b	.LBB3_1
.LBB3_1:
	.loc	4 0 5                   @ C:/Keil_v5/ARM/PACK/Nuvoton/NuMicro_M2351_BSP/1.0.0/Device/M2351/StdDriver/src/uart.c:0:5
	ldr	r0, __arm_cp.3_1
	.loc	4 133 5                 @ C:/Keil_v5/ARM/PACK/Nuvoton/NuMicro_M2351_BSP/1.0.0/Device/M2351/StdDriver/src/uart.c:133:5
	ldr	r1, [sp, #4]            @ 4-byte Reload
	cmp	r1, r0
	beq	.LBB3_13
	b	.LBB3_2
.LBB3_2:
	.loc	4 0 5                   @ C:/Keil_v5/ARM/PACK/Nuvoton/NuMicro_M2351_BSP/1.0.0/Device/M2351/StdDriver/src/uart.c:0:5
	ldr	r0, __arm_cp.3_2
	.loc	4 133 5                 @ C:/Keil_v5/ARM/PACK/Nuvoton/NuMicro_M2351_BSP/1.0.0/Device/M2351/StdDriver/src/uart.c:133:5
	ldr	r1, [sp, #4]            @ 4-byte Reload
	cmp	r1, r0
	beq	.LBB3_14
	b	.LBB3_3
.LBB3_3:
	.loc	4 0 5                   @ C:/Keil_v5/ARM/PACK/Nuvoton/NuMicro_M2351_BSP/1.0.0/Device/M2351/StdDriver/src/uart.c:0:5
	ldr	r0, __arm_cp.3_3
	.loc	4 133 5                 @ C:/Keil_v5/ARM/PACK/Nuvoton/NuMicro_M2351_BSP/1.0.0/Device/M2351/StdDriver/src/uart.c:133:5
	ldr	r1, [sp, #4]            @ 4-byte Reload
	cmp	r1, r0
	beq	.LBB3_15
	b	.LBB3_4
.LBB3_4:
	.loc	4 0 5                   @ C:/Keil_v5/ARM/PACK/Nuvoton/NuMicro_M2351_BSP/1.0.0/Device/M2351/StdDriver/src/uart.c:0:5
	ldr	r0, __arm_cp.3_4
	.loc	4 133 5                 @ C:/Keil_v5/ARM/PACK/Nuvoton/NuMicro_M2351_BSP/1.0.0/Device/M2351/StdDriver/src/uart.c:133:5
	ldr	r1, [sp, #4]            @ 4-byte Reload
	cmp	r1, r0
	beq	.LBB3_16
	b	.LBB3_5
.LBB3_5:
	.loc	4 0 5                   @ C:/Keil_v5/ARM/PACK/Nuvoton/NuMicro_M2351_BSP/1.0.0/Device/M2351/StdDriver/src/uart.c:0:5
	ldr	r0, __arm_cp.3_5
	.loc	4 133 5                 @ C:/Keil_v5/ARM/PACK/Nuvoton/NuMicro_M2351_BSP/1.0.0/Device/M2351/StdDriver/src/uart.c:133:5
	ldr	r1, [sp, #4]            @ 4-byte Reload
	cmp	r1, r0
	beq	.LBB3_17
	b	.LBB3_6
.LBB3_6:
	.loc	4 0 5                   @ C:/Keil_v5/ARM/PACK/Nuvoton/NuMicro_M2351_BSP/1.0.0/Device/M2351/StdDriver/src/uart.c:0:5
	ldr	r0, __arm_cp.3_6
	.loc	4 133 5                 @ C:/Keil_v5/ARM/PACK/Nuvoton/NuMicro_M2351_BSP/1.0.0/Device/M2351/StdDriver/src/uart.c:133:5
	ldr	r1, [sp, #4]            @ 4-byte Reload
	cmp	r1, r0
	beq	.LBB3_12
	b	.LBB3_7
.LBB3_7:
	.loc	4 0 5                   @ C:/Keil_v5/ARM/PACK/Nuvoton/NuMicro_M2351_BSP/1.0.0/Device/M2351/StdDriver/src/uart.c:0:5
	ldr	r0, __arm_cp.3_7
	.loc	4 133 5                 @ C:/Keil_v5/ARM/PACK/Nuvoton/NuMicro_M2351_BSP/1.0.0/Device/M2351/StdDriver/src/uart.c:133:5
	ldr	r1, [sp, #4]            @ 4-byte Reload
	cmp	r1, r0
	beq	.LBB3_13
	b	.LBB3_8
.LBB3_8:
	.loc	4 0 5                   @ C:/Keil_v5/ARM/PACK/Nuvoton/NuMicro_M2351_BSP/1.0.0/Device/M2351/StdDriver/src/uart.c:0:5
	ldr	r0, __arm_cp.3_8
	.loc	4 133 5                 @ C:/Keil_v5/ARM/PACK/Nuvoton/NuMicro_M2351_BSP/1.0.0/Device/M2351/StdDriver/src/uart.c:133:5
	ldr	r1, [sp, #4]            @ 4-byte Reload
	cmp	r1, r0
	beq	.LBB3_14
	b	.LBB3_9
.LBB3_9:
	.loc	4 0 5                   @ C:/Keil_v5/ARM/PACK/Nuvoton/NuMicro_M2351_BSP/1.0.0/Device/M2351/StdDriver/src/uart.c:0:5
	ldr	r0, __arm_cp.3_9
	.loc	4 133 5                 @ C:/Keil_v5/ARM/PACK/Nuvoton/NuMicro_M2351_BSP/1.0.0/Device/M2351/StdDriver/src/uart.c:133:5
	ldr	r1, [sp, #4]            @ 4-byte Reload
	cmp	r1, r0
	beq	.LBB3_15
	b	.LBB3_10
.LBB3_10:
	.loc	4 0 5                   @ C:/Keil_v5/ARM/PACK/Nuvoton/NuMicro_M2351_BSP/1.0.0/Device/M2351/StdDriver/src/uart.c:0:5
	ldr	r0, __arm_cp.3_10
	.loc	4 133 5                 @ C:/Keil_v5/ARM/PACK/Nuvoton/NuMicro_M2351_BSP/1.0.0/Device/M2351/StdDriver/src/uart.c:133:5
	ldr	r1, [sp, #4]            @ 4-byte Reload
	cmp	r1, r0
	beq	.LBB3_16
	b	.LBB3_11
.LBB3_11:
	.loc	4 0 5                   @ C:/Keil_v5/ARM/PACK/Nuvoton/NuMicro_M2351_BSP/1.0.0/Device/M2351/StdDriver/src/uart.c:0:5
	ldr	r0, __arm_cp.3_11
	.loc	4 133 5                 @ C:/Keil_v5/ARM/PACK/Nuvoton/NuMicro_M2351_BSP/1.0.0/Device/M2351/StdDriver/src/uart.c:133:5
	ldr	r1, [sp, #4]            @ 4-byte Reload
	cmp	r1, r0
	beq	.LBB3_17
	b	.LBB3_18
.LBB3_12:
.Ltmp17:
	.loc	4 137 13 is_stmt 1      @ C:/Keil_v5/ARM/PACK/Nuvoton/NuMicro_M2351_BSP/1.0.0/Device/M2351/StdDriver/src/uart.c:137:13
	movs	r0, #36
	bl	__NVIC_DisableIRQ
	.loc	4 138 13                @ C:/Keil_v5/ARM/PACK/Nuvoton/NuMicro_M2351_BSP/1.0.0/Device/M2351/StdDriver/src/uart.c:138:13
	b	.LBB3_19
.LBB3_13:
	.loc	4 141 13                @ C:/Keil_v5/ARM/PACK/Nuvoton/NuMicro_M2351_BSP/1.0.0/Device/M2351/StdDriver/src/uart.c:141:13
	movs	r0, #37
	bl	__NVIC_DisableIRQ
	.loc	4 142 13                @ C:/Keil_v5/ARM/PACK/Nuvoton/NuMicro_M2351_BSP/1.0.0/Device/M2351/StdDriver/src/uart.c:142:13
	b	.LBB3_19
.LBB3_14:
	.loc	4 145 13                @ C:/Keil_v5/ARM/PACK/Nuvoton/NuMicro_M2351_BSP/1.0.0/Device/M2351/StdDriver/src/uart.c:145:13
	movs	r0, #48
	bl	__NVIC_DisableIRQ
	.loc	4 146 13                @ C:/Keil_v5/ARM/PACK/Nuvoton/NuMicro_M2351_BSP/1.0.0/Device/M2351/StdDriver/src/uart.c:146:13
	b	.LBB3_19
.LBB3_15:
	.loc	4 149 13                @ C:/Keil_v5/ARM/PACK/Nuvoton/NuMicro_M2351_BSP/1.0.0/Device/M2351/StdDriver/src/uart.c:149:13
	movs	r0, #49
	bl	__NVIC_DisableIRQ
	.loc	4 150 13                @ C:/Keil_v5/ARM/PACK/Nuvoton/NuMicro_M2351_BSP/1.0.0/Device/M2351/StdDriver/src/uart.c:150:13
	b	.LBB3_19
.LBB3_16:
	.loc	4 153 13                @ C:/Keil_v5/ARM/PACK/Nuvoton/NuMicro_M2351_BSP/1.0.0/Device/M2351/StdDriver/src/uart.c:153:13
	movs	r0, #74
	bl	__NVIC_DisableIRQ
	.loc	4 154 13                @ C:/Keil_v5/ARM/PACK/Nuvoton/NuMicro_M2351_BSP/1.0.0/Device/M2351/StdDriver/src/uart.c:154:13
	b	.LBB3_19
.LBB3_17:
	.loc	4 157 13                @ C:/Keil_v5/ARM/PACK/Nuvoton/NuMicro_M2351_BSP/1.0.0/Device/M2351/StdDriver/src/uart.c:157:13
	movs	r0, #75
	bl	__NVIC_DisableIRQ
	.loc	4 158 13                @ C:/Keil_v5/ARM/PACK/Nuvoton/NuMicro_M2351_BSP/1.0.0/Device/M2351/StdDriver/src/uart.c:158:13
	b	.LBB3_19
.LBB3_18:
	.loc	4 160 13                @ C:/Keil_v5/ARM/PACK/Nuvoton/NuMicro_M2351_BSP/1.0.0/Device/M2351/StdDriver/src/uart.c:160:13
	b	.LBB3_19
.Ltmp18:
.LBB3_19:
	.loc	4 162 1                 @ C:/Keil_v5/ARM/PACK/Nuvoton/NuMicro_M2351_BSP/1.0.0/Device/M2351/StdDriver/src/uart.c:162:1
	add	sp, #24
	pop	{r4, pc}
.Ltmp19:
	.p2align	2
@ %bb.20:
	.loc	4 0 1 is_stmt 0         @ C:/Keil_v5/ARM/PACK/Nuvoton/NuMicro_M2351_BSP/1.0.0/Device/M2351/StdDriver/src/uart.c:0:1
__arm_cp.3_0:
	.long	1074200576              @ 0x40070000
.Lcpi_end2:
	.size	__arm_cp.3_0, .Lcpi_end2-__arm_cp.3_0
__arm_cp.3_1:
	.long	1074204672              @ 0x40071000
.Lcpi_end3:
	.size	__arm_cp.3_1, .Lcpi_end3-__arm_cp.3_1
__arm_cp.3_2:
	.long	1074208768              @ 0x40072000
.Lcpi_end4:
	.size	__arm_cp.3_2, .Lcpi_end4-__arm_cp.3_2
__arm_cp.3_3:
	.long	1074212864              @ 0x40073000
.Lcpi_end5:
	.size	__arm_cp.3_3, .Lcpi_end5-__arm_cp.3_3
__arm_cp.3_4:
	.long	1074216960              @ 0x40074000
.Lcpi_end6:
	.size	__arm_cp.3_4, .Lcpi_end6-__arm_cp.3_4
__arm_cp.3_5:
	.long	1074221056              @ 0x40075000
.Lcpi_end7:
	.size	__arm_cp.3_5, .Lcpi_end7-__arm_cp.3_5
__arm_cp.3_6:
	.long	1342636032              @ 0x50070000
.Lcpi_end8:
	.size	__arm_cp.3_6, .Lcpi_end8-__arm_cp.3_6
__arm_cp.3_7:
	.long	1342640128              @ 0x50071000
.Lcpi_end9:
	.size	__arm_cp.3_7, .Lcpi_end9-__arm_cp.3_7
__arm_cp.3_8:
	.long	1342644224              @ 0x50072000
.Lcpi_end10:
	.size	__arm_cp.3_8, .Lcpi_end10-__arm_cp.3_8
__arm_cp.3_9:
	.long	1342648320              @ 0x50073000
.Lcpi_end11:
	.size	__arm_cp.3_9, .Lcpi_end11-__arm_cp.3_9
__arm_cp.3_10:
	.long	1342652416              @ 0x50074000
.Lcpi_end12:
	.size	__arm_cp.3_10, .Lcpi_end12-__arm_cp.3_10
__arm_cp.3_11:
	.long	1342656512              @ 0x50075000
.Lcpi_end13:
	.size	__arm_cp.3_11, .Lcpi_end13-__arm_cp.3_11
.Lfunc_end3:
	.size	UART_DisableInt, .Lfunc_end3-UART_DisableInt
	.cfi_endproc
	.cantunwind
	.fnend
                                        @ -- End function
	.section	.text.__NVIC_DisableIRQ,"ax",%progbits
	.p2align	2               @ -- Begin function __NVIC_DisableIRQ
	.type	__NVIC_DisableIRQ,%function
	.code	16                      @ @__NVIC_DisableIRQ
	.thumb_func
__NVIC_DisableIRQ:
.Lfunc_begin4:
	.loc	3 1312 0 is_stmt 1      @ ../../../../../Library/CMSIS/Include\core_armv8mbl.h:1312:0
	.fnstart
	.cfi_startproc
@ %bb.0:
	.pad	#8
	sub	sp, #8
	.cfi_def_cfa_offset 8
	mov	r1, r0
	str	r0, [sp, #4]
.Ltmp20:
	.loc	3 1313 17 prologue_end  @ ../../../../../Library/CMSIS/Include\core_armv8mbl.h:1313:17
	ldr	r0, [sp, #4]
.Ltmp21:
	.loc	3 1313 7 is_stmt 0      @ ../../../../../Library/CMSIS/Include\core_armv8mbl.h:1313:7
	cmp	r0, #0
	str	r1, [sp]                @ 4-byte Spill
	blt	.LBB4_2
	b	.LBB4_1
.LBB4_1:
.Ltmp22:
	.loc	3 1315 93 is_stmt 1     @ ../../../../../Library/CMSIS/Include\core_armv8mbl.h:1315:93
	ldr	r0, [sp, #4]
	.loc	3 1315 99 is_stmt 0     @ ../../../../../Library/CMSIS/Include\core_armv8mbl.h:1315:99
	movs	r1, #31
	mov	r2, r0
	ands	r2, r1
	.loc	3 1315 69               @ ../../../../../Library/CMSIS/Include\core_armv8mbl.h:1315:69
	movs	r1, #1
	lsls	r1, r2
	.loc	3 1315 5                @ ../../../../../Library/CMSIS/Include\core_armv8mbl.h:1315:5
	lsrs	r0, r0, #3
	.loc	3 1315 43               @ ../../../../../Library/CMSIS/Include\core_armv8mbl.h:1315:43
	ldr	r2, __arm_cp.4_0
	ands	r0, r2
	.loc	3 1315 5                @ ../../../../../Library/CMSIS/Include\core_armv8mbl.h:1315:5
	ldr	r2, __arm_cp.4_1
	.loc	3 1315 52               @ ../../../../../Library/CMSIS/Include\core_armv8mbl.h:1315:52
	str	r1, [r0, r2]
	.loc	3 1316 5 is_stmt 1      @ ../../../../../Library/CMSIS/Include\core_armv8mbl.h:1316:5
	dsb	sy
	.loc	3 1317 5                @ ../../../../../Library/CMSIS/Include\core_armv8mbl.h:1317:5
	isb	sy
	.loc	3 1318 3                @ ../../../../../Library/CMSIS/Include\core_armv8mbl.h:1318:3
	b	.LBB4_2
.Ltmp23:
.LBB4_2:
	.loc	3 1319 1                @ ../../../../../Library/CMSIS/Include\core_armv8mbl.h:1319:1
	add	sp, #8
	bx	lr
.Ltmp24:
	.p2align	2
@ %bb.3:
	.loc	3 0 1 is_stmt 0         @ ../../../../../Library/CMSIS/Include\core_armv8mbl.h:0:1
__arm_cp.4_0:
	.long	536870908               @ 0x1ffffffc
.Lcpi_end14:
	.size	__arm_cp.4_0, .Lcpi_end14-__arm_cp.4_0
__arm_cp.4_1:
	.long	3758154112              @ 0xe000e180
.Lcpi_end15:
	.size	__arm_cp.4_1, .Lcpi_end15-__arm_cp.4_1
.Lfunc_end4:
	.size	__NVIC_DisableIRQ, .Lfunc_end4-__NVIC_DisableIRQ
	.cfi_endproc
	.cantunwind
	.fnend
                                        @ -- End function
	.section	.text.UART_EnableFlowCtrl,"ax",%progbits
	.hidden	UART_EnableFlowCtrl     @ -- Begin function UART_EnableFlowCtrl
	.globl	UART_EnableFlowCtrl
	.p2align	1
	.type	UART_EnableFlowCtrl,%function
	.code	16                      @ @UART_EnableFlowCtrl
	.thumb_func
UART_EnableFlowCtrl:
.Lfunc_begin5:
	.loc	4 184 0 is_stmt 1       @ C:/Keil_v5/ARM/PACK/Nuvoton/NuMicro_M2351_BSP/1.0.0/Device/M2351/StdDriver/src/uart.c:184:0
	.fnstart
	.cfi_startproc
@ %bb.0:
	.pad	#8
	sub	sp, #8
	.cfi_def_cfa_offset 8
	mov	r1, r0
	str	r0, [sp, #4]
.Ltmp25:
	.loc	4 186 5 prologue_end    @ C:/Keil_v5/ARM/PACK/Nuvoton/NuMicro_M2351_BSP/1.0.0/Device/M2351/StdDriver/src/uart.c:186:5
	ldr	r0, [sp, #4]
	.loc	4 186 17 is_stmt 0      @ C:/Keil_v5/ARM/PACK/Nuvoton/NuMicro_M2351_BSP/1.0.0/Device/M2351/StdDriver/src/uart.c:186:17
	ldr	r2, [r0, #16]
	movw	r3, #512
	orrs	r2, r3
	str	r2, [r0, #16]
	.loc	4 189 5 is_stmt 1       @ C:/Keil_v5/ARM/PACK/Nuvoton/NuMicro_M2351_BSP/1.0.0/Device/M2351/StdDriver/src/uart.c:189:5
	ldr	r0, [sp, #4]
	.loc	4 189 20 is_stmt 0      @ C:/Keil_v5/ARM/PACK/Nuvoton/NuMicro_M2351_BSP/1.0.0/Device/M2351/StdDriver/src/uart.c:189:20
	ldr	r2, [r0, #20]
	movw	r3, #256
	orrs	r2, r3
	str	r2, [r0, #20]
	.loc	4 192 5 is_stmt 1       @ C:/Keil_v5/ARM/PACK/Nuvoton/NuMicro_M2351_BSP/1.0.0/Device/M2351/StdDriver/src/uart.c:192:5
	ldr	r0, [sp, #4]
	.loc	4 192 17 is_stmt 0      @ C:/Keil_v5/ARM/PACK/Nuvoton/NuMicro_M2351_BSP/1.0.0/Device/M2351/StdDriver/src/uart.c:192:17
	ldr	r2, [r0, #4]
	movw	r3, #12288
	orrs	r2, r3
	str	r2, [r0, #4]
	.loc	4 193 1 is_stmt 1       @ C:/Keil_v5/ARM/PACK/Nuvoton/NuMicro_M2351_BSP/1.0.0/Device/M2351/StdDriver/src/uart.c:193:1
	str	r1, [sp]                @ 4-byte Spill
	add	sp, #8
	bx	lr
.Ltmp26:
.Lfunc_end5:
	.size	UART_EnableFlowCtrl, .Lfunc_end5-UART_EnableFlowCtrl
	.cfi_endproc
	.cantunwind
	.fnend
                                        @ -- End function
	.section	.text.UART_EnableInt,"ax",%progbits
	.hidden	UART_EnableInt          @ -- Begin function UART_EnableInt
	.globl	UART_EnableInt
	.p2align	2
	.type	UART_EnableInt,%function
	.code	16                      @ @UART_EnableInt
	.thumb_func
UART_EnableInt:
.Lfunc_begin6:
	.loc	4 217 0                 @ C:/Keil_v5/ARM/PACK/Nuvoton/NuMicro_M2351_BSP/1.0.0/Device/M2351/StdDriver/src/uart.c:217:0
	.fnstart
	.cfi_startproc
@ %bb.0:
	.save	{r4, lr}
	push	{r4, lr}
	.cfi_def_cfa_offset 8
	.cfi_offset lr, -4
	.cfi_offset r4, -8
	.pad	#24
	sub	sp, #24
	.cfi_def_cfa_offset 32
	mov	r2, r1
	mov	r3, r0
	str	r0, [sp, #20]
	str	r1, [sp, #16]
.Ltmp27:
	.loc	4 220 5 prologue_end    @ C:/Keil_v5/ARM/PACK/Nuvoton/NuMicro_M2351_BSP/1.0.0/Device/M2351/StdDriver/src/uart.c:220:5
	ldr	r0, [sp, #16]
	ldr	r1, [sp, #20]
	ldr	r4, [r1, #4]
	orrs	r4, r0
	str	r4, [r1, #4]
	.loc	4 223 22                @ C:/Keil_v5/ARM/PACK/Nuvoton/NuMicro_M2351_BSP/1.0.0/Device/M2351/StdDriver/src/uart.c:223:22
	ldr	r0, [sp, #20]
	.loc	4 223 5 is_stmt 0       @ C:/Keil_v5/ARM/PACK/Nuvoton/NuMicro_M2351_BSP/1.0.0/Device/M2351/StdDriver/src/uart.c:223:5
	ldr	r1, __arm_cp.6_0
	cmp	r0, r1
	str	r2, [sp, #12]           @ 4-byte Spill
	str	r3, [sp, #8]            @ 4-byte Spill
	str	r0, [sp, #4]            @ 4-byte Spill
	beq	.LBB6_12
	b	.LBB6_1
.LBB6_1:
	.loc	4 0 5                   @ C:/Keil_v5/ARM/PACK/Nuvoton/NuMicro_M2351_BSP/1.0.0/Device/M2351/StdDriver/src/uart.c:0:5
	ldr	r0, __arm_cp.6_1
	.loc	4 223 5                 @ C:/Keil_v5/ARM/PACK/Nuvoton/NuMicro_M2351_BSP/1.0.0/Device/M2351/StdDriver/src/uart.c:223:5
	ldr	r1, [sp, #4]            @ 4-byte Reload
	cmp	r1, r0
	beq	.LBB6_13
	b	.LBB6_2
.LBB6_2:
	.loc	4 0 5                   @ C:/Keil_v5/ARM/PACK/Nuvoton/NuMicro_M2351_BSP/1.0.0/Device/M2351/StdDriver/src/uart.c:0:5
	ldr	r0, __arm_cp.6_2
	.loc	4 223 5                 @ C:/Keil_v5/ARM/PACK/Nuvoton/NuMicro_M2351_BSP/1.0.0/Device/M2351/StdDriver/src/uart.c:223:5
	ldr	r1, [sp, #4]            @ 4-byte Reload
	cmp	r1, r0
	beq	.LBB6_14
	b	.LBB6_3
.LBB6_3:
	.loc	4 0 5                   @ C:/Keil_v5/ARM/PACK/Nuvoton/NuMicro_M2351_BSP/1.0.0/Device/M2351/StdDriver/src/uart.c:0:5
	ldr	r0, __arm_cp.6_3
	.loc	4 223 5                 @ C:/Keil_v5/ARM/PACK/Nuvoton/NuMicro_M2351_BSP/1.0.0/Device/M2351/StdDriver/src/uart.c:223:5
	ldr	r1, [sp, #4]            @ 4-byte Reload
	cmp	r1, r0
	beq	.LBB6_15
	b	.LBB6_4
.LBB6_4:
	.loc	4 0 5                   @ C:/Keil_v5/ARM/PACK/Nuvoton/NuMicro_M2351_BSP/1.0.0/Device/M2351/StdDriver/src/uart.c:0:5
	ldr	r0, __arm_cp.6_4
	.loc	4 223 5                 @ C:/Keil_v5/ARM/PACK/Nuvoton/NuMicro_M2351_BSP/1.0.0/Device/M2351/StdDriver/src/uart.c:223:5
	ldr	r1, [sp, #4]            @ 4-byte Reload
	cmp	r1, r0
	beq	.LBB6_16
	b	.LBB6_5
.LBB6_5:
	.loc	4 0 5                   @ C:/Keil_v5/ARM/PACK/Nuvoton/NuMicro_M2351_BSP/1.0.0/Device/M2351/StdDriver/src/uart.c:0:5
	ldr	r0, __arm_cp.6_5
	.loc	4 223 5                 @ C:/Keil_v5/ARM/PACK/Nuvoton/NuMicro_M2351_BSP/1.0.0/Device/M2351/StdDriver/src/uart.c:223:5
	ldr	r1, [sp, #4]            @ 4-byte Reload
	cmp	r1, r0
	beq	.LBB6_17
	b	.LBB6_6
.LBB6_6:
	.loc	4 0 5                   @ C:/Keil_v5/ARM/PACK/Nuvoton/NuMicro_M2351_BSP/1.0.0/Device/M2351/StdDriver/src/uart.c:0:5
	ldr	r0, __arm_cp.6_6
	.loc	4 223 5                 @ C:/Keil_v5/ARM/PACK/Nuvoton/NuMicro_M2351_BSP/1.0.0/Device/M2351/StdDriver/src/uart.c:223:5
	ldr	r1, [sp, #4]            @ 4-byte Reload
	cmp	r1, r0
	beq	.LBB6_12
	b	.LBB6_7
.LBB6_7:
	.loc	4 0 5                   @ C:/Keil_v5/ARM/PACK/Nuvoton/NuMicro_M2351_BSP/1.0.0/Device/M2351/StdDriver/src/uart.c:0:5
	ldr	r0, __arm_cp.6_7
	.loc	4 223 5                 @ C:/Keil_v5/ARM/PACK/Nuvoton/NuMicro_M2351_BSP/1.0.0/Device/M2351/StdDriver/src/uart.c:223:5
	ldr	r1, [sp, #4]            @ 4-byte Reload
	cmp	r1, r0
	beq	.LBB6_13
	b	.LBB6_8
.LBB6_8:
	.loc	4 0 5                   @ C:/Keil_v5/ARM/PACK/Nuvoton/NuMicro_M2351_BSP/1.0.0/Device/M2351/StdDriver/src/uart.c:0:5
	ldr	r0, __arm_cp.6_8
	.loc	4 223 5                 @ C:/Keil_v5/ARM/PACK/Nuvoton/NuMicro_M2351_BSP/1.0.0/Device/M2351/StdDriver/src/uart.c:223:5
	ldr	r1, [sp, #4]            @ 4-byte Reload
	cmp	r1, r0
	beq	.LBB6_14
	b	.LBB6_9
.LBB6_9:
	.loc	4 0 5                   @ C:/Keil_v5/ARM/PACK/Nuvoton/NuMicro_M2351_BSP/1.0.0/Device/M2351/StdDriver/src/uart.c:0:5
	ldr	r0, __arm_cp.6_9
	.loc	4 223 5                 @ C:/Keil_v5/ARM/PACK/Nuvoton/NuMicro_M2351_BSP/1.0.0/Device/M2351/StdDriver/src/uart.c:223:5
	ldr	r1, [sp, #4]            @ 4-byte Reload
	cmp	r1, r0
	beq	.LBB6_15
	b	.LBB6_10
.LBB6_10:
	.loc	4 0 5                   @ C:/Keil_v5/ARM/PACK/Nuvoton/NuMicro_M2351_BSP/1.0.0/Device/M2351/StdDriver/src/uart.c:0:5
	ldr	r0, __arm_cp.6_10
	.loc	4 223 5                 @ C:/Keil_v5/ARM/PACK/Nuvoton/NuMicro_M2351_BSP/1.0.0/Device/M2351/StdDriver/src/uart.c:223:5
	ldr	r1, [sp, #4]            @ 4-byte Reload
	cmp	r1, r0
	beq	.LBB6_16
	b	.LBB6_11
.LBB6_11:
	.loc	4 0 5                   @ C:/Keil_v5/ARM/PACK/Nuvoton/NuMicro_M2351_BSP/1.0.0/Device/M2351/StdDriver/src/uart.c:0:5
	ldr	r0, __arm_cp.6_11
	.loc	4 223 5                 @ C:/Keil_v5/ARM/PACK/Nuvoton/NuMicro_M2351_BSP/1.0.0/Device/M2351/StdDriver/src/uart.c:223:5
	ldr	r1, [sp, #4]            @ 4-byte Reload
	cmp	r1, r0
	beq	.LBB6_17
	b	.LBB6_18
.LBB6_12:
.Ltmp28:
	.loc	4 227 13 is_stmt 1      @ C:/Keil_v5/ARM/PACK/Nuvoton/NuMicro_M2351_BSP/1.0.0/Device/M2351/StdDriver/src/uart.c:227:13
	movs	r0, #36
	bl	__NVIC_EnableIRQ
	.loc	4 228 13                @ C:/Keil_v5/ARM/PACK/Nuvoton/NuMicro_M2351_BSP/1.0.0/Device/M2351/StdDriver/src/uart.c:228:13
	b	.LBB6_19
.LBB6_13:
	.loc	4 231 13                @ C:/Keil_v5/ARM/PACK/Nuvoton/NuMicro_M2351_BSP/1.0.0/Device/M2351/StdDriver/src/uart.c:231:13
	movs	r0, #37
	bl	__NVIC_EnableIRQ
	.loc	4 232 13                @ C:/Keil_v5/ARM/PACK/Nuvoton/NuMicro_M2351_BSP/1.0.0/Device/M2351/StdDriver/src/uart.c:232:13
	b	.LBB6_19
.LBB6_14:
	.loc	4 235 13                @ C:/Keil_v5/ARM/PACK/Nuvoton/NuMicro_M2351_BSP/1.0.0/Device/M2351/StdDriver/src/uart.c:235:13
	movs	r0, #48
	bl	__NVIC_EnableIRQ
	.loc	4 236 13                @ C:/Keil_v5/ARM/PACK/Nuvoton/NuMicro_M2351_BSP/1.0.0/Device/M2351/StdDriver/src/uart.c:236:13
	b	.LBB6_19
.LBB6_15:
	.loc	4 239 13                @ C:/Keil_v5/ARM/PACK/Nuvoton/NuMicro_M2351_BSP/1.0.0/Device/M2351/StdDriver/src/uart.c:239:13
	movs	r0, #49
	bl	__NVIC_EnableIRQ
	.loc	4 240 13                @ C:/Keil_v5/ARM/PACK/Nuvoton/NuMicro_M2351_BSP/1.0.0/Device/M2351/StdDriver/src/uart.c:240:13
	b	.LBB6_19
.LBB6_16:
	.loc	4 243 13                @ C:/Keil_v5/ARM/PACK/Nuvoton/NuMicro_M2351_BSP/1.0.0/Device/M2351/StdDriver/src/uart.c:243:13
	movs	r0, #74
	bl	__NVIC_EnableIRQ
	.loc	4 244 13                @ C:/Keil_v5/ARM/PACK/Nuvoton/NuMicro_M2351_BSP/1.0.0/Device/M2351/StdDriver/src/uart.c:244:13
	b	.LBB6_19
.LBB6_17:
	.loc	4 247 13                @ C:/Keil_v5/ARM/PACK/Nuvoton/NuMicro_M2351_BSP/1.0.0/Device/M2351/StdDriver/src/uart.c:247:13
	movs	r0, #75
	bl	__NVIC_EnableIRQ
	.loc	4 248 13                @ C:/Keil_v5/ARM/PACK/Nuvoton/NuMicro_M2351_BSP/1.0.0/Device/M2351/StdDriver/src/uart.c:248:13
	b	.LBB6_19
.LBB6_18:
	.loc	4 250 13                @ C:/Keil_v5/ARM/PACK/Nuvoton/NuMicro_M2351_BSP/1.0.0/Device/M2351/StdDriver/src/uart.c:250:13
	b	.LBB6_19
.Ltmp29:
.LBB6_19:
	.loc	4 253 1                 @ C:/Keil_v5/ARM/PACK/Nuvoton/NuMicro_M2351_BSP/1.0.0/Device/M2351/StdDriver/src/uart.c:253:1
	add	sp, #24
	pop	{r4, pc}
.Ltmp30:
	.p2align	2
@ %bb.20:
	.loc	4 0 1 is_stmt 0         @ C:/Keil_v5/ARM/PACK/Nuvoton/NuMicro_M2351_BSP/1.0.0/Device/M2351/StdDriver/src/uart.c:0:1
__arm_cp.6_0:
	.long	1074200576              @ 0x40070000
.Lcpi_end16:
	.size	__arm_cp.6_0, .Lcpi_end16-__arm_cp.6_0
__arm_cp.6_1:
	.long	1074204672              @ 0x40071000
.Lcpi_end17:
	.size	__arm_cp.6_1, .Lcpi_end17-__arm_cp.6_1
__arm_cp.6_2:
	.long	1074208768              @ 0x40072000
.Lcpi_end18:
	.size	__arm_cp.6_2, .Lcpi_end18-__arm_cp.6_2
__arm_cp.6_3:
	.long	1074212864              @ 0x40073000
.Lcpi_end19:
	.size	__arm_cp.6_3, .Lcpi_end19-__arm_cp.6_3
__arm_cp.6_4:
	.long	1074216960              @ 0x40074000
.Lcpi_end20:
	.size	__arm_cp.6_4, .Lcpi_end20-__arm_cp.6_4
__arm_cp.6_5:
	.long	1074221056              @ 0x40075000
.Lcpi_end21:
	.size	__arm_cp.6_5, .Lcpi_end21-__arm_cp.6_5
__arm_cp.6_6:
	.long	1342636032              @ 0x50070000
.Lcpi_end22:
	.size	__arm_cp.6_6, .Lcpi_end22-__arm_cp.6_6
__arm_cp.6_7:
	.long	1342640128              @ 0x50071000
.Lcpi_end23:
	.size	__arm_cp.6_7, .Lcpi_end23-__arm_cp.6_7
__arm_cp.6_8:
	.long	1342644224              @ 0x50072000
.Lcpi_end24:
	.size	__arm_cp.6_8, .Lcpi_end24-__arm_cp.6_8
__arm_cp.6_9:
	.long	1342648320              @ 0x50073000
.Lcpi_end25:
	.size	__arm_cp.6_9, .Lcpi_end25-__arm_cp.6_9
__arm_cp.6_10:
	.long	1342652416              @ 0x50074000
.Lcpi_end26:
	.size	__arm_cp.6_10, .Lcpi_end26-__arm_cp.6_10
__arm_cp.6_11:
	.long	1342656512              @ 0x50075000
.Lcpi_end27:
	.size	__arm_cp.6_11, .Lcpi_end27-__arm_cp.6_11
.Lfunc_end6:
	.size	UART_EnableInt, .Lfunc_end6-UART_EnableInt
	.cfi_endproc
	.cantunwind
	.fnend
                                        @ -- End function
	.section	.text.__NVIC_EnableIRQ,"ax",%progbits
	.p2align	2               @ -- Begin function __NVIC_EnableIRQ
	.type	__NVIC_EnableIRQ,%function
	.code	16                      @ @__NVIC_EnableIRQ
	.thumb_func
__NVIC_EnableIRQ:
.Lfunc_begin7:
	.loc	3 1276 0 is_stmt 1      @ ../../../../../Library/CMSIS/Include\core_armv8mbl.h:1276:0
	.fnstart
	.cfi_startproc
@ %bb.0:
	.pad	#8
	sub	sp, #8
	.cfi_def_cfa_offset 8
	mov	r1, r0
	str	r0, [sp, #4]
.Ltmp31:
	.loc	3 1277 17 prologue_end  @ ../../../../../Library/CMSIS/Include\core_armv8mbl.h:1277:17
	ldr	r0, [sp, #4]
.Ltmp32:
	.loc	3 1277 7 is_stmt 0      @ ../../../../../Library/CMSIS/Include\core_armv8mbl.h:1277:7
	cmp	r0, #0
	str	r1, [sp]                @ 4-byte Spill
	blt	.LBB7_2
	b	.LBB7_1
.LBB7_1:
.Ltmp33:
	.loc	3 1279 93 is_stmt 1     @ ../../../../../Library/CMSIS/Include\core_armv8mbl.h:1279:93
	ldr	r0, [sp, #4]
	.loc	3 1279 99 is_stmt 0     @ ../../../../../Library/CMSIS/Include\core_armv8mbl.h:1279:99
	movs	r1, #31
	mov	r2, r0
	ands	r2, r1
	.loc	3 1279 69               @ ../../../../../Library/CMSIS/Include\core_armv8mbl.h:1279:69
	movs	r1, #1
	lsls	r1, r2
	.loc	3 1279 5                @ ../../../../../Library/CMSIS/Include\core_armv8mbl.h:1279:5
	lsrs	r0, r0, #3
	.loc	3 1279 43               @ ../../../../../Library/CMSIS/Include\core_armv8mbl.h:1279:43
	ldr	r2, __arm_cp.7_0
	ands	r0, r2
	.loc	3 1279 5                @ ../../../../../Library/CMSIS/Include\core_armv8mbl.h:1279:5
	ldr	r2, __arm_cp.7_1
	.loc	3 1279 52               @ ../../../../../Library/CMSIS/Include\core_armv8mbl.h:1279:52
	str	r1, [r0, r2]
	.loc	3 1280 3 is_stmt 1      @ ../../../../../Library/CMSIS/Include\core_armv8mbl.h:1280:3
	b	.LBB7_2
.Ltmp34:
.LBB7_2:
	.loc	3 1281 1                @ ../../../../../Library/CMSIS/Include\core_armv8mbl.h:1281:1
	add	sp, #8
	bx	lr
.Ltmp35:
	.p2align	2
@ %bb.3:
	.loc	3 0 1 is_stmt 0         @ ../../../../../Library/CMSIS/Include\core_armv8mbl.h:0:1
__arm_cp.7_0:
	.long	536870908               @ 0x1ffffffc
.Lcpi_end28:
	.size	__arm_cp.7_0, .Lcpi_end28-__arm_cp.7_0
__arm_cp.7_1:
	.long	3758153984              @ 0xe000e100
.Lcpi_end29:
	.size	__arm_cp.7_1, .Lcpi_end29-__arm_cp.7_1
.Lfunc_end7:
	.size	__NVIC_EnableIRQ, .Lfunc_end7-__NVIC_EnableIRQ
	.cfi_endproc
	.cantunwind
	.fnend
                                        @ -- End function
	.section	.text.UART_Open,"ax",%progbits
	.hidden	UART_Open               @ -- Begin function UART_Open
	.globl	UART_Open
	.p2align	2
	.type	UART_Open,%function
	.code	16                      @ @UART_Open
	.thumb_func
UART_Open:
.Lfunc_begin8:
	.loc	4 267 0 is_stmt 1       @ C:/Keil_v5/ARM/PACK/Nuvoton/NuMicro_M2351_BSP/1.0.0/Device/M2351/StdDriver/src/uart.c:267:0
	.fnstart
	.cfi_startproc
@ %bb.0:
	.save	{r7, lr}
	push	{r7, lr}
	.cfi_def_cfa_offset 8
	.cfi_offset lr, -4
	.cfi_offset r7, -8
	.pad	#72
	sub	sp, #72
	.cfi_def_cfa_offset 80
	mov	r2, r1
	mov	r3, r0
	str	r0, [sp, #68]
	str	r1, [sp, #64]
.Ltmp36:
	.loc	4 269 14 prologue_end   @ C:/Keil_v5/ARM/PACK/Nuvoton/NuMicro_M2351_BSP/1.0.0/Device/M2351/StdDriver/src/uart.c:269:14
	ldr	r0, __arm_cp.8_0
	ldr	r1, [r0, #12]
	str	r1, [sp, #52]
	ldr	r1, [r0, #8]
	str	r1, [sp, #48]
	ldr	r1, [r0, #4]
	str	r1, [sp, #44]
	ldr	r0, [r0]
	str	r0, [sp, #40]
	movs	r0, #0
	.loc	4 270 14                @ C:/Keil_v5/ARM/PACK/Nuvoton/NuMicro_M2351_BSP/1.0.0/Device/M2351/StdDriver/src/uart.c:270:14
	str	r0, [sp, #36]
	.loc	4 273 22                @ C:/Keil_v5/ARM/PACK/Nuvoton/NuMicro_M2351_BSP/1.0.0/Device/M2351/StdDriver/src/uart.c:273:22
	ldr	r0, [sp, #68]
	.loc	4 273 5 is_stmt 0       @ C:/Keil_v5/ARM/PACK/Nuvoton/NuMicro_M2351_BSP/1.0.0/Device/M2351/StdDriver/src/uart.c:273:5
	ldr	r1, __arm_cp.8_1
	cmp	r0, r1
	str	r2, [sp, #32]           @ 4-byte Spill
	str	r3, [sp, #28]           @ 4-byte Spill
	str	r0, [sp, #24]           @ 4-byte Spill
	beq	.LBB8_12
	b	.LBB8_1
.LBB8_1:
	.loc	4 0 5                   @ C:/Keil_v5/ARM/PACK/Nuvoton/NuMicro_M2351_BSP/1.0.0/Device/M2351/StdDriver/src/uart.c:0:5
	ldr	r0, __arm_cp.8_2
	.loc	4 273 5                 @ C:/Keil_v5/ARM/PACK/Nuvoton/NuMicro_M2351_BSP/1.0.0/Device/M2351/StdDriver/src/uart.c:273:5
	ldr	r1, [sp, #24]           @ 4-byte Reload
	cmp	r1, r0
	beq	.LBB8_13
	b	.LBB8_2
.LBB8_2:
	.loc	4 0 5                   @ C:/Keil_v5/ARM/PACK/Nuvoton/NuMicro_M2351_BSP/1.0.0/Device/M2351/StdDriver/src/uart.c:0:5
	ldr	r0, __arm_cp.8_3
	.loc	4 273 5                 @ C:/Keil_v5/ARM/PACK/Nuvoton/NuMicro_M2351_BSP/1.0.0/Device/M2351/StdDriver/src/uart.c:273:5
	ldr	r1, [sp, #24]           @ 4-byte Reload
	cmp	r1, r0
	beq	.LBB8_14
	b	.LBB8_3
.LBB8_3:
	.loc	4 0 5                   @ C:/Keil_v5/ARM/PACK/Nuvoton/NuMicro_M2351_BSP/1.0.0/Device/M2351/StdDriver/src/uart.c:0:5
	ldr	r0, __arm_cp.8_4
	.loc	4 273 5                 @ C:/Keil_v5/ARM/PACK/Nuvoton/NuMicro_M2351_BSP/1.0.0/Device/M2351/StdDriver/src/uart.c:273:5
	ldr	r1, [sp, #24]           @ 4-byte Reload
	cmp	r1, r0
	beq	.LBB8_15
	b	.LBB8_4
.LBB8_4:
	.loc	4 0 5                   @ C:/Keil_v5/ARM/PACK/Nuvoton/NuMicro_M2351_BSP/1.0.0/Device/M2351/StdDriver/src/uart.c:0:5
	ldr	r0, __arm_cp.8_5
	.loc	4 273 5                 @ C:/Keil_v5/ARM/PACK/Nuvoton/NuMicro_M2351_BSP/1.0.0/Device/M2351/StdDriver/src/uart.c:273:5
	ldr	r1, [sp, #24]           @ 4-byte Reload
	cmp	r1, r0
	beq	.LBB8_16
	b	.LBB8_5
.LBB8_5:
	.loc	4 0 5                   @ C:/Keil_v5/ARM/PACK/Nuvoton/NuMicro_M2351_BSP/1.0.0/Device/M2351/StdDriver/src/uart.c:0:5
	ldr	r0, __arm_cp.8_6
	.loc	4 273 5                 @ C:/Keil_v5/ARM/PACK/Nuvoton/NuMicro_M2351_BSP/1.0.0/Device/M2351/StdDriver/src/uart.c:273:5
	ldr	r1, [sp, #24]           @ 4-byte Reload
	cmp	r1, r0
	beq	.LBB8_17
	b	.LBB8_6
.LBB8_6:
	.loc	4 0 5                   @ C:/Keil_v5/ARM/PACK/Nuvoton/NuMicro_M2351_BSP/1.0.0/Device/M2351/StdDriver/src/uart.c:0:5
	ldr	r0, __arm_cp.8_7
	.loc	4 273 5                 @ C:/Keil_v5/ARM/PACK/Nuvoton/NuMicro_M2351_BSP/1.0.0/Device/M2351/StdDriver/src/uart.c:273:5
	ldr	r1, [sp, #24]           @ 4-byte Reload
	cmp	r1, r0
	beq	.LBB8_12
	b	.LBB8_7
.LBB8_7:
	.loc	4 0 5                   @ C:/Keil_v5/ARM/PACK/Nuvoton/NuMicro_M2351_BSP/1.0.0/Device/M2351/StdDriver/src/uart.c:0:5
	ldr	r0, __arm_cp.8_8
	.loc	4 273 5                 @ C:/Keil_v5/ARM/PACK/Nuvoton/NuMicro_M2351_BSP/1.0.0/Device/M2351/StdDriver/src/uart.c:273:5
	ldr	r1, [sp, #24]           @ 4-byte Reload
	cmp	r1, r0
	beq	.LBB8_13
	b	.LBB8_8
.LBB8_8:
	.loc	4 0 5                   @ C:/Keil_v5/ARM/PACK/Nuvoton/NuMicro_M2351_BSP/1.0.0/Device/M2351/StdDriver/src/uart.c:0:5
	ldr	r0, __arm_cp.8_9
	.loc	4 273 5                 @ C:/Keil_v5/ARM/PACK/Nuvoton/NuMicro_M2351_BSP/1.0.0/Device/M2351/StdDriver/src/uart.c:273:5
	ldr	r1, [sp, #24]           @ 4-byte Reload
	cmp	r1, r0
	beq	.LBB8_14
	b	.LBB8_9
.LBB8_9:
	.loc	4 0 5                   @ C:/Keil_v5/ARM/PACK/Nuvoton/NuMicro_M2351_BSP/1.0.0/Device/M2351/StdDriver/src/uart.c:0:5
	ldr	r0, __arm_cp.8_10
	.loc	4 273 5                 @ C:/Keil_v5/ARM/PACK/Nuvoton/NuMicro_M2351_BSP/1.0.0/Device/M2351/StdDriver/src/uart.c:273:5
	ldr	r1, [sp, #24]           @ 4-byte Reload
	cmp	r1, r0
	beq	.LBB8_15
	b	.LBB8_10
.LBB8_10:
	.loc	4 0 5                   @ C:/Keil_v5/ARM/PACK/Nuvoton/NuMicro_M2351_BSP/1.0.0/Device/M2351/StdDriver/src/uart.c:0:5
	ldr	r0, __arm_cp.8_11
	.loc	4 273 5                 @ C:/Keil_v5/ARM/PACK/Nuvoton/NuMicro_M2351_BSP/1.0.0/Device/M2351/StdDriver/src/uart.c:273:5
	ldr	r1, [sp, #24]           @ 4-byte Reload
	cmp	r1, r0
	beq	.LBB8_16
	b	.LBB8_11
.LBB8_11:
	.loc	4 0 5                   @ C:/Keil_v5/ARM/PACK/Nuvoton/NuMicro_M2351_BSP/1.0.0/Device/M2351/StdDriver/src/uart.c:0:5
	ldr	r0, __arm_cp.8_12
	.loc	4 273 5                 @ C:/Keil_v5/ARM/PACK/Nuvoton/NuMicro_M2351_BSP/1.0.0/Device/M2351/StdDriver/src/uart.c:273:5
	ldr	r1, [sp, #24]           @ 4-byte Reload
	cmp	r1, r0
	beq	.LBB8_17
	b	.LBB8_18
.LBB8_12:
.Ltmp37:
	.loc	4 277 32 is_stmt 1      @ C:/Keil_v5/ARM/PACK/Nuvoton/NuMicro_M2351_BSP/1.0.0/Device/M2351/StdDriver/src/uart.c:277:32
	ldr	r0, __arm_cp.8_18
	str	r0, [sp, #20]           @ 4-byte Spill
	bl	CLK_GetModuleClockSource
	.loc	4 277 30 is_stmt 0      @ C:/Keil_v5/ARM/PACK/Nuvoton/NuMicro_M2351_BSP/1.0.0/Device/M2351/StdDriver/src/uart.c:277:30
	str	r0, [sp, #60]
	.loc	4 278 32 is_stmt 1      @ C:/Keil_v5/ARM/PACK/Nuvoton/NuMicro_M2351_BSP/1.0.0/Device/M2351/StdDriver/src/uart.c:278:32
	ldr	r0, [sp, #20]           @ 4-byte Reload
	bl	CLK_GetModuleClockDivider
	.loc	4 278 30 is_stmt 0      @ C:/Keil_v5/ARM/PACK/Nuvoton/NuMicro_M2351_BSP/1.0.0/Device/M2351/StdDriver/src/uart.c:278:30
	str	r0, [sp, #56]
	.loc	4 279 13 is_stmt 1      @ C:/Keil_v5/ARM/PACK/Nuvoton/NuMicro_M2351_BSP/1.0.0/Device/M2351/StdDriver/src/uart.c:279:13
	b	.LBB8_19
.LBB8_13:
	.loc	4 282 32                @ C:/Keil_v5/ARM/PACK/Nuvoton/NuMicro_M2351_BSP/1.0.0/Device/M2351/StdDriver/src/uart.c:282:32
	ldr	r0, __arm_cp.8_17
	str	r0, [sp, #16]           @ 4-byte Spill
	bl	CLK_GetModuleClockSource
	.loc	4 282 30 is_stmt 0      @ C:/Keil_v5/ARM/PACK/Nuvoton/NuMicro_M2351_BSP/1.0.0/Device/M2351/StdDriver/src/uart.c:282:30
	str	r0, [sp, #60]
	.loc	4 283 32 is_stmt 1      @ C:/Keil_v5/ARM/PACK/Nuvoton/NuMicro_M2351_BSP/1.0.0/Device/M2351/StdDriver/src/uart.c:283:32
	ldr	r0, [sp, #16]           @ 4-byte Reload
	bl	CLK_GetModuleClockDivider
	.loc	4 283 30 is_stmt 0      @ C:/Keil_v5/ARM/PACK/Nuvoton/NuMicro_M2351_BSP/1.0.0/Device/M2351/StdDriver/src/uart.c:283:30
	str	r0, [sp, #56]
	.loc	4 284 13 is_stmt 1      @ C:/Keil_v5/ARM/PACK/Nuvoton/NuMicro_M2351_BSP/1.0.0/Device/M2351/StdDriver/src/uart.c:284:13
	b	.LBB8_19
.LBB8_14:
	.loc	4 287 32                @ C:/Keil_v5/ARM/PACK/Nuvoton/NuMicro_M2351_BSP/1.0.0/Device/M2351/StdDriver/src/uart.c:287:32
	ldr	r0, __arm_cp.8_16
	str	r0, [sp, #12]           @ 4-byte Spill
	bl	CLK_GetModuleClockSource
	.loc	4 287 30 is_stmt 0      @ C:/Keil_v5/ARM/PACK/Nuvoton/NuMicro_M2351_BSP/1.0.0/Device/M2351/StdDriver/src/uart.c:287:30
	str	r0, [sp, #60]
	.loc	4 288 32 is_stmt 1      @ C:/Keil_v5/ARM/PACK/Nuvoton/NuMicro_M2351_BSP/1.0.0/Device/M2351/StdDriver/src/uart.c:288:32
	ldr	r0, [sp, #12]           @ 4-byte Reload
	bl	CLK_GetModuleClockDivider
	.loc	4 288 30 is_stmt 0      @ C:/Keil_v5/ARM/PACK/Nuvoton/NuMicro_M2351_BSP/1.0.0/Device/M2351/StdDriver/src/uart.c:288:30
	str	r0, [sp, #56]
	.loc	4 289 13 is_stmt 1      @ C:/Keil_v5/ARM/PACK/Nuvoton/NuMicro_M2351_BSP/1.0.0/Device/M2351/StdDriver/src/uart.c:289:13
	b	.LBB8_19
.LBB8_15:
	.loc	4 292 32                @ C:/Keil_v5/ARM/PACK/Nuvoton/NuMicro_M2351_BSP/1.0.0/Device/M2351/StdDriver/src/uart.c:292:32
	ldr	r0, __arm_cp.8_15
	str	r0, [sp, #8]            @ 4-byte Spill
	bl	CLK_GetModuleClockSource
	.loc	4 292 30 is_stmt 0      @ C:/Keil_v5/ARM/PACK/Nuvoton/NuMicro_M2351_BSP/1.0.0/Device/M2351/StdDriver/src/uart.c:292:30
	str	r0, [sp, #60]
	.loc	4 293 32 is_stmt 1      @ C:/Keil_v5/ARM/PACK/Nuvoton/NuMicro_M2351_BSP/1.0.0/Device/M2351/StdDriver/src/uart.c:293:32
	ldr	r0, [sp, #8]            @ 4-byte Reload
	bl	CLK_GetModuleClockDivider
	.loc	4 293 30 is_stmt 0      @ C:/Keil_v5/ARM/PACK/Nuvoton/NuMicro_M2351_BSP/1.0.0/Device/M2351/StdDriver/src/uart.c:293:30
	str	r0, [sp, #56]
	.loc	4 294 13 is_stmt 1      @ C:/Keil_v5/ARM/PACK/Nuvoton/NuMicro_M2351_BSP/1.0.0/Device/M2351/StdDriver/src/uart.c:294:13
	b	.LBB8_19
.LBB8_16:
	.loc	4 297 32                @ C:/Keil_v5/ARM/PACK/Nuvoton/NuMicro_M2351_BSP/1.0.0/Device/M2351/StdDriver/src/uart.c:297:32
	ldr	r0, __arm_cp.8_14
	str	r0, [sp, #4]            @ 4-byte Spill
	bl	CLK_GetModuleClockSource
	.loc	4 297 30 is_stmt 0      @ C:/Keil_v5/ARM/PACK/Nuvoton/NuMicro_M2351_BSP/1.0.0/Device/M2351/StdDriver/src/uart.c:297:30
	str	r0, [sp, #60]
	.loc	4 298 32 is_stmt 1      @ C:/Keil_v5/ARM/PACK/Nuvoton/NuMicro_M2351_BSP/1.0.0/Device/M2351/StdDriver/src/uart.c:298:32
	ldr	r0, [sp, #4]            @ 4-byte Reload
	bl	CLK_GetModuleClockDivider
	.loc	4 298 30 is_stmt 0      @ C:/Keil_v5/ARM/PACK/Nuvoton/NuMicro_M2351_BSP/1.0.0/Device/M2351/StdDriver/src/uart.c:298:30
	str	r0, [sp, #56]
	.loc	4 299 13 is_stmt 1      @ C:/Keil_v5/ARM/PACK/Nuvoton/NuMicro_M2351_BSP/1.0.0/Device/M2351/StdDriver/src/uart.c:299:13
	b	.LBB8_19
.LBB8_17:
	.loc	4 302 32                @ C:/Keil_v5/ARM/PACK/Nuvoton/NuMicro_M2351_BSP/1.0.0/Device/M2351/StdDriver/src/uart.c:302:32
	ldr	r0, __arm_cp.8_13
	str	r0, [sp]                @ 4-byte Spill
	bl	CLK_GetModuleClockSource
	.loc	4 302 30 is_stmt 0      @ C:/Keil_v5/ARM/PACK/Nuvoton/NuMicro_M2351_BSP/1.0.0/Device/M2351/StdDriver/src/uart.c:302:30
	str	r0, [sp, #60]
	.loc	4 303 32 is_stmt 1      @ C:/Keil_v5/ARM/PACK/Nuvoton/NuMicro_M2351_BSP/1.0.0/Device/M2351/StdDriver/src/uart.c:303:32
	ldr	r0, [sp]                @ 4-byte Reload
	bl	CLK_GetModuleClockDivider
	.loc	4 303 30 is_stmt 0      @ C:/Keil_v5/ARM/PACK/Nuvoton/NuMicro_M2351_BSP/1.0.0/Device/M2351/StdDriver/src/uart.c:303:30
	str	r0, [sp, #56]
	.loc	4 304 13 is_stmt 1      @ C:/Keil_v5/ARM/PACK/Nuvoton/NuMicro_M2351_BSP/1.0.0/Device/M2351/StdDriver/src/uart.c:304:13
	b	.LBB8_19
.LBB8_18:
	.loc	4 306 13                @ C:/Keil_v5/ARM/PACK/Nuvoton/NuMicro_M2351_BSP/1.0.0/Device/M2351/StdDriver/src/uart.c:306:13
	b	.LBB8_19
.Ltmp38:
.LBB8_19:
	.loc	4 310 5                 @ C:/Keil_v5/ARM/PACK/Nuvoton/NuMicro_M2351_BSP/1.0.0/Device/M2351/StdDriver/src/uart.c:310:5
	ldr	r0, [sp, #68]
	movs	r1, #0
	.loc	4 310 19 is_stmt 0      @ C:/Keil_v5/ARM/PACK/Nuvoton/NuMicro_M2351_BSP/1.0.0/Device/M2351/StdDriver/src/uart.c:310:19
	str	r1, [r0, #48]
	.loc	4 313 5 is_stmt 1       @ C:/Keil_v5/ARM/PACK/Nuvoton/NuMicro_M2351_BSP/1.0.0/Device/M2351/StdDriver/src/uart.c:313:5
	ldr	r0, [sp, #68]
	.loc	4 313 16 is_stmt 0      @ C:/Keil_v5/ARM/PACK/Nuvoton/NuMicro_M2351_BSP/1.0.0/Device/M2351/StdDriver/src/uart.c:313:16
	movs	r1, #3
	str	r1, [r0, #12]
	.loc	4 316 5 is_stmt 1       @ C:/Keil_v5/ARM/PACK/Nuvoton/NuMicro_M2351_BSP/1.0.0/Device/M2351/StdDriver/src/uart.c:316:5
	ldr	r0, [sp, #68]
	.loc	4 316 16 is_stmt 0      @ C:/Keil_v5/ARM/PACK/Nuvoton/NuMicro_M2351_BSP/1.0.0/Device/M2351/StdDriver/src/uart.c:316:16
	ldr	r1, [r0, #8]
	ldr	r2, __arm_cp.8_19
	ands	r1, r2
	str	r1, [r0, #8]
.Ltmp39:
	.loc	4 319 8 is_stmt 1       @ C:/Keil_v5/ARM/PACK/Nuvoton/NuMicro_M2351_BSP/1.0.0/Device/M2351/StdDriver/src/uart.c:319:8
	ldr	r0, [sp, #60]
.Ltmp40:
	.loc	4 319 8 is_stmt 0       @ C:/Keil_v5/ARM/PACK/Nuvoton/NuMicro_M2351_BSP/1.0.0/Device/M2351/StdDriver/src/uart.c:319:8
	cmp	r0, #1
	bne	.LBB8_21
	b	.LBB8_20
.LBB8_20:
.Ltmp41:
	.loc	4 321 40 is_stmt 1      @ C:/Keil_v5/ARM/PACK/Nuvoton/NuMicro_M2351_BSP/1.0.0/Device/M2351/StdDriver/src/uart.c:321:40
	bl	CLK_GetPLLClockFreq
	.loc	4 321 20 is_stmt 0      @ C:/Keil_v5/ARM/PACK/Nuvoton/NuMicro_M2351_BSP/1.0.0/Device/M2351/StdDriver/src/uart.c:321:20
	ldr	r1, [sp, #60]
	.loc	4 321 9                 @ C:/Keil_v5/ARM/PACK/Nuvoton/NuMicro_M2351_BSP/1.0.0/Device/M2351/StdDriver/src/uart.c:321:9
	lsls	r1, r1, #2
	add	r2, sp, #40
	.loc	4 321 38                @ C:/Keil_v5/ARM/PACK/Nuvoton/NuMicro_M2351_BSP/1.0.0/Device/M2351/StdDriver/src/uart.c:321:38
	str	r0, [r2, r1]
	.loc	4 322 5 is_stmt 1       @ C:/Keil_v5/ARM/PACK/Nuvoton/NuMicro_M2351_BSP/1.0.0/Device/M2351/StdDriver/src/uart.c:322:5
	b	.LBB8_21
.Ltmp42:
.LBB8_21:
	.loc	4 325 8                 @ C:/Keil_v5/ARM/PACK/Nuvoton/NuMicro_M2351_BSP/1.0.0/Device/M2351/StdDriver/src/uart.c:325:8
	ldr	r0, [sp, #64]
.Ltmp43:
	.loc	4 325 8 is_stmt 0       @ C:/Keil_v5/ARM/PACK/Nuvoton/NuMicro_M2351_BSP/1.0.0/Device/M2351/StdDriver/src/uart.c:325:8
	cmp	r0, #0
	beq	.LBB8_26
	b	.LBB8_22
.LBB8_22:
.Ltmp44:
	.loc	4 327 22 is_stmt 1      @ C:/Keil_v5/ARM/PACK/Nuvoton/NuMicro_M2351_BSP/1.0.0/Device/M2351/StdDriver/src/uart.c:327:22
	ldr	r0, [sp, #60]
	lsls	r0, r0, #2
	add	r1, sp, #40
	ldr	r0, [r1, r0]
	ldr	r1, [sp, #56]
	adds	r1, r1, #1
	udiv	r0, r0, r1
	ldr	r1, [sp, #64]
	lsrs	r2, r1, #1
	adds	r0, r0, r2
	udiv	r0, r0, r1
	subs	r0, r0, #2
	.loc	4 327 20 is_stmt 0      @ C:/Keil_v5/ARM/PACK/Nuvoton/NuMicro_M2351_BSP/1.0.0/Device/M2351/StdDriver/src/uart.c:327:20
	str	r0, [sp, #36]
	add	r0, sp, #36
.Ltmp45:
	.loc	4 329 12 is_stmt 1      @ C:/Keil_v5/ARM/PACK/Nuvoton/NuMicro_M2351_BSP/1.0.0/Device/M2351/StdDriver/src/uart.c:329:12
	ldrh	r0, [r0, #2]
.Ltmp46:
	.loc	4 329 12 is_stmt 0      @ C:/Keil_v5/ARM/PACK/Nuvoton/NuMicro_M2351_BSP/1.0.0/Device/M2351/StdDriver/src/uart.c:329:12
	cmp	r0, #0
	beq	.LBB8_24
	b	.LBB8_23
.LBB8_23:
.Ltmp47:
	.loc	4 331 45 is_stmt 1      @ C:/Keil_v5/ARM/PACK/Nuvoton/NuMicro_M2351_BSP/1.0.0/Device/M2351/StdDriver/src/uart.c:331:45
	ldr	r0, [sp, #60]
	lsls	r0, r0, #2
	add	r1, sp, #40
	ldr	r0, [r1, r0]
	ldr	r1, [sp, #56]
	adds	r1, r1, #1
	udiv	r0, r0, r1
	ldr	r1, [sp, #64]
	lsls	r2, r1, #3
	adds	r0, r0, r2
	udiv	r0, r0, r1
	lsrs	r0, r0, #4
	subs	r0, r0, #2
	.loc	4 331 13 is_stmt 0      @ C:/Keil_v5/ARM/PACK/Nuvoton/NuMicro_M2351_BSP/1.0.0/Device/M2351/StdDriver/src/uart.c:331:13
	ldr	r1, [sp, #68]
	.loc	4 331 24                @ C:/Keil_v5/ARM/PACK/Nuvoton/NuMicro_M2351_BSP/1.0.0/Device/M2351/StdDriver/src/uart.c:331:24
	str	r0, [r1, #36]
	.loc	4 332 9 is_stmt 1       @ C:/Keil_v5/ARM/PACK/Nuvoton/NuMicro_M2351_BSP/1.0.0/Device/M2351/StdDriver/src/uart.c:332:9
	b	.LBB8_25
.Ltmp48:
.LBB8_24:
	.loc	4 335 45                @ C:/Keil_v5/ARM/PACK/Nuvoton/NuMicro_M2351_BSP/1.0.0/Device/M2351/StdDriver/src/uart.c:335:45
	ldr	r0, [sp, #36]
	.loc	4 335 43 is_stmt 0      @ C:/Keil_v5/ARM/PACK/Nuvoton/NuMicro_M2351_BSP/1.0.0/Device/M2351/StdDriver/src/uart.c:335:43
	movs	r1, #3
	lsls	r1, r1, #28
	orrs	r0, r1
	.loc	4 335 13                @ C:/Keil_v5/ARM/PACK/Nuvoton/NuMicro_M2351_BSP/1.0.0/Device/M2351/StdDriver/src/uart.c:335:13
	ldr	r1, [sp, #68]
	.loc	4 335 24                @ C:/Keil_v5/ARM/PACK/Nuvoton/NuMicro_M2351_BSP/1.0.0/Device/M2351/StdDriver/src/uart.c:335:24
	str	r0, [r1, #36]
	b	.LBB8_25
.Ltmp49:
.LBB8_25:
	.loc	4 337 5 is_stmt 1       @ C:/Keil_v5/ARM/PACK/Nuvoton/NuMicro_M2351_BSP/1.0.0/Device/M2351/StdDriver/src/uart.c:337:5
	b	.LBB8_26
.Ltmp50:
.LBB8_26:
	.loc	4 338 1                 @ C:/Keil_v5/ARM/PACK/Nuvoton/NuMicro_M2351_BSP/1.0.0/Device/M2351/StdDriver/src/uart.c:338:1
	add	sp, #72
	pop	{r7, pc}
.Ltmp51:
	.p2align	2
@ %bb.27:
	.loc	4 0 1 is_stmt 0         @ C:/Keil_v5/ARM/PACK/Nuvoton/NuMicro_M2351_BSP/1.0.0/Device/M2351/StdDriver/src/uart.c:0:1
__arm_cp.8_0:
	.long	.LUART_Open.au32ClkTbl
.Lcpi_end30:
	.size	__arm_cp.8_0, .Lcpi_end30-__arm_cp.8_0
__arm_cp.8_1:
	.long	1074200576              @ 0x40070000
.Lcpi_end31:
	.size	__arm_cp.8_1, .Lcpi_end31-__arm_cp.8_1
__arm_cp.8_2:
	.long	1074204672              @ 0x40071000
.Lcpi_end32:
	.size	__arm_cp.8_2, .Lcpi_end32-__arm_cp.8_2
__arm_cp.8_3:
	.long	1074208768              @ 0x40072000
.Lcpi_end33:
	.size	__arm_cp.8_3, .Lcpi_end33-__arm_cp.8_3
__arm_cp.8_4:
	.long	1074212864              @ 0x40073000
.Lcpi_end34:
	.size	__arm_cp.8_4, .Lcpi_end34-__arm_cp.8_4
__arm_cp.8_5:
	.long	1074216960              @ 0x40074000
.Lcpi_end35:
	.size	__arm_cp.8_5, .Lcpi_end35-__arm_cp.8_5
__arm_cp.8_6:
	.long	1074221056              @ 0x40075000
.Lcpi_end36:
	.size	__arm_cp.8_6, .Lcpi_end36-__arm_cp.8_6
__arm_cp.8_7:
	.long	1342636032              @ 0x50070000
.Lcpi_end37:
	.size	__arm_cp.8_7, .Lcpi_end37-__arm_cp.8_7
__arm_cp.8_8:
	.long	1342640128              @ 0x50071000
.Lcpi_end38:
	.size	__arm_cp.8_8, .Lcpi_end38-__arm_cp.8_8
__arm_cp.8_9:
	.long	1342644224              @ 0x50072000
.Lcpi_end39:
	.size	__arm_cp.8_9, .Lcpi_end39-__arm_cp.8_9
__arm_cp.8_10:
	.long	1342648320              @ 0x50073000
.Lcpi_end40:
	.size	__arm_cp.8_10, .Lcpi_end40-__arm_cp.8_10
__arm_cp.8_11:
	.long	1342652416              @ 0x50074000
.Lcpi_end41:
	.size	__arm_cp.8_11, .Lcpi_end41-__arm_cp.8_11
__arm_cp.8_12:
	.long	1342656512              @ 0x50075000
.Lcpi_end42:
	.size	__arm_cp.8_12, .Lcpi_end42-__arm_cp.8_12
__arm_cp.8_13:
	.long	2011970965              @ 0x77ec3d95
.Lcpi_end43:
	.size	__arm_cp.8_13, .Lcpi_end43-__arm_cp.8_13
__arm_cp.8_14:
	.long	2009873684              @ 0x77cc3d14
.Lcpi_end44:
	.size	__arm_cp.8_14, .Lcpi_end44-__arm_cp.8_14
__arm_cp.8_15:
	.long	2007776403              @ 0x77ac3c93
.Lcpi_end45:
	.size	__arm_cp.8_15, .Lcpi_end45-__arm_cp.8_15
__arm_cp.8_16:
	.long	2005679122              @ 0x778c3c12
.Lcpi_end46:
	.size	__arm_cp.8_16, .Lcpi_end46-__arm_cp.8_16
__arm_cp.8_17:
	.long	1470119313              @ 0x57a03d91
.Lcpi_end47:
	.size	__arm_cp.8_17, .Lcpi_end47-__arm_cp.8_17
__arm_cp.8_18:
	.long	1468022032              @ 0x57803d10
.Lcpi_end48:
	.size	__arm_cp.8_18, .Lcpi_end48-__arm_cp.8_18
__arm_cp.8_19:
	.long	4293984015              @ 0xfff0ff0f
.Lcpi_end49:
	.size	__arm_cp.8_19, .Lcpi_end49-__arm_cp.8_19
.Lfunc_end8:
	.size	UART_Open, .Lfunc_end8-UART_Open
	.cfi_endproc
	.cantunwind
	.fnend
                                        @ -- End function
	.section	.text.UART_Read,"ax",%progbits
	.hidden	UART_Read               @ -- Begin function UART_Read
	.globl	UART_Read
	.p2align	1
	.type	UART_Read,%function
	.code	16                      @ @UART_Read
	.thumb_func
UART_Read:
.Lfunc_begin9:
	.loc	4 353 0 is_stmt 1       @ C:/Keil_v5/ARM/PACK/Nuvoton/NuMicro_M2351_BSP/1.0.0/Device/M2351/StdDriver/src/uart.c:353:0
	.fnstart
	.cfi_startproc
@ %bb.0:
	.save	{r4, r5, r7, lr}
	push	{r4, r5, r7, lr}
	.cfi_def_cfa_offset 16
	.cfi_offset lr, -4
	.cfi_offset r7, -8
	.cfi_offset r5, -12
	.cfi_offset r4, -16
	.pad	#36
	sub	sp, #36
	.cfi_def_cfa_offset 52
	mov	r3, r2
	mov	r4, r1
	mov	r5, r0
	str	r0, [sp, #32]
	str	r1, [sp, #28]
	str	r2, [sp, #24]
	movs	r0, #0
.Ltmp52:
	.loc	4 355 15 prologue_end   @ C:/Keil_v5/ARM/PACK/Nuvoton/NuMicro_M2351_BSP/1.0.0/Device/M2351/StdDriver/src/uart.c:355:15
	str	r0, [sp, #12]
.Ltmp53:
	.loc	4 357 18                @ C:/Keil_v5/ARM/PACK/Nuvoton/NuMicro_M2351_BSP/1.0.0/Device/M2351/StdDriver/src/uart.c:357:18
	str	r0, [sp, #20]
	.loc	4 357 9 is_stmt 0       @ C:/Keil_v5/ARM/PACK/Nuvoton/NuMicro_M2351_BSP/1.0.0/Device/M2351/StdDriver/src/uart.c:357:9
	str	r3, [sp, #8]            @ 4-byte Spill
	str	r4, [sp, #4]            @ 4-byte Spill
	str	r5, [sp]                @ 4-byte Spill
	b	.LBB9_1
.LBB9_1:                                @ =>This Loop Header: Depth=1
                                        @     Child Loop BB9_3 Depth 2
.Ltmp54:
	.loc	4 357 25                @ C:/Keil_v5/ARM/PACK/Nuvoton/NuMicro_M2351_BSP/1.0.0/Device/M2351/StdDriver/src/uart.c:357:25
	ldr	r0, [sp, #20]
	.loc	4 357 36                @ C:/Keil_v5/ARM/PACK/Nuvoton/NuMicro_M2351_BSP/1.0.0/Device/M2351/StdDriver/src/uart.c:357:36
	ldr	r1, [sp, #24]
.Ltmp55:
	.loc	4 357 5                 @ C:/Keil_v5/ARM/PACK/Nuvoton/NuMicro_M2351_BSP/1.0.0/Device/M2351/StdDriver/src/uart.c:357:5
	cmp	r0, r1
	bhs	.LBB9_13
	b	.LBB9_2
.LBB9_2:                                @   in Loop: Header=BB9_1 Depth=1
.Ltmp56:
	.loc	4 359 20 is_stmt 1      @ C:/Keil_v5/ARM/PACK/Nuvoton/NuMicro_M2351_BSP/1.0.0/Device/M2351/StdDriver/src/uart.c:359:20
	movs	r0, #0
	str	r0, [sp, #16]
	.loc	4 361 9                 @ C:/Keil_v5/ARM/PACK/Nuvoton/NuMicro_M2351_BSP/1.0.0/Device/M2351/StdDriver/src/uart.c:361:9
	b	.LBB9_3
.LBB9_3:                                @   Parent Loop BB9_1 Depth=1
                                        @ =>  This Inner Loop Header: Depth=2
	.loc	4 361 15 is_stmt 0      @ C:/Keil_v5/ARM/PACK/Nuvoton/NuMicro_M2351_BSP/1.0.0/Device/M2351/StdDriver/src/uart.c:361:15
	ldr	r0, [sp, #32]
	.loc	4 361 21                @ C:/Keil_v5/ARM/PACK/Nuvoton/NuMicro_M2351_BSP/1.0.0/Device/M2351/StdDriver/src/uart.c:361:21
	ldr	r0, [r0, #24]
	.loc	4 361 29                @ C:/Keil_v5/ARM/PACK/Nuvoton/NuMicro_M2351_BSP/1.0.0/Device/M2351/StdDriver/src/uart.c:361:29
	movw	r1, #16384
	.loc	4 361 9                 @ C:/Keil_v5/ARM/PACK/Nuvoton/NuMicro_M2351_BSP/1.0.0/Device/M2351/StdDriver/src/uart.c:361:9
	tst	r0, r1
	beq	.LBB9_8
	b	.LBB9_4
.LBB9_4:                                @   in Loop: Header=BB9_3 Depth=2
.Ltmp57:
	.loc	4 363 23 is_stmt 1      @ C:/Keil_v5/ARM/PACK/Nuvoton/NuMicro_M2351_BSP/1.0.0/Device/M2351/StdDriver/src/uart.c:363:23
	ldr	r0, [sp, #16]
	adds	r0, r0, #1
	str	r0, [sp, #16]
.Ltmp58:
	.loc	4 364 16                @ C:/Keil_v5/ARM/PACK/Nuvoton/NuMicro_M2351_BSP/1.0.0/Device/M2351/StdDriver/src/uart.c:364:16
	ldr	r0, [sp, #16]
.Ltmp59:
	.loc	4 364 16 is_stmt 0      @ C:/Keil_v5/ARM/PACK/Nuvoton/NuMicro_M2351_BSP/1.0.0/Device/M2351/StdDriver/src/uart.c:364:16
	lsrs	r0, r0, #30
	cmp	r0, #0
	beq	.LBB9_6
	b	.LBB9_5
.LBB9_5:                                @   in Loop: Header=BB9_1 Depth=1
.Ltmp60:
	.loc	4 366 25 is_stmt 1      @ C:/Keil_v5/ARM/PACK/Nuvoton/NuMicro_M2351_BSP/1.0.0/Device/M2351/StdDriver/src/uart.c:366:25
	movs	r0, #1
	str	r0, [sp, #12]
	.loc	4 367 17                @ C:/Keil_v5/ARM/PACK/Nuvoton/NuMicro_M2351_BSP/1.0.0/Device/M2351/StdDriver/src/uart.c:367:17
	b	.LBB9_8
.Ltmp61:
.LBB9_6:                                @   in Loop: Header=BB9_3 Depth=2
	.loc	4 0 17 is_stmt 0        @ C:/Keil_v5/ARM/PACK/Nuvoton/NuMicro_M2351_BSP/1.0.0/Device/M2351/StdDriver/src/uart.c:0:17
	b	.LBB9_7
.LBB9_7:                                @   in Loop: Header=BB9_3 Depth=2
	.loc	4 361 9 is_stmt 1       @ C:/Keil_v5/ARM/PACK/Nuvoton/NuMicro_M2351_BSP/1.0.0/Device/M2351/StdDriver/src/uart.c:361:9
	b	.LBB9_3
.LBB9_8:                                @   in Loop: Header=BB9_1 Depth=1
.Ltmp62:
	.loc	4 374 12                @ C:/Keil_v5/ARM/PACK/Nuvoton/NuMicro_M2351_BSP/1.0.0/Device/M2351/StdDriver/src/uart.c:374:12
	ldr	r0, [sp, #12]
.Ltmp63:
	.loc	4 374 12 is_stmt 0      @ C:/Keil_v5/ARM/PACK/Nuvoton/NuMicro_M2351_BSP/1.0.0/Device/M2351/StdDriver/src/uart.c:374:12
	cmp	r0, #1
	bne	.LBB9_10
	b	.LBB9_9
.LBB9_9:
.Ltmp64:
	.loc	4 376 13 is_stmt 1      @ C:/Keil_v5/ARM/PACK/Nuvoton/NuMicro_M2351_BSP/1.0.0/Device/M2351/StdDriver/src/uart.c:376:13
	b	.LBB9_13
.Ltmp65:
.LBB9_10:                               @   in Loop: Header=BB9_1 Depth=1
	.loc	4 380 43                @ C:/Keil_v5/ARM/PACK/Nuvoton/NuMicro_M2351_BSP/1.0.0/Device/M2351/StdDriver/src/uart.c:380:43
	ldr	r0, [sp, #32]
	.loc	4 380 49 is_stmt 0      @ C:/Keil_v5/ARM/PACK/Nuvoton/NuMicro_M2351_BSP/1.0.0/Device/M2351/StdDriver/src/uart.c:380:49
	ldr	r0, [r0]
	.loc	4 380 13                @ C:/Keil_v5/ARM/PACK/Nuvoton/NuMicro_M2351_BSP/1.0.0/Device/M2351/StdDriver/src/uart.c:380:13
	ldr	r1, [sp, #28]
	.loc	4 380 22                @ C:/Keil_v5/ARM/PACK/Nuvoton/NuMicro_M2351_BSP/1.0.0/Device/M2351/StdDriver/src/uart.c:380:22
	ldr	r2, [sp, #20]
	.loc	4 380 32                @ C:/Keil_v5/ARM/PACK/Nuvoton/NuMicro_M2351_BSP/1.0.0/Device/M2351/StdDriver/src/uart.c:380:32
	strb	r0, [r1, r2]
	b	.LBB9_11
.Ltmp66:
.LBB9_11:                               @   in Loop: Header=BB9_1 Depth=1
	.loc	4 382 5 is_stmt 1       @ C:/Keil_v5/ARM/PACK/Nuvoton/NuMicro_M2351_BSP/1.0.0/Device/M2351/StdDriver/src/uart.c:382:5
	b	.LBB9_12
.Ltmp67:
.LBB9_12:                               @   in Loop: Header=BB9_1 Depth=1
	.loc	4 357 58                @ C:/Keil_v5/ARM/PACK/Nuvoton/NuMicro_M2351_BSP/1.0.0/Device/M2351/StdDriver/src/uart.c:357:58
	ldr	r0, [sp, #20]
	adds	r0, r0, #1
	str	r0, [sp, #20]
	.loc	4 357 5 is_stmt 0       @ C:/Keil_v5/ARM/PACK/Nuvoton/NuMicro_M2351_BSP/1.0.0/Device/M2351/StdDriver/src/uart.c:357:5
	b	.LBB9_1
.Ltmp68:
.LBB9_13:
	.loc	4 384 12 is_stmt 1      @ C:/Keil_v5/ARM/PACK/Nuvoton/NuMicro_M2351_BSP/1.0.0/Device/M2351/StdDriver/src/uart.c:384:12
	ldr	r0, [sp, #20]
	.loc	4 384 5 is_stmt 0       @ C:/Keil_v5/ARM/PACK/Nuvoton/NuMicro_M2351_BSP/1.0.0/Device/M2351/StdDriver/src/uart.c:384:5
	add	sp, #36
	pop	{r4, r5, r7, pc}
.Ltmp69:
.Lfunc_end9:
	.size	UART_Read, .Lfunc_end9-UART_Read
	.cfi_endproc
	.cantunwind
	.fnend
                                        @ -- End function
	.section	.text.UART_SetLineConfig,"ax",%progbits
	.hidden	UART_SetLineConfig      @ -- Begin function UART_SetLineConfig
	.globl	UART_SetLineConfig
	.p2align	2
	.type	UART_SetLineConfig,%function
	.code	16                      @ @UART_SetLineConfig
	.thumb_func
UART_SetLineConfig:
.Lfunc_begin10:
	.loc	4 415 0 is_stmt 1       @ C:/Keil_v5/ARM/PACK/Nuvoton/NuMicro_M2351_BSP/1.0.0/Device/M2351/StdDriver/src/uart.c:415:0
	.fnstart
	.cfi_startproc
@ %bb.0:
	.save	{r4, r5, r6, r7, lr}
	push	{r4, r5, r6, r7, lr}
	.cfi_def_cfa_offset 20
	.cfi_offset lr, -4
	.cfi_offset r7, -8
	.cfi_offset r6, -12
	.cfi_offset r5, -16
	.cfi_offset r4, -20
	.pad	#100
	sub	sp, #100
	.cfi_def_cfa_offset 120
	ldr	r4, [sp, #120]
	mov	r5, r3
	mov	r6, r2
	mov	r7, r1
	str	r0, [sp, #52]           @ 4-byte Spill
	str	r0, [sp, #48]           @ 4-byte Spill
	ldr	r0, [sp, #52]           @ 4-byte Reload
	str	r0, [sp, #96]
	str	r1, [sp, #92]
	str	r2, [sp, #88]
	str	r3, [sp, #84]
.Ltmp70:
	.loc	4 417 14 prologue_end   @ C:/Keil_v5/ARM/PACK/Nuvoton/NuMicro_M2351_BSP/1.0.0/Device/M2351/StdDriver/src/uart.c:417:14
	ldr	r1, __arm_cp.10_0
	ldr	r2, [r1, #12]
	str	r2, [sp, #72]
	ldr	r2, [r1, #8]
	str	r2, [sp, #68]
	ldr	r2, [r1, #4]
	str	r2, [sp, #64]
	ldr	r1, [r1]
	str	r1, [sp, #60]
	movs	r1, #0
	.loc	4 418 14                @ C:/Keil_v5/ARM/PACK/Nuvoton/NuMicro_M2351_BSP/1.0.0/Device/M2351/StdDriver/src/uart.c:418:14
	str	r1, [sp, #56]
	.loc	4 421 22                @ C:/Keil_v5/ARM/PACK/Nuvoton/NuMicro_M2351_BSP/1.0.0/Device/M2351/StdDriver/src/uart.c:421:22
	ldr	r1, [sp, #96]
	.loc	4 421 5 is_stmt 0       @ C:/Keil_v5/ARM/PACK/Nuvoton/NuMicro_M2351_BSP/1.0.0/Device/M2351/StdDriver/src/uart.c:421:5
	ldr	r2, __arm_cp.10_1
	cmp	r1, r2
	str	r5, [sp, #44]           @ 4-byte Spill
	str	r6, [sp, #40]           @ 4-byte Spill
	str	r7, [sp, #36]           @ 4-byte Spill
	str	r4, [sp, #32]           @ 4-byte Spill
	str	r1, [sp, #28]           @ 4-byte Spill
	beq	.LBB10_12
	b	.LBB10_1
.LBB10_1:
	.loc	4 0 5                   @ C:/Keil_v5/ARM/PACK/Nuvoton/NuMicro_M2351_BSP/1.0.0/Device/M2351/StdDriver/src/uart.c:0:5
	ldr	r0, __arm_cp.10_2
	.loc	4 421 5                 @ C:/Keil_v5/ARM/PACK/Nuvoton/NuMicro_M2351_BSP/1.0.0/Device/M2351/StdDriver/src/uart.c:421:5
	ldr	r1, [sp, #28]           @ 4-byte Reload
	cmp	r1, r0
	beq	.LBB10_13
	b	.LBB10_2
.LBB10_2:
	.loc	4 0 5                   @ C:/Keil_v5/ARM/PACK/Nuvoton/NuMicro_M2351_BSP/1.0.0/Device/M2351/StdDriver/src/uart.c:0:5
	ldr	r0, __arm_cp.10_3
	.loc	4 421 5                 @ C:/Keil_v5/ARM/PACK/Nuvoton/NuMicro_M2351_BSP/1.0.0/Device/M2351/StdDriver/src/uart.c:421:5
	ldr	r1, [sp, #28]           @ 4-byte Reload
	cmp	r1, r0
	beq	.LBB10_14
	b	.LBB10_3
.LBB10_3:
	.loc	4 0 5                   @ C:/Keil_v5/ARM/PACK/Nuvoton/NuMicro_M2351_BSP/1.0.0/Device/M2351/StdDriver/src/uart.c:0:5
	ldr	r0, __arm_cp.10_4
	.loc	4 421 5                 @ C:/Keil_v5/ARM/PACK/Nuvoton/NuMicro_M2351_BSP/1.0.0/Device/M2351/StdDriver/src/uart.c:421:5
	ldr	r1, [sp, #28]           @ 4-byte Reload
	cmp	r1, r0
	beq	.LBB10_15
	b	.LBB10_4
.LBB10_4:
	.loc	4 0 5                   @ C:/Keil_v5/ARM/PACK/Nuvoton/NuMicro_M2351_BSP/1.0.0/Device/M2351/StdDriver/src/uart.c:0:5
	ldr	r0, __arm_cp.10_5
	.loc	4 421 5                 @ C:/Keil_v5/ARM/PACK/Nuvoton/NuMicro_M2351_BSP/1.0.0/Device/M2351/StdDriver/src/uart.c:421:5
	ldr	r1, [sp, #28]           @ 4-byte Reload
	cmp	r1, r0
	beq	.LBB10_16
	b	.LBB10_5
.LBB10_5:
	.loc	4 0 5                   @ C:/Keil_v5/ARM/PACK/Nuvoton/NuMicro_M2351_BSP/1.0.0/Device/M2351/StdDriver/src/uart.c:0:5
	ldr	r0, __arm_cp.10_6
	.loc	4 421 5                 @ C:/Keil_v5/ARM/PACK/Nuvoton/NuMicro_M2351_BSP/1.0.0/Device/M2351/StdDriver/src/uart.c:421:5
	ldr	r1, [sp, #28]           @ 4-byte Reload
	cmp	r1, r0
	beq	.LBB10_17
	b	.LBB10_6
.LBB10_6:
	.loc	4 0 5                   @ C:/Keil_v5/ARM/PACK/Nuvoton/NuMicro_M2351_BSP/1.0.0/Device/M2351/StdDriver/src/uart.c:0:5
	ldr	r0, __arm_cp.10_7
	.loc	4 421 5                 @ C:/Keil_v5/ARM/PACK/Nuvoton/NuMicro_M2351_BSP/1.0.0/Device/M2351/StdDriver/src/uart.c:421:5
	ldr	r1, [sp, #28]           @ 4-byte Reload
	cmp	r1, r0
	beq	.LBB10_12
	b	.LBB10_7
.LBB10_7:
	.loc	4 0 5                   @ C:/Keil_v5/ARM/PACK/Nuvoton/NuMicro_M2351_BSP/1.0.0/Device/M2351/StdDriver/src/uart.c:0:5
	ldr	r0, __arm_cp.10_8
	.loc	4 421 5                 @ C:/Keil_v5/ARM/PACK/Nuvoton/NuMicro_M2351_BSP/1.0.0/Device/M2351/StdDriver/src/uart.c:421:5
	ldr	r1, [sp, #28]           @ 4-byte Reload
	cmp	r1, r0
	beq	.LBB10_13
	b	.LBB10_8
.LBB10_8:
	.loc	4 0 5                   @ C:/Keil_v5/ARM/PACK/Nuvoton/NuMicro_M2351_BSP/1.0.0/Device/M2351/StdDriver/src/uart.c:0:5
	ldr	r0, __arm_cp.10_9
	.loc	4 421 5                 @ C:/Keil_v5/ARM/PACK/Nuvoton/NuMicro_M2351_BSP/1.0.0/Device/M2351/StdDriver/src/uart.c:421:5
	ldr	r1, [sp, #28]           @ 4-byte Reload
	cmp	r1, r0
	beq	.LBB10_14
	b	.LBB10_9
.LBB10_9:
	.loc	4 0 5                   @ C:/Keil_v5/ARM/PACK/Nuvoton/NuMicro_M2351_BSP/1.0.0/Device/M2351/StdDriver/src/uart.c:0:5
	ldr	r0, __arm_cp.10_10
	.loc	4 421 5                 @ C:/Keil_v5/ARM/PACK/Nuvoton/NuMicro_M2351_BSP/1.0.0/Device/M2351/StdDriver/src/uart.c:421:5
	ldr	r1, [sp, #28]           @ 4-byte Reload
	cmp	r1, r0
	beq	.LBB10_15
	b	.LBB10_10
.LBB10_10:
	.loc	4 0 5                   @ C:/Keil_v5/ARM/PACK/Nuvoton/NuMicro_M2351_BSP/1.0.0/Device/M2351/StdDriver/src/uart.c:0:5
	ldr	r0, __arm_cp.10_11
	.loc	4 421 5                 @ C:/Keil_v5/ARM/PACK/Nuvoton/NuMicro_M2351_BSP/1.0.0/Device/M2351/StdDriver/src/uart.c:421:5
	ldr	r1, [sp, #28]           @ 4-byte Reload
	cmp	r1, r0
	beq	.LBB10_16
	b	.LBB10_11
.LBB10_11:
	.loc	4 0 5                   @ C:/Keil_v5/ARM/PACK/Nuvoton/NuMicro_M2351_BSP/1.0.0/Device/M2351/StdDriver/src/uart.c:0:5
	ldr	r0, __arm_cp.10_12
	.loc	4 421 5                 @ C:/Keil_v5/ARM/PACK/Nuvoton/NuMicro_M2351_BSP/1.0.0/Device/M2351/StdDriver/src/uart.c:421:5
	ldr	r1, [sp, #28]           @ 4-byte Reload
	cmp	r1, r0
	beq	.LBB10_17
	b	.LBB10_18
.LBB10_12:
.Ltmp71:
	.loc	4 425 32 is_stmt 1      @ C:/Keil_v5/ARM/PACK/Nuvoton/NuMicro_M2351_BSP/1.0.0/Device/M2351/StdDriver/src/uart.c:425:32
	ldr	r0, __arm_cp.10_18
	str	r0, [sp, #24]           @ 4-byte Spill
	bl	CLK_GetModuleClockSource
	.loc	4 425 30 is_stmt 0      @ C:/Keil_v5/ARM/PACK/Nuvoton/NuMicro_M2351_BSP/1.0.0/Device/M2351/StdDriver/src/uart.c:425:30
	str	r0, [sp, #80]
	.loc	4 426 32 is_stmt 1      @ C:/Keil_v5/ARM/PACK/Nuvoton/NuMicro_M2351_BSP/1.0.0/Device/M2351/StdDriver/src/uart.c:426:32
	ldr	r0, [sp, #24]           @ 4-byte Reload
	bl	CLK_GetModuleClockDivider
	.loc	4 426 30 is_stmt 0      @ C:/Keil_v5/ARM/PACK/Nuvoton/NuMicro_M2351_BSP/1.0.0/Device/M2351/StdDriver/src/uart.c:426:30
	str	r0, [sp, #76]
	.loc	4 427 13 is_stmt 1      @ C:/Keil_v5/ARM/PACK/Nuvoton/NuMicro_M2351_BSP/1.0.0/Device/M2351/StdDriver/src/uart.c:427:13
	b	.LBB10_19
.LBB10_13:
	.loc	4 430 32                @ C:/Keil_v5/ARM/PACK/Nuvoton/NuMicro_M2351_BSP/1.0.0/Device/M2351/StdDriver/src/uart.c:430:32
	ldr	r0, __arm_cp.10_17
	str	r0, [sp, #20]           @ 4-byte Spill
	bl	CLK_GetModuleClockSource
	.loc	4 430 30 is_stmt 0      @ C:/Keil_v5/ARM/PACK/Nuvoton/NuMicro_M2351_BSP/1.0.0/Device/M2351/StdDriver/src/uart.c:430:30
	str	r0, [sp, #80]
	.loc	4 431 32 is_stmt 1      @ C:/Keil_v5/ARM/PACK/Nuvoton/NuMicro_M2351_BSP/1.0.0/Device/M2351/StdDriver/src/uart.c:431:32
	ldr	r0, [sp, #20]           @ 4-byte Reload
	bl	CLK_GetModuleClockDivider
	.loc	4 431 30 is_stmt 0      @ C:/Keil_v5/ARM/PACK/Nuvoton/NuMicro_M2351_BSP/1.0.0/Device/M2351/StdDriver/src/uart.c:431:30
	str	r0, [sp, #76]
	.loc	4 432 13 is_stmt 1      @ C:/Keil_v5/ARM/PACK/Nuvoton/NuMicro_M2351_BSP/1.0.0/Device/M2351/StdDriver/src/uart.c:432:13
	b	.LBB10_19
.LBB10_14:
	.loc	4 435 32                @ C:/Keil_v5/ARM/PACK/Nuvoton/NuMicro_M2351_BSP/1.0.0/Device/M2351/StdDriver/src/uart.c:435:32
	ldr	r0, __arm_cp.10_16
	str	r0, [sp, #16]           @ 4-byte Spill
	bl	CLK_GetModuleClockSource
	.loc	4 435 30 is_stmt 0      @ C:/Keil_v5/ARM/PACK/Nuvoton/NuMicro_M2351_BSP/1.0.0/Device/M2351/StdDriver/src/uart.c:435:30
	str	r0, [sp, #80]
	.loc	4 436 32 is_stmt 1      @ C:/Keil_v5/ARM/PACK/Nuvoton/NuMicro_M2351_BSP/1.0.0/Device/M2351/StdDriver/src/uart.c:436:32
	ldr	r0, [sp, #16]           @ 4-byte Reload
	bl	CLK_GetModuleClockDivider
	.loc	4 436 30 is_stmt 0      @ C:/Keil_v5/ARM/PACK/Nuvoton/NuMicro_M2351_BSP/1.0.0/Device/M2351/StdDriver/src/uart.c:436:30
	str	r0, [sp, #76]
	.loc	4 437 13 is_stmt 1      @ C:/Keil_v5/ARM/PACK/Nuvoton/NuMicro_M2351_BSP/1.0.0/Device/M2351/StdDriver/src/uart.c:437:13
	b	.LBB10_19
.LBB10_15:
	.loc	4 440 32                @ C:/Keil_v5/ARM/PACK/Nuvoton/NuMicro_M2351_BSP/1.0.0/Device/M2351/StdDriver/src/uart.c:440:32
	ldr	r0, __arm_cp.10_15
	str	r0, [sp, #12]           @ 4-byte Spill
	bl	CLK_GetModuleClockSource
	.loc	4 440 30 is_stmt 0      @ C:/Keil_v5/ARM/PACK/Nuvoton/NuMicro_M2351_BSP/1.0.0/Device/M2351/StdDriver/src/uart.c:440:30
	str	r0, [sp, #80]
	.loc	4 441 32 is_stmt 1      @ C:/Keil_v5/ARM/PACK/Nuvoton/NuMicro_M2351_BSP/1.0.0/Device/M2351/StdDriver/src/uart.c:441:32
	ldr	r0, [sp, #12]           @ 4-byte Reload
	bl	CLK_GetModuleClockDivider
	.loc	4 441 30 is_stmt 0      @ C:/Keil_v5/ARM/PACK/Nuvoton/NuMicro_M2351_BSP/1.0.0/Device/M2351/StdDriver/src/uart.c:441:30
	str	r0, [sp, #76]
	.loc	4 442 13 is_stmt 1      @ C:/Keil_v5/ARM/PACK/Nuvoton/NuMicro_M2351_BSP/1.0.0/Device/M2351/StdDriver/src/uart.c:442:13
	b	.LBB10_19
.LBB10_16:
	.loc	4 445 32                @ C:/Keil_v5/ARM/PACK/Nuvoton/NuMicro_M2351_BSP/1.0.0/Device/M2351/StdDriver/src/uart.c:445:32
	ldr	r0, __arm_cp.10_14
	str	r0, [sp, #8]            @ 4-byte Spill
	bl	CLK_GetModuleClockSource
	.loc	4 445 30 is_stmt 0      @ C:/Keil_v5/ARM/PACK/Nuvoton/NuMicro_M2351_BSP/1.0.0/Device/M2351/StdDriver/src/uart.c:445:30
	str	r0, [sp, #80]
	.loc	4 446 32 is_stmt 1      @ C:/Keil_v5/ARM/PACK/Nuvoton/NuMicro_M2351_BSP/1.0.0/Device/M2351/StdDriver/src/uart.c:446:32
	ldr	r0, [sp, #8]            @ 4-byte Reload
	bl	CLK_GetModuleClockDivider
	.loc	4 446 30 is_stmt 0      @ C:/Keil_v5/ARM/PACK/Nuvoton/NuMicro_M2351_BSP/1.0.0/Device/M2351/StdDriver/src/uart.c:446:30
	str	r0, [sp, #76]
	.loc	4 447 13 is_stmt 1      @ C:/Keil_v5/ARM/PACK/Nuvoton/NuMicro_M2351_BSP/1.0.0/Device/M2351/StdDriver/src/uart.c:447:13
	b	.LBB10_19
.LBB10_17:
	.loc	4 450 32                @ C:/Keil_v5/ARM/PACK/Nuvoton/NuMicro_M2351_BSP/1.0.0/Device/M2351/StdDriver/src/uart.c:450:32
	ldr	r0, __arm_cp.10_13
	str	r0, [sp, #4]            @ 4-byte Spill
	bl	CLK_GetModuleClockSource
	.loc	4 450 30 is_stmt 0      @ C:/Keil_v5/ARM/PACK/Nuvoton/NuMicro_M2351_BSP/1.0.0/Device/M2351/StdDriver/src/uart.c:450:30
	str	r0, [sp, #80]
	.loc	4 451 32 is_stmt 1      @ C:/Keil_v5/ARM/PACK/Nuvoton/NuMicro_M2351_BSP/1.0.0/Device/M2351/StdDriver/src/uart.c:451:32
	ldr	r0, [sp, #4]            @ 4-byte Reload
	bl	CLK_GetModuleClockDivider
	.loc	4 451 30 is_stmt 0      @ C:/Keil_v5/ARM/PACK/Nuvoton/NuMicro_M2351_BSP/1.0.0/Device/M2351/StdDriver/src/uart.c:451:30
	str	r0, [sp, #76]
	.loc	4 452 13 is_stmt 1      @ C:/Keil_v5/ARM/PACK/Nuvoton/NuMicro_M2351_BSP/1.0.0/Device/M2351/StdDriver/src/uart.c:452:13
	b	.LBB10_19
.LBB10_18:
	.loc	4 454 13                @ C:/Keil_v5/ARM/PACK/Nuvoton/NuMicro_M2351_BSP/1.0.0/Device/M2351/StdDriver/src/uart.c:454:13
	b	.LBB10_19
.Ltmp72:
.LBB10_19:
	.loc	4 458 8                 @ C:/Keil_v5/ARM/PACK/Nuvoton/NuMicro_M2351_BSP/1.0.0/Device/M2351/StdDriver/src/uart.c:458:8
	ldr	r0, [sp, #80]
.Ltmp73:
	.loc	4 458 8 is_stmt 0       @ C:/Keil_v5/ARM/PACK/Nuvoton/NuMicro_M2351_BSP/1.0.0/Device/M2351/StdDriver/src/uart.c:458:8
	cmp	r0, #1
	bne	.LBB10_21
	b	.LBB10_20
.LBB10_20:
.Ltmp74:
	.loc	4 460 40 is_stmt 1      @ C:/Keil_v5/ARM/PACK/Nuvoton/NuMicro_M2351_BSP/1.0.0/Device/M2351/StdDriver/src/uart.c:460:40
	bl	CLK_GetPLLClockFreq
	.loc	4 460 20 is_stmt 0      @ C:/Keil_v5/ARM/PACK/Nuvoton/NuMicro_M2351_BSP/1.0.0/Device/M2351/StdDriver/src/uart.c:460:20
	ldr	r1, [sp, #80]
	.loc	4 460 9                 @ C:/Keil_v5/ARM/PACK/Nuvoton/NuMicro_M2351_BSP/1.0.0/Device/M2351/StdDriver/src/uart.c:460:9
	lsls	r1, r1, #2
	add	r2, sp, #60
	.loc	4 460 38                @ C:/Keil_v5/ARM/PACK/Nuvoton/NuMicro_M2351_BSP/1.0.0/Device/M2351/StdDriver/src/uart.c:460:38
	str	r0, [r2, r1]
	.loc	4 461 5 is_stmt 1       @ C:/Keil_v5/ARM/PACK/Nuvoton/NuMicro_M2351_BSP/1.0.0/Device/M2351/StdDriver/src/uart.c:461:5
	b	.LBB10_21
.Ltmp75:
.LBB10_21:
	.loc	4 464 8                 @ C:/Keil_v5/ARM/PACK/Nuvoton/NuMicro_M2351_BSP/1.0.0/Device/M2351/StdDriver/src/uart.c:464:8
	ldr	r0, [sp, #92]
.Ltmp76:
	.loc	4 464 8 is_stmt 0       @ C:/Keil_v5/ARM/PACK/Nuvoton/NuMicro_M2351_BSP/1.0.0/Device/M2351/StdDriver/src/uart.c:464:8
	cmp	r0, #0
	beq	.LBB10_26
	b	.LBB10_22
.LBB10_22:
.Ltmp77:
	.loc	4 466 22 is_stmt 1      @ C:/Keil_v5/ARM/PACK/Nuvoton/NuMicro_M2351_BSP/1.0.0/Device/M2351/StdDriver/src/uart.c:466:22
	ldr	r0, [sp, #80]
	lsls	r0, r0, #2
	add	r1, sp, #60
	ldr	r0, [r1, r0]
	ldr	r1, [sp, #76]
	adds	r1, r1, #1
	udiv	r0, r0, r1
	ldr	r1, [sp, #92]
	lsrs	r2, r1, #1
	adds	r0, r0, r2
	udiv	r0, r0, r1
	subs	r0, r0, #2
	.loc	4 466 20 is_stmt 0      @ C:/Keil_v5/ARM/PACK/Nuvoton/NuMicro_M2351_BSP/1.0.0/Device/M2351/StdDriver/src/uart.c:466:20
	str	r0, [sp, #56]
	add	r0, sp, #56
.Ltmp78:
	.loc	4 468 12 is_stmt 1      @ C:/Keil_v5/ARM/PACK/Nuvoton/NuMicro_M2351_BSP/1.0.0/Device/M2351/StdDriver/src/uart.c:468:12
	ldrh	r0, [r0, #2]
.Ltmp79:
	.loc	4 468 12 is_stmt 0      @ C:/Keil_v5/ARM/PACK/Nuvoton/NuMicro_M2351_BSP/1.0.0/Device/M2351/StdDriver/src/uart.c:468:12
	cmp	r0, #0
	beq	.LBB10_24
	b	.LBB10_23
.LBB10_23:
.Ltmp80:
	.loc	4 470 45 is_stmt 1      @ C:/Keil_v5/ARM/PACK/Nuvoton/NuMicro_M2351_BSP/1.0.0/Device/M2351/StdDriver/src/uart.c:470:45
	ldr	r0, [sp, #80]
	lsls	r0, r0, #2
	add	r1, sp, #60
	ldr	r0, [r1, r0]
	ldr	r1, [sp, #76]
	adds	r1, r1, #1
	udiv	r0, r0, r1
	ldr	r1, [sp, #92]
	lsls	r2, r1, #3
	adds	r0, r0, r2
	udiv	r0, r0, r1
	lsrs	r0, r0, #4
	subs	r0, r0, #2
	.loc	4 470 13 is_stmt 0      @ C:/Keil_v5/ARM/PACK/Nuvoton/NuMicro_M2351_BSP/1.0.0/Device/M2351/StdDriver/src/uart.c:470:13
	ldr	r1, [sp, #96]
	.loc	4 470 24                @ C:/Keil_v5/ARM/PACK/Nuvoton/NuMicro_M2351_BSP/1.0.0/Device/M2351/StdDriver/src/uart.c:470:24
	str	r0, [r1, #36]
	.loc	4 471 9 is_stmt 1       @ C:/Keil_v5/ARM/PACK/Nuvoton/NuMicro_M2351_BSP/1.0.0/Device/M2351/StdDriver/src/uart.c:471:9
	b	.LBB10_25
.Ltmp81:
.LBB10_24:
	.loc	4 474 45                @ C:/Keil_v5/ARM/PACK/Nuvoton/NuMicro_M2351_BSP/1.0.0/Device/M2351/StdDriver/src/uart.c:474:45
	ldr	r0, [sp, #56]
	.loc	4 474 43 is_stmt 0      @ C:/Keil_v5/ARM/PACK/Nuvoton/NuMicro_M2351_BSP/1.0.0/Device/M2351/StdDriver/src/uart.c:474:43
	movs	r1, #3
	lsls	r1, r1, #28
	orrs	r0, r1
	.loc	4 474 13                @ C:/Keil_v5/ARM/PACK/Nuvoton/NuMicro_M2351_BSP/1.0.0/Device/M2351/StdDriver/src/uart.c:474:13
	ldr	r1, [sp, #96]
	.loc	4 474 24                @ C:/Keil_v5/ARM/PACK/Nuvoton/NuMicro_M2351_BSP/1.0.0/Device/M2351/StdDriver/src/uart.c:474:24
	str	r0, [r1, #36]
	b	.LBB10_25
.Ltmp82:
.LBB10_25:
	.loc	4 476 5 is_stmt 1       @ C:/Keil_v5/ARM/PACK/Nuvoton/NuMicro_M2351_BSP/1.0.0/Device/M2351/StdDriver/src/uart.c:476:5
	b	.LBB10_26
.Ltmp83:
.LBB10_26:
	.loc	4 479 18                @ C:/Keil_v5/ARM/PACK/Nuvoton/NuMicro_M2351_BSP/1.0.0/Device/M2351/StdDriver/src/uart.c:479:18
	ldr	r0, [sp, #88]
	.loc	4 479 34 is_stmt 0      @ C:/Keil_v5/ARM/PACK/Nuvoton/NuMicro_M2351_BSP/1.0.0/Device/M2351/StdDriver/src/uart.c:479:34
	ldr	r1, [sp, #84]
	.loc	4 479 32                @ C:/Keil_v5/ARM/PACK/Nuvoton/NuMicro_M2351_BSP/1.0.0/Device/M2351/StdDriver/src/uart.c:479:32
	orrs	r0, r1
	.loc	4 479 46                @ C:/Keil_v5/ARM/PACK/Nuvoton/NuMicro_M2351_BSP/1.0.0/Device/M2351/StdDriver/src/uart.c:479:46
	ldr	r1, [sp, #120]
	.loc	4 479 44                @ C:/Keil_v5/ARM/PACK/Nuvoton/NuMicro_M2351_BSP/1.0.0/Device/M2351/StdDriver/src/uart.c:479:44
	orrs	r0, r1
	.loc	4 479 5                 @ C:/Keil_v5/ARM/PACK/Nuvoton/NuMicro_M2351_BSP/1.0.0/Device/M2351/StdDriver/src/uart.c:479:5
	ldr	r1, [sp, #96]
	.loc	4 479 16                @ C:/Keil_v5/ARM/PACK/Nuvoton/NuMicro_M2351_BSP/1.0.0/Device/M2351/StdDriver/src/uart.c:479:16
	str	r0, [r1, #12]
	.loc	4 480 1 is_stmt 1       @ C:/Keil_v5/ARM/PACK/Nuvoton/NuMicro_M2351_BSP/1.0.0/Device/M2351/StdDriver/src/uart.c:480:1
	add	sp, #100
	pop	{r4, r5, r6, r7, pc}
.Ltmp84:
	.p2align	2
@ %bb.27:
	.loc	4 0 1 is_stmt 0         @ C:/Keil_v5/ARM/PACK/Nuvoton/NuMicro_M2351_BSP/1.0.0/Device/M2351/StdDriver/src/uart.c:0:1
__arm_cp.10_0:
	.long	.LUART_SetLineConfig.au32ClkTbl
.Lcpi_end50:
	.size	__arm_cp.10_0, .Lcpi_end50-__arm_cp.10_0
__arm_cp.10_1:
	.long	1074200576              @ 0x40070000
.Lcpi_end51:
	.size	__arm_cp.10_1, .Lcpi_end51-__arm_cp.10_1
__arm_cp.10_2:
	.long	1074204672              @ 0x40071000
.Lcpi_end52:
	.size	__arm_cp.10_2, .Lcpi_end52-__arm_cp.10_2
__arm_cp.10_3:
	.long	1074208768              @ 0x40072000
.Lcpi_end53:
	.size	__arm_cp.10_3, .Lcpi_end53-__arm_cp.10_3
__arm_cp.10_4:
	.long	1074212864              @ 0x40073000
.Lcpi_end54:
	.size	__arm_cp.10_4, .Lcpi_end54-__arm_cp.10_4
__arm_cp.10_5:
	.long	1074216960              @ 0x40074000
.Lcpi_end55:
	.size	__arm_cp.10_5, .Lcpi_end55-__arm_cp.10_5
__arm_cp.10_6:
	.long	1074221056              @ 0x40075000
.Lcpi_end56:
	.size	__arm_cp.10_6, .Lcpi_end56-__arm_cp.10_6
__arm_cp.10_7:
	.long	1342636032              @ 0x50070000
.Lcpi_end57:
	.size	__arm_cp.10_7, .Lcpi_end57-__arm_cp.10_7
__arm_cp.10_8:
	.long	1342640128              @ 0x50071000
.Lcpi_end58:
	.size	__arm_cp.10_8, .Lcpi_end58-__arm_cp.10_8
__arm_cp.10_9:
	.long	1342644224              @ 0x50072000
.Lcpi_end59:
	.size	__arm_cp.10_9, .Lcpi_end59-__arm_cp.10_9
__arm_cp.10_10:
	.long	1342648320              @ 0x50073000
.Lcpi_end60:
	.size	__arm_cp.10_10, .Lcpi_end60-__arm_cp.10_10
__arm_cp.10_11:
	.long	1342652416              @ 0x50074000
.Lcpi_end61:
	.size	__arm_cp.10_11, .Lcpi_end61-__arm_cp.10_11
__arm_cp.10_12:
	.long	1342656512              @ 0x50075000
.Lcpi_end62:
	.size	__arm_cp.10_12, .Lcpi_end62-__arm_cp.10_12
__arm_cp.10_13:
	.long	2011970965              @ 0x77ec3d95
.Lcpi_end63:
	.size	__arm_cp.10_13, .Lcpi_end63-__arm_cp.10_13
__arm_cp.10_14:
	.long	2009873684              @ 0x77cc3d14
.Lcpi_end64:
	.size	__arm_cp.10_14, .Lcpi_end64-__arm_cp.10_14
__arm_cp.10_15:
	.long	2007776403              @ 0x77ac3c93
.Lcpi_end65:
	.size	__arm_cp.10_15, .Lcpi_end65-__arm_cp.10_15
__arm_cp.10_16:
	.long	2005679122              @ 0x778c3c12
.Lcpi_end66:
	.size	__arm_cp.10_16, .Lcpi_end66-__arm_cp.10_16
__arm_cp.10_17:
	.long	1470119313              @ 0x57a03d91
.Lcpi_end67:
	.size	__arm_cp.10_17, .Lcpi_end67-__arm_cp.10_17
__arm_cp.10_18:
	.long	1468022032              @ 0x57803d10
.Lcpi_end68:
	.size	__arm_cp.10_18, .Lcpi_end68-__arm_cp.10_18
.Lfunc_end10:
	.size	UART_SetLineConfig, .Lfunc_end10-UART_SetLineConfig
	.cfi_endproc
	.cantunwind
	.fnend
                                        @ -- End function
	.section	.text.UART_SetTimeoutCnt,"ax",%progbits
	.hidden	UART_SetTimeoutCnt      @ -- Begin function UART_SetTimeoutCnt
	.globl	UART_SetTimeoutCnt
	.p2align	1
	.type	UART_SetTimeoutCnt,%function
	.code	16                      @ @UART_SetTimeoutCnt
	.thumb_func
UART_SetTimeoutCnt:
.Lfunc_begin11:
	.loc	4 494 0 is_stmt 1       @ C:/Keil_v5/ARM/PACK/Nuvoton/NuMicro_M2351_BSP/1.0.0/Device/M2351/StdDriver/src/uart.c:494:0
	.fnstart
	.cfi_startproc
@ %bb.0:
	.save	{r4, lr}
	push	{r4, lr}
	.cfi_def_cfa_offset 8
	.cfi_offset lr, -4
	.cfi_offset r4, -8
	.pad	#16
	sub	sp, #16
	.cfi_def_cfa_offset 24
	mov	r2, r1
	mov	r3, r0
	str	r0, [sp, #12]
	str	r1, [sp, #8]
.Ltmp85:
	.loc	4 496 19 prologue_end   @ C:/Keil_v5/ARM/PACK/Nuvoton/NuMicro_M2351_BSP/1.0.0/Device/M2351/StdDriver/src/uart.c:496:19
	ldr	r0, [sp, #12]
	.loc	4 496 25 is_stmt 0      @ C:/Keil_v5/ARM/PACK/Nuvoton/NuMicro_M2351_BSP/1.0.0/Device/M2351/StdDriver/src/uart.c:496:25
	ldr	r0, [r0, #32]
	.loc	4 496 30                @ C:/Keil_v5/ARM/PACK/Nuvoton/NuMicro_M2351_BSP/1.0.0/Device/M2351/StdDriver/src/uart.c:496:30
	movs	r1, #255
	bics	r0, r1
	.loc	4 496 56                @ C:/Keil_v5/ARM/PACK/Nuvoton/NuMicro_M2351_BSP/1.0.0/Device/M2351/StdDriver/src/uart.c:496:56
	ldr	r1, [sp, #8]
	.loc	4 496 53                @ C:/Keil_v5/ARM/PACK/Nuvoton/NuMicro_M2351_BSP/1.0.0/Device/M2351/StdDriver/src/uart.c:496:53
	orrs	r0, r1
	.loc	4 496 5                 @ C:/Keil_v5/ARM/PACK/Nuvoton/NuMicro_M2351_BSP/1.0.0/Device/M2351/StdDriver/src/uart.c:496:5
	ldr	r1, [sp, #12]
	.loc	4 496 16                @ C:/Keil_v5/ARM/PACK/Nuvoton/NuMicro_M2351_BSP/1.0.0/Device/M2351/StdDriver/src/uart.c:496:16
	str	r0, [r1, #32]
	.loc	4 499 5 is_stmt 1       @ C:/Keil_v5/ARM/PACK/Nuvoton/NuMicro_M2351_BSP/1.0.0/Device/M2351/StdDriver/src/uart.c:499:5
	ldr	r0, [sp, #12]
	.loc	4 499 17 is_stmt 0      @ C:/Keil_v5/ARM/PACK/Nuvoton/NuMicro_M2351_BSP/1.0.0/Device/M2351/StdDriver/src/uart.c:499:17
	ldr	r1, [r0, #4]
	movw	r4, #2048
	orrs	r1, r4
	str	r1, [r0, #4]
	.loc	4 500 1 is_stmt 1       @ C:/Keil_v5/ARM/PACK/Nuvoton/NuMicro_M2351_BSP/1.0.0/Device/M2351/StdDriver/src/uart.c:500:1
	str	r2, [sp, #4]            @ 4-byte Spill
	str	r3, [sp]                @ 4-byte Spill
	add	sp, #16
	pop	{r4, pc}
.Ltmp86:
.Lfunc_end11:
	.size	UART_SetTimeoutCnt, .Lfunc_end11-UART_SetTimeoutCnt
	.cfi_endproc
	.cantunwind
	.fnend
                                        @ -- End function
	.section	.text.UART_SelectIrDAMode,"ax",%progbits
	.hidden	UART_SelectIrDAMode     @ -- Begin function UART_SelectIrDAMode
	.globl	UART_SelectIrDAMode
	.p2align	2
	.type	UART_SelectIrDAMode,%function
	.code	16                      @ @UART_SelectIrDAMode
	.thumb_func
UART_SelectIrDAMode:
.Lfunc_begin12:
	.loc	4 517 0                 @ C:/Keil_v5/ARM/PACK/Nuvoton/NuMicro_M2351_BSP/1.0.0/Device/M2351/StdDriver/src/uart.c:517:0
	.fnstart
	.cfi_startproc
@ %bb.0:
	.save	{r4, r5, r7, lr}
	push	{r4, r5, r7, lr}
	.cfi_def_cfa_offset 16
	.cfi_offset lr, -4
	.cfi_offset r7, -8
	.cfi_offset r5, -12
	.cfi_offset r4, -16
	.pad	#80
	sub	sp, #80
	.cfi_def_cfa_offset 96
	mov	r3, r2
	mov	r4, r1
	mov	r5, r0
	str	r0, [sp, #76]
	str	r1, [sp, #72]
	str	r2, [sp, #68]
.Ltmp87:
	.loc	4 519 14 prologue_end   @ C:/Keil_v5/ARM/PACK/Nuvoton/NuMicro_M2351_BSP/1.0.0/Device/M2351/StdDriver/src/uart.c:519:14
	ldr	r0, __arm_cp.12_0
	ldr	r1, [r0, #12]
	str	r1, [sp, #56]
	ldr	r1, [r0, #8]
	str	r1, [sp, #52]
	ldr	r1, [r0, #4]
	str	r1, [sp, #48]
	ldr	r0, [r0]
	str	r0, [sp, #44]
	.loc	4 523 5                 @ C:/Keil_v5/ARM/PACK/Nuvoton/NuMicro_M2351_BSP/1.0.0/Device/M2351/StdDriver/src/uart.c:523:5
	ldr	r0, [sp, #76]
	.loc	4 523 19 is_stmt 0      @ C:/Keil_v5/ARM/PACK/Nuvoton/NuMicro_M2351_BSP/1.0.0/Device/M2351/StdDriver/src/uart.c:523:19
	movs	r1, #2
	str	r1, [r0, #48]
	.loc	4 526 22 is_stmt 1      @ C:/Keil_v5/ARM/PACK/Nuvoton/NuMicro_M2351_BSP/1.0.0/Device/M2351/StdDriver/src/uart.c:526:22
	ldr	r0, [sp, #76]
	.loc	4 526 5 is_stmt 0       @ C:/Keil_v5/ARM/PACK/Nuvoton/NuMicro_M2351_BSP/1.0.0/Device/M2351/StdDriver/src/uart.c:526:5
	ldr	r1, __arm_cp.12_1
	cmp	r0, r1
	str	r3, [sp, #36]           @ 4-byte Spill
	str	r4, [sp, #32]           @ 4-byte Spill
	str	r5, [sp, #28]           @ 4-byte Spill
	str	r0, [sp, #24]           @ 4-byte Spill
	beq	.LBB12_12
	b	.LBB12_1
.LBB12_1:
	.loc	4 0 5                   @ C:/Keil_v5/ARM/PACK/Nuvoton/NuMicro_M2351_BSP/1.0.0/Device/M2351/StdDriver/src/uart.c:0:5
	ldr	r0, __arm_cp.12_2
	.loc	4 526 5                 @ C:/Keil_v5/ARM/PACK/Nuvoton/NuMicro_M2351_BSP/1.0.0/Device/M2351/StdDriver/src/uart.c:526:5
	ldr	r1, [sp, #24]           @ 4-byte Reload
	cmp	r1, r0
	beq	.LBB12_13
	b	.LBB12_2
.LBB12_2:
	.loc	4 0 5                   @ C:/Keil_v5/ARM/PACK/Nuvoton/NuMicro_M2351_BSP/1.0.0/Device/M2351/StdDriver/src/uart.c:0:5
	ldr	r0, __arm_cp.12_3
	.loc	4 526 5                 @ C:/Keil_v5/ARM/PACK/Nuvoton/NuMicro_M2351_BSP/1.0.0/Device/M2351/StdDriver/src/uart.c:526:5
	ldr	r1, [sp, #24]           @ 4-byte Reload
	cmp	r1, r0
	beq	.LBB12_14
	b	.LBB12_3
.LBB12_3:
	.loc	4 0 5                   @ C:/Keil_v5/ARM/PACK/Nuvoton/NuMicro_M2351_BSP/1.0.0/Device/M2351/StdDriver/src/uart.c:0:5
	ldr	r0, __arm_cp.12_4
	.loc	4 526 5                 @ C:/Keil_v5/ARM/PACK/Nuvoton/NuMicro_M2351_BSP/1.0.0/Device/M2351/StdDriver/src/uart.c:526:5
	ldr	r1, [sp, #24]           @ 4-byte Reload
	cmp	r1, r0
	beq	.LBB12_15
	b	.LBB12_4
.LBB12_4:
	.loc	4 0 5                   @ C:/Keil_v5/ARM/PACK/Nuvoton/NuMicro_M2351_BSP/1.0.0/Device/M2351/StdDriver/src/uart.c:0:5
	ldr	r0, __arm_cp.12_5
	.loc	4 526 5                 @ C:/Keil_v5/ARM/PACK/Nuvoton/NuMicro_M2351_BSP/1.0.0/Device/M2351/StdDriver/src/uart.c:526:5
	ldr	r1, [sp, #24]           @ 4-byte Reload
	cmp	r1, r0
	beq	.LBB12_16
	b	.LBB12_5
.LBB12_5:
	.loc	4 0 5                   @ C:/Keil_v5/ARM/PACK/Nuvoton/NuMicro_M2351_BSP/1.0.0/Device/M2351/StdDriver/src/uart.c:0:5
	ldr	r0, __arm_cp.12_6
	.loc	4 526 5                 @ C:/Keil_v5/ARM/PACK/Nuvoton/NuMicro_M2351_BSP/1.0.0/Device/M2351/StdDriver/src/uart.c:526:5
	ldr	r1, [sp, #24]           @ 4-byte Reload
	cmp	r1, r0
	beq	.LBB12_17
	b	.LBB12_6
.LBB12_6:
	.loc	4 0 5                   @ C:/Keil_v5/ARM/PACK/Nuvoton/NuMicro_M2351_BSP/1.0.0/Device/M2351/StdDriver/src/uart.c:0:5
	ldr	r0, __arm_cp.12_7
	.loc	4 526 5                 @ C:/Keil_v5/ARM/PACK/Nuvoton/NuMicro_M2351_BSP/1.0.0/Device/M2351/StdDriver/src/uart.c:526:5
	ldr	r1, [sp, #24]           @ 4-byte Reload
	cmp	r1, r0
	beq	.LBB12_12
	b	.LBB12_7
.LBB12_7:
	.loc	4 0 5                   @ C:/Keil_v5/ARM/PACK/Nuvoton/NuMicro_M2351_BSP/1.0.0/Device/M2351/StdDriver/src/uart.c:0:5
	ldr	r0, __arm_cp.12_8
	.loc	4 526 5                 @ C:/Keil_v5/ARM/PACK/Nuvoton/NuMicro_M2351_BSP/1.0.0/Device/M2351/StdDriver/src/uart.c:526:5
	ldr	r1, [sp, #24]           @ 4-byte Reload
	cmp	r1, r0
	beq	.LBB12_13
	b	.LBB12_8
.LBB12_8:
	.loc	4 0 5                   @ C:/Keil_v5/ARM/PACK/Nuvoton/NuMicro_M2351_BSP/1.0.0/Device/M2351/StdDriver/src/uart.c:0:5
	ldr	r0, __arm_cp.12_9
	.loc	4 526 5                 @ C:/Keil_v5/ARM/PACK/Nuvoton/NuMicro_M2351_BSP/1.0.0/Device/M2351/StdDriver/src/uart.c:526:5
	ldr	r1, [sp, #24]           @ 4-byte Reload
	cmp	r1, r0
	beq	.LBB12_14
	b	.LBB12_9
.LBB12_9:
	.loc	4 0 5                   @ C:/Keil_v5/ARM/PACK/Nuvoton/NuMicro_M2351_BSP/1.0.0/Device/M2351/StdDriver/src/uart.c:0:5
	ldr	r0, __arm_cp.12_10
	.loc	4 526 5                 @ C:/Keil_v5/ARM/PACK/Nuvoton/NuMicro_M2351_BSP/1.0.0/Device/M2351/StdDriver/src/uart.c:526:5
	ldr	r1, [sp, #24]           @ 4-byte Reload
	cmp	r1, r0
	beq	.LBB12_15
	b	.LBB12_10
.LBB12_10:
	.loc	4 0 5                   @ C:/Keil_v5/ARM/PACK/Nuvoton/NuMicro_M2351_BSP/1.0.0/Device/M2351/StdDriver/src/uart.c:0:5
	ldr	r0, __arm_cp.12_11
	.loc	4 526 5                 @ C:/Keil_v5/ARM/PACK/Nuvoton/NuMicro_M2351_BSP/1.0.0/Device/M2351/StdDriver/src/uart.c:526:5
	ldr	r1, [sp, #24]           @ 4-byte Reload
	cmp	r1, r0
	beq	.LBB12_16
	b	.LBB12_11
.LBB12_11:
	.loc	4 0 5                   @ C:/Keil_v5/ARM/PACK/Nuvoton/NuMicro_M2351_BSP/1.0.0/Device/M2351/StdDriver/src/uart.c:0:5
	ldr	r0, __arm_cp.12_12
	.loc	4 526 5                 @ C:/Keil_v5/ARM/PACK/Nuvoton/NuMicro_M2351_BSP/1.0.0/Device/M2351/StdDriver/src/uart.c:526:5
	ldr	r1, [sp, #24]           @ 4-byte Reload
	cmp	r1, r0
	beq	.LBB12_17
	b	.LBB12_18
.LBB12_12:
.Ltmp88:
	.loc	4 530 32 is_stmt 1      @ C:/Keil_v5/ARM/PACK/Nuvoton/NuMicro_M2351_BSP/1.0.0/Device/M2351/StdDriver/src/uart.c:530:32
	ldr	r0, __arm_cp.12_18
	str	r0, [sp, #20]           @ 4-byte Spill
	bl	CLK_GetModuleClockSource
	.loc	4 530 30 is_stmt 0      @ C:/Keil_v5/ARM/PACK/Nuvoton/NuMicro_M2351_BSP/1.0.0/Device/M2351/StdDriver/src/uart.c:530:30
	str	r0, [sp, #64]
	.loc	4 531 32 is_stmt 1      @ C:/Keil_v5/ARM/PACK/Nuvoton/NuMicro_M2351_BSP/1.0.0/Device/M2351/StdDriver/src/uart.c:531:32
	ldr	r0, [sp, #20]           @ 4-byte Reload
	bl	CLK_GetModuleClockDivider
	.loc	4 531 30 is_stmt 0      @ C:/Keil_v5/ARM/PACK/Nuvoton/NuMicro_M2351_BSP/1.0.0/Device/M2351/StdDriver/src/uart.c:531:30
	str	r0, [sp, #60]
	.loc	4 532 13 is_stmt 1      @ C:/Keil_v5/ARM/PACK/Nuvoton/NuMicro_M2351_BSP/1.0.0/Device/M2351/StdDriver/src/uart.c:532:13
	b	.LBB12_19
.LBB12_13:
	.loc	4 535 32                @ C:/Keil_v5/ARM/PACK/Nuvoton/NuMicro_M2351_BSP/1.0.0/Device/M2351/StdDriver/src/uart.c:535:32
	ldr	r0, __arm_cp.12_17
	str	r0, [sp, #16]           @ 4-byte Spill
	bl	CLK_GetModuleClockSource
	.loc	4 535 30 is_stmt 0      @ C:/Keil_v5/ARM/PACK/Nuvoton/NuMicro_M2351_BSP/1.0.0/Device/M2351/StdDriver/src/uart.c:535:30
	str	r0, [sp, #64]
	.loc	4 536 32 is_stmt 1      @ C:/Keil_v5/ARM/PACK/Nuvoton/NuMicro_M2351_BSP/1.0.0/Device/M2351/StdDriver/src/uart.c:536:32
	ldr	r0, [sp, #16]           @ 4-byte Reload
	bl	CLK_GetModuleClockDivider
	.loc	4 536 30 is_stmt 0      @ C:/Keil_v5/ARM/PACK/Nuvoton/NuMicro_M2351_BSP/1.0.0/Device/M2351/StdDriver/src/uart.c:536:30
	str	r0, [sp, #60]
	.loc	4 537 13 is_stmt 1      @ C:/Keil_v5/ARM/PACK/Nuvoton/NuMicro_M2351_BSP/1.0.0/Device/M2351/StdDriver/src/uart.c:537:13
	b	.LBB12_19
.LBB12_14:
	.loc	4 540 32                @ C:/Keil_v5/ARM/PACK/Nuvoton/NuMicro_M2351_BSP/1.0.0/Device/M2351/StdDriver/src/uart.c:540:32
	ldr	r0, __arm_cp.12_16
	str	r0, [sp, #12]           @ 4-byte Spill
	bl	CLK_GetModuleClockSource
	.loc	4 540 30 is_stmt 0      @ C:/Keil_v5/ARM/PACK/Nuvoton/NuMicro_M2351_BSP/1.0.0/Device/M2351/StdDriver/src/uart.c:540:30
	str	r0, [sp, #64]
	.loc	4 541 32 is_stmt 1      @ C:/Keil_v5/ARM/PACK/Nuvoton/NuMicro_M2351_BSP/1.0.0/Device/M2351/StdDriver/src/uart.c:541:32
	ldr	r0, [sp, #12]           @ 4-byte Reload
	bl	CLK_GetModuleClockDivider
	.loc	4 541 30 is_stmt 0      @ C:/Keil_v5/ARM/PACK/Nuvoton/NuMicro_M2351_BSP/1.0.0/Device/M2351/StdDriver/src/uart.c:541:30
	str	r0, [sp, #60]
	.loc	4 542 13 is_stmt 1      @ C:/Keil_v5/ARM/PACK/Nuvoton/NuMicro_M2351_BSP/1.0.0/Device/M2351/StdDriver/src/uart.c:542:13
	b	.LBB12_19
.LBB12_15:
	.loc	4 545 32                @ C:/Keil_v5/ARM/PACK/Nuvoton/NuMicro_M2351_BSP/1.0.0/Device/M2351/StdDriver/src/uart.c:545:32
	ldr	r0, __arm_cp.12_15
	str	r0, [sp, #8]            @ 4-byte Spill
	bl	CLK_GetModuleClockSource
	.loc	4 545 30 is_stmt 0      @ C:/Keil_v5/ARM/PACK/Nuvoton/NuMicro_M2351_BSP/1.0.0/Device/M2351/StdDriver/src/uart.c:545:30
	str	r0, [sp, #64]
	.loc	4 546 32 is_stmt 1      @ C:/Keil_v5/ARM/PACK/Nuvoton/NuMicro_M2351_BSP/1.0.0/Device/M2351/StdDriver/src/uart.c:546:32
	ldr	r0, [sp, #8]            @ 4-byte Reload
	bl	CLK_GetModuleClockDivider
	.loc	4 546 30 is_stmt 0      @ C:/Keil_v5/ARM/PACK/Nuvoton/NuMicro_M2351_BSP/1.0.0/Device/M2351/StdDriver/src/uart.c:546:30
	str	r0, [sp, #60]
	.loc	4 547 13 is_stmt 1      @ C:/Keil_v5/ARM/PACK/Nuvoton/NuMicro_M2351_BSP/1.0.0/Device/M2351/StdDriver/src/uart.c:547:13
	b	.LBB12_19
.LBB12_16:
	.loc	4 550 32                @ C:/Keil_v5/ARM/PACK/Nuvoton/NuMicro_M2351_BSP/1.0.0/Device/M2351/StdDriver/src/uart.c:550:32
	ldr	r0, __arm_cp.12_14
	str	r0, [sp, #4]            @ 4-byte Spill
	bl	CLK_GetModuleClockSource
	.loc	4 550 30 is_stmt 0      @ C:/Keil_v5/ARM/PACK/Nuvoton/NuMicro_M2351_BSP/1.0.0/Device/M2351/StdDriver/src/uart.c:550:30
	str	r0, [sp, #64]
	.loc	4 551 32 is_stmt 1      @ C:/Keil_v5/ARM/PACK/Nuvoton/NuMicro_M2351_BSP/1.0.0/Device/M2351/StdDriver/src/uart.c:551:32
	ldr	r0, [sp, #4]            @ 4-byte Reload
	bl	CLK_GetModuleClockDivider
	.loc	4 551 30 is_stmt 0      @ C:/Keil_v5/ARM/PACK/Nuvoton/NuMicro_M2351_BSP/1.0.0/Device/M2351/StdDriver/src/uart.c:551:30
	str	r0, [sp, #60]
	.loc	4 552 13 is_stmt 1      @ C:/Keil_v5/ARM/PACK/Nuvoton/NuMicro_M2351_BSP/1.0.0/Device/M2351/StdDriver/src/uart.c:552:13
	b	.LBB12_19
.LBB12_17:
	.loc	4 555 32                @ C:/Keil_v5/ARM/PACK/Nuvoton/NuMicro_M2351_BSP/1.0.0/Device/M2351/StdDriver/src/uart.c:555:32
	ldr	r0, __arm_cp.12_13
	str	r0, [sp]                @ 4-byte Spill
	bl	CLK_GetModuleClockSource
	.loc	4 555 30 is_stmt 0      @ C:/Keil_v5/ARM/PACK/Nuvoton/NuMicro_M2351_BSP/1.0.0/Device/M2351/StdDriver/src/uart.c:555:30
	str	r0, [sp, #64]
	.loc	4 556 32 is_stmt 1      @ C:/Keil_v5/ARM/PACK/Nuvoton/NuMicro_M2351_BSP/1.0.0/Device/M2351/StdDriver/src/uart.c:556:32
	ldr	r0, [sp]                @ 4-byte Reload
	bl	CLK_GetModuleClockDivider
	.loc	4 556 30 is_stmt 0      @ C:/Keil_v5/ARM/PACK/Nuvoton/NuMicro_M2351_BSP/1.0.0/Device/M2351/StdDriver/src/uart.c:556:30
	str	r0, [sp, #60]
	.loc	4 557 13 is_stmt 1      @ C:/Keil_v5/ARM/PACK/Nuvoton/NuMicro_M2351_BSP/1.0.0/Device/M2351/StdDriver/src/uart.c:557:13
	b	.LBB12_19
.LBB12_18:
	.loc	4 559 13                @ C:/Keil_v5/ARM/PACK/Nuvoton/NuMicro_M2351_BSP/1.0.0/Device/M2351/StdDriver/src/uart.c:559:13
	b	.LBB12_19
.Ltmp89:
.LBB12_19:
	.loc	4 563 8                 @ C:/Keil_v5/ARM/PACK/Nuvoton/NuMicro_M2351_BSP/1.0.0/Device/M2351/StdDriver/src/uart.c:563:8
	ldr	r0, [sp, #64]
.Ltmp90:
	.loc	4 563 8 is_stmt 0       @ C:/Keil_v5/ARM/PACK/Nuvoton/NuMicro_M2351_BSP/1.0.0/Device/M2351/StdDriver/src/uart.c:563:8
	cmp	r0, #1
	bne	.LBB12_21
	b	.LBB12_20
.LBB12_20:
.Ltmp91:
	.loc	4 565 40 is_stmt 1      @ C:/Keil_v5/ARM/PACK/Nuvoton/NuMicro_M2351_BSP/1.0.0/Device/M2351/StdDriver/src/uart.c:565:40
	bl	CLK_GetPLLClockFreq
	.loc	4 565 20 is_stmt 0      @ C:/Keil_v5/ARM/PACK/Nuvoton/NuMicro_M2351_BSP/1.0.0/Device/M2351/StdDriver/src/uart.c:565:20
	ldr	r1, [sp, #64]
	.loc	4 565 9                 @ C:/Keil_v5/ARM/PACK/Nuvoton/NuMicro_M2351_BSP/1.0.0/Device/M2351/StdDriver/src/uart.c:565:9
	lsls	r1, r1, #2
	add	r2, sp, #44
	.loc	4 565 38                @ C:/Keil_v5/ARM/PACK/Nuvoton/NuMicro_M2351_BSP/1.0.0/Device/M2351/StdDriver/src/uart.c:565:38
	str	r0, [r2, r1]
	.loc	4 566 5 is_stmt 1       @ C:/Keil_v5/ARM/PACK/Nuvoton/NuMicro_M2351_BSP/1.0.0/Device/M2351/StdDriver/src/uart.c:566:5
	b	.LBB12_21
.Ltmp92:
.LBB12_21:
	.loc	4 569 8                 @ C:/Keil_v5/ARM/PACK/Nuvoton/NuMicro_M2351_BSP/1.0.0/Device/M2351/StdDriver/src/uart.c:569:8
	ldr	r0, [sp, #72]
.Ltmp93:
	.loc	4 569 8 is_stmt 0       @ C:/Keil_v5/ARM/PACK/Nuvoton/NuMicro_M2351_BSP/1.0.0/Device/M2351/StdDriver/src/uart.c:569:8
	cmp	r0, #0
	beq	.LBB12_25
	b	.LBB12_22
.LBB12_22:
.Ltmp94:
	.loc	4 571 22 is_stmt 1      @ C:/Keil_v5/ARM/PACK/Nuvoton/NuMicro_M2351_BSP/1.0.0/Device/M2351/StdDriver/src/uart.c:571:22
	ldr	r0, [sp, #64]
	lsls	r0, r0, #2
	add	r1, sp, #44
	ldr	r0, [r1, r0]
	ldr	r1, [sp, #60]
	adds	r1, r1, #1
	udiv	r0, r0, r1
	ldr	r1, [sp, #72]
	lsls	r2, r1, #3
	adds	r0, r0, r2
	udiv	r0, r0, r1
	lsrs	r0, r0, #4
	subs	r0, r0, #2
	.loc	4 571 20 is_stmt 0      @ C:/Keil_v5/ARM/PACK/Nuvoton/NuMicro_M2351_BSP/1.0.0/Device/M2351/StdDriver/src/uart.c:571:20
	str	r0, [sp, #40]
.Ltmp95:
	.loc	4 573 12 is_stmt 1      @ C:/Keil_v5/ARM/PACK/Nuvoton/NuMicro_M2351_BSP/1.0.0/Device/M2351/StdDriver/src/uart.c:573:12
	ldr	r0, [sp, #40]
.Ltmp96:
	.loc	4 573 12 is_stmt 0      @ C:/Keil_v5/ARM/PACK/Nuvoton/NuMicro_M2351_BSP/1.0.0/Device/M2351/StdDriver/src/uart.c:573:12
	ldr	r1, __arm_cp.12_19
	cmp	r0, r1
	bhi	.LBB12_24
	b	.LBB12_23
.LBB12_23:
.Ltmp97:
	.loc	4 575 45 is_stmt 1      @ C:/Keil_v5/ARM/PACK/Nuvoton/NuMicro_M2351_BSP/1.0.0/Device/M2351/StdDriver/src/uart.c:575:45
	ldr	r0, [sp, #40]
	.loc	4 575 13 is_stmt 0      @ C:/Keil_v5/ARM/PACK/Nuvoton/NuMicro_M2351_BSP/1.0.0/Device/M2351/StdDriver/src/uart.c:575:13
	ldr	r1, [sp, #76]
	.loc	4 575 24                @ C:/Keil_v5/ARM/PACK/Nuvoton/NuMicro_M2351_BSP/1.0.0/Device/M2351/StdDriver/src/uart.c:575:24
	str	r0, [r1, #36]
	.loc	4 576 9 is_stmt 1       @ C:/Keil_v5/ARM/PACK/Nuvoton/NuMicro_M2351_BSP/1.0.0/Device/M2351/StdDriver/src/uart.c:576:9
	b	.LBB12_24
.Ltmp98:
.LBB12_24:
	.loc	4 577 5                 @ C:/Keil_v5/ARM/PACK/Nuvoton/NuMicro_M2351_BSP/1.0.0/Device/M2351/StdDriver/src/uart.c:577:5
	b	.LBB12_25
.Ltmp99:
.LBB12_25:
	.loc	4 580 8                 @ C:/Keil_v5/ARM/PACK/Nuvoton/NuMicro_M2351_BSP/1.0.0/Device/M2351/StdDriver/src/uart.c:580:8
	ldr	r0, [sp, #68]
.Ltmp100:
	.loc	4 580 8 is_stmt 0       @ C:/Keil_v5/ARM/PACK/Nuvoton/NuMicro_M2351_BSP/1.0.0/Device/M2351/StdDriver/src/uart.c:580:8
	cmp	r0, #0
	bne	.LBB12_27
	b	.LBB12_26
.LBB12_26:
.Ltmp101:
	.loc	4 582 9 is_stmt 1       @ C:/Keil_v5/ARM/PACK/Nuvoton/NuMicro_M2351_BSP/1.0.0/Device/M2351/StdDriver/src/uart.c:582:9
	ldr	r0, [sp, #76]
	.loc	4 582 20 is_stmt 0      @ C:/Keil_v5/ARM/PACK/Nuvoton/NuMicro_M2351_BSP/1.0.0/Device/M2351/StdDriver/src/uart.c:582:20
	ldr	r1, [r0, #40]
	movs	r2, #64
	orrs	r1, r2
	str	r1, [r0, #40]
	.loc	4 583 9 is_stmt 1       @ C:/Keil_v5/ARM/PACK/Nuvoton/NuMicro_M2351_BSP/1.0.0/Device/M2351/StdDriver/src/uart.c:583:9
	ldr	r0, [sp, #76]
	.loc	4 583 20 is_stmt 0      @ C:/Keil_v5/ARM/PACK/Nuvoton/NuMicro_M2351_BSP/1.0.0/Device/M2351/StdDriver/src/uart.c:583:20
	ldr	r1, [r0, #40]
	movs	r2, #2
	bics	r1, r2
	str	r1, [r0, #40]
	.loc	4 584 5 is_stmt 1       @ C:/Keil_v5/ARM/PACK/Nuvoton/NuMicro_M2351_BSP/1.0.0/Device/M2351/StdDriver/src/uart.c:584:5
	b	.LBB12_28
.Ltmp102:
.LBB12_27:
	.loc	4 587 9                 @ C:/Keil_v5/ARM/PACK/Nuvoton/NuMicro_M2351_BSP/1.0.0/Device/M2351/StdDriver/src/uart.c:587:9
	ldr	r0, [sp, #76]
	.loc	4 587 20 is_stmt 0      @ C:/Keil_v5/ARM/PACK/Nuvoton/NuMicro_M2351_BSP/1.0.0/Device/M2351/StdDriver/src/uart.c:587:20
	ldr	r1, [r0, #40]
	movs	r2, #32
	bics	r1, r2
	str	r1, [r0, #40]
	.loc	4 588 9 is_stmt 1       @ C:/Keil_v5/ARM/PACK/Nuvoton/NuMicro_M2351_BSP/1.0.0/Device/M2351/StdDriver/src/uart.c:588:9
	ldr	r0, [sp, #76]
	.loc	4 588 20 is_stmt 0      @ C:/Keil_v5/ARM/PACK/Nuvoton/NuMicro_M2351_BSP/1.0.0/Device/M2351/StdDriver/src/uart.c:588:20
	ldr	r1, [r0, #40]
	movs	r2, #2
	orrs	r1, r2
	str	r1, [r0, #40]
	b	.LBB12_28
.Ltmp103:
.LBB12_28:
	.loc	4 591 1 is_stmt 1       @ C:/Keil_v5/ARM/PACK/Nuvoton/NuMicro_M2351_BSP/1.0.0/Device/M2351/StdDriver/src/uart.c:591:1
	add	sp, #80
	pop	{r4, r5, r7, pc}
.Ltmp104:
	.p2align	2
@ %bb.29:
	.loc	4 0 1 is_stmt 0         @ C:/Keil_v5/ARM/PACK/Nuvoton/NuMicro_M2351_BSP/1.0.0/Device/M2351/StdDriver/src/uart.c:0:1
__arm_cp.12_0:
	.long	.LUART_SelectIrDAMode.au32ClkTbl
.Lcpi_end69:
	.size	__arm_cp.12_0, .Lcpi_end69-__arm_cp.12_0
__arm_cp.12_1:
	.long	1074200576              @ 0x40070000
.Lcpi_end70:
	.size	__arm_cp.12_1, .Lcpi_end70-__arm_cp.12_1
__arm_cp.12_2:
	.long	1074204672              @ 0x40071000
.Lcpi_end71:
	.size	__arm_cp.12_2, .Lcpi_end71-__arm_cp.12_2
__arm_cp.12_3:
	.long	1074208768              @ 0x40072000
.Lcpi_end72:
	.size	__arm_cp.12_3, .Lcpi_end72-__arm_cp.12_3
__arm_cp.12_4:
	.long	1074212864              @ 0x40073000
.Lcpi_end73:
	.size	__arm_cp.12_4, .Lcpi_end73-__arm_cp.12_4
__arm_cp.12_5:
	.long	1074216960              @ 0x40074000
.Lcpi_end74:
	.size	__arm_cp.12_5, .Lcpi_end74-__arm_cp.12_5
__arm_cp.12_6:
	.long	1074221056              @ 0x40075000
.Lcpi_end75:
	.size	__arm_cp.12_6, .Lcpi_end75-__arm_cp.12_6
__arm_cp.12_7:
	.long	1342636032              @ 0x50070000
.Lcpi_end76:
	.size	__arm_cp.12_7, .Lcpi_end76-__arm_cp.12_7
__arm_cp.12_8:
	.long	1342640128              @ 0x50071000
.Lcpi_end77:
	.size	__arm_cp.12_8, .Lcpi_end77-__arm_cp.12_8
__arm_cp.12_9:
	.long	1342644224              @ 0x50072000
.Lcpi_end78:
	.size	__arm_cp.12_9, .Lcpi_end78-__arm_cp.12_9
__arm_cp.12_10:
	.long	1342648320              @ 0x50073000
.Lcpi_end79:
	.size	__arm_cp.12_10, .Lcpi_end79-__arm_cp.12_10
__arm_cp.12_11:
	.long	1342652416              @ 0x50074000
.Lcpi_end80:
	.size	__arm_cp.12_11, .Lcpi_end80-__arm_cp.12_11
__arm_cp.12_12:
	.long	1342656512              @ 0x50075000
.Lcpi_end81:
	.size	__arm_cp.12_12, .Lcpi_end81-__arm_cp.12_12
__arm_cp.12_13:
	.long	2011970965              @ 0x77ec3d95
.Lcpi_end82:
	.size	__arm_cp.12_13, .Lcpi_end82-__arm_cp.12_13
__arm_cp.12_14:
	.long	2009873684              @ 0x77cc3d14
.Lcpi_end83:
	.size	__arm_cp.12_14, .Lcpi_end83-__arm_cp.12_14
__arm_cp.12_15:
	.long	2007776403              @ 0x77ac3c93
.Lcpi_end84:
	.size	__arm_cp.12_15, .Lcpi_end84-__arm_cp.12_15
__arm_cp.12_16:
	.long	2005679122              @ 0x778c3c12
.Lcpi_end85:
	.size	__arm_cp.12_16, .Lcpi_end85-__arm_cp.12_16
__arm_cp.12_17:
	.long	1470119313              @ 0x57a03d91
.Lcpi_end86:
	.size	__arm_cp.12_17, .Lcpi_end86-__arm_cp.12_17
__arm_cp.12_18:
	.long	1468022032              @ 0x57803d10
.Lcpi_end87:
	.size	__arm_cp.12_18, .Lcpi_end87-__arm_cp.12_18
__arm_cp.12_19:
	.long	65534                   @ 0xfffe
.Lcpi_end88:
	.size	__arm_cp.12_19, .Lcpi_end88-__arm_cp.12_19
.Lfunc_end12:
	.size	UART_SelectIrDAMode, .Lfunc_end12-UART_SelectIrDAMode
	.cfi_endproc
	.cantunwind
	.fnend
                                        @ -- End function
	.section	.text.UART_SelectRS485Mode,"ax",%progbits
	.hidden	UART_SelectRS485Mode    @ -- Begin function UART_SelectRS485Mode
	.globl	UART_SelectRS485Mode
	.p2align	2
	.type	UART_SelectRS485Mode,%function
	.code	16                      @ @UART_SelectRS485Mode
	.thumb_func
UART_SelectRS485Mode:
.Lfunc_begin13:
	.loc	4 609 0 is_stmt 1       @ C:/Keil_v5/ARM/PACK/Nuvoton/NuMicro_M2351_BSP/1.0.0/Device/M2351/StdDriver/src/uart.c:609:0
	.fnstart
	.cfi_startproc
@ %bb.0:
	.save	{r4, r5, r7, lr}
	push	{r4, r5, r7, lr}
	.cfi_def_cfa_offset 16
	.cfi_offset lr, -4
	.cfi_offset r7, -8
	.cfi_offset r5, -12
	.cfi_offset r4, -16
	.pad	#24
	sub	sp, #24
	.cfi_def_cfa_offset 40
	mov	r3, r2
	mov	r4, r1
	mov	r5, r0
	str	r0, [sp, #20]
	str	r1, [sp, #16]
	str	r2, [sp, #12]
.Ltmp105:
	.loc	4 611 5 prologue_end    @ C:/Keil_v5/ARM/PACK/Nuvoton/NuMicro_M2351_BSP/1.0.0/Device/M2351/StdDriver/src/uart.c:611:5
	ldr	r0, [sp, #20]
	.loc	4 611 19 is_stmt 0      @ C:/Keil_v5/ARM/PACK/Nuvoton/NuMicro_M2351_BSP/1.0.0/Device/M2351/StdDriver/src/uart.c:611:19
	movs	r1, #3
	str	r1, [r0, #48]
	.loc	4 614 5 is_stmt 1       @ C:/Keil_v5/ARM/PACK/Nuvoton/NuMicro_M2351_BSP/1.0.0/Device/M2351/StdDriver/src/uart.c:614:5
	ldr	r0, [sp, #20]
	.loc	4 614 18 is_stmt 0      @ C:/Keil_v5/ARM/PACK/Nuvoton/NuMicro_M2351_BSP/1.0.0/Device/M2351/StdDriver/src/uart.c:614:18
	ldr	r1, [r0, #44]
	ldr	r2, __arm_cp.13_0
	ands	r1, r2
	str	r1, [r0, #44]
	.loc	4 615 22 is_stmt 1      @ C:/Keil_v5/ARM/PACK/Nuvoton/NuMicro_M2351_BSP/1.0.0/Device/M2351/StdDriver/src/uart.c:615:22
	ldr	r0, [sp, #16]
	.loc	4 615 33 is_stmt 0      @ C:/Keil_v5/ARM/PACK/Nuvoton/NuMicro_M2351_BSP/1.0.0/Device/M2351/StdDriver/src/uart.c:615:33
	ldr	r1, [sp, #12]
	.loc	4 615 41                @ C:/Keil_v5/ARM/PACK/Nuvoton/NuMicro_M2351_BSP/1.0.0/Device/M2351/StdDriver/src/uart.c:615:41
	lsls	r1, r1, #24
	.loc	4 615 30                @ C:/Keil_v5/ARM/PACK/Nuvoton/NuMicro_M2351_BSP/1.0.0/Device/M2351/StdDriver/src/uart.c:615:30
	orrs	r0, r1
	.loc	4 615 5                 @ C:/Keil_v5/ARM/PACK/Nuvoton/NuMicro_M2351_BSP/1.0.0/Device/M2351/StdDriver/src/uart.c:615:5
	ldr	r1, [sp, #20]
	.loc	4 615 18                @ C:/Keil_v5/ARM/PACK/Nuvoton/NuMicro_M2351_BSP/1.0.0/Device/M2351/StdDriver/src/uart.c:615:18
	ldr	r2, [r1, #44]
	orrs	r2, r0
	str	r2, [r1, #44]
	.loc	4 616 1 is_stmt 1       @ C:/Keil_v5/ARM/PACK/Nuvoton/NuMicro_M2351_BSP/1.0.0/Device/M2351/StdDriver/src/uart.c:616:1
	str	r3, [sp, #8]            @ 4-byte Spill
	str	r4, [sp, #4]            @ 4-byte Spill
	str	r5, [sp]                @ 4-byte Spill
	add	sp, #24
	pop	{r4, r5, r7, pc}
.Ltmp106:
	.p2align	2
@ %bb.1:
	.loc	4 0 1 is_stmt 0         @ C:/Keil_v5/ARM/PACK/Nuvoton/NuMicro_M2351_BSP/1.0.0/Device/M2351/StdDriver/src/uart.c:0:1
__arm_cp.13_0:
	.long	16775423                @ 0xfff8ff
.Lcpi_end89:
	.size	__arm_cp.13_0, .Lcpi_end89-__arm_cp.13_0
.Lfunc_end13:
	.size	UART_SelectRS485Mode, .Lfunc_end13-UART_SelectRS485Mode
	.cfi_endproc
	.cantunwind
	.fnend
                                        @ -- End function
	.section	.text.UART_SelectLINMode,"ax",%progbits
	.hidden	UART_SelectLINMode      @ -- Begin function UART_SelectLINMode
	.globl	UART_SelectLINMode
	.p2align	1
	.type	UART_SelectLINMode,%function
	.code	16                      @ @UART_SelectLINMode
	.thumb_func
UART_SelectLINMode:
.Lfunc_begin14:
	.loc	4 633 0 is_stmt 1       @ C:/Keil_v5/ARM/PACK/Nuvoton/NuMicro_M2351_BSP/1.0.0/Device/M2351/StdDriver/src/uart.c:633:0
	.fnstart
	.cfi_startproc
@ %bb.0:
	.save	{r4, r5, r7, lr}
	push	{r4, r5, r7, lr}
	.cfi_def_cfa_offset 16
	.cfi_offset lr, -4
	.cfi_offset r7, -8
	.cfi_offset r5, -12
	.cfi_offset r4, -16
	.pad	#24
	sub	sp, #24
	.cfi_def_cfa_offset 40
	mov	r3, r2
	mov	r4, r1
	mov	r5, r0
	str	r0, [sp, #20]
	str	r1, [sp, #16]
	str	r2, [sp, #12]
.Ltmp107:
	.loc	4 635 5 prologue_end    @ C:/Keil_v5/ARM/PACK/Nuvoton/NuMicro_M2351_BSP/1.0.0/Device/M2351/StdDriver/src/uart.c:635:5
	ldr	r0, [sp, #20]
	.loc	4 635 19 is_stmt 0      @ C:/Keil_v5/ARM/PACK/Nuvoton/NuMicro_M2351_BSP/1.0.0/Device/M2351/StdDriver/src/uart.c:635:19
	movs	r1, #1
	str	r1, [r0, #48]
	.loc	4 638 5 is_stmt 1       @ C:/Keil_v5/ARM/PACK/Nuvoton/NuMicro_M2351_BSP/1.0.0/Device/M2351/StdDriver/src/uart.c:638:5
	ldr	r0, [sp, #20]
	.loc	4 638 18 is_stmt 0      @ C:/Keil_v5/ARM/PACK/Nuvoton/NuMicro_M2351_BSP/1.0.0/Device/M2351/StdDriver/src/uart.c:638:18
	ldr	r1, [r0, #44]
	movs	r2, #207
	bics	r1, r2
	str	r1, [r0, #44]
	.loc	4 639 22 is_stmt 1      @ C:/Keil_v5/ARM/PACK/Nuvoton/NuMicro_M2351_BSP/1.0.0/Device/M2351/StdDriver/src/uart.c:639:22
	ldr	r0, [sp, #16]
	.loc	4 639 33 is_stmt 0      @ C:/Keil_v5/ARM/PACK/Nuvoton/NuMicro_M2351_BSP/1.0.0/Device/M2351/StdDriver/src/uart.c:639:33
	ldr	r1, [sp, #12]
	.loc	4 639 30                @ C:/Keil_v5/ARM/PACK/Nuvoton/NuMicro_M2351_BSP/1.0.0/Device/M2351/StdDriver/src/uart.c:639:30
	orrs	r0, r1
	.loc	4 639 5                 @ C:/Keil_v5/ARM/PACK/Nuvoton/NuMicro_M2351_BSP/1.0.0/Device/M2351/StdDriver/src/uart.c:639:5
	ldr	r1, [sp, #20]
	.loc	4 639 18                @ C:/Keil_v5/ARM/PACK/Nuvoton/NuMicro_M2351_BSP/1.0.0/Device/M2351/StdDriver/src/uart.c:639:18
	ldr	r2, [r1, #44]
	orrs	r2, r0
	str	r2, [r1, #44]
	.loc	4 640 1 is_stmt 1       @ C:/Keil_v5/ARM/PACK/Nuvoton/NuMicro_M2351_BSP/1.0.0/Device/M2351/StdDriver/src/uart.c:640:1
	str	r3, [sp, #8]            @ 4-byte Spill
	str	r4, [sp, #4]            @ 4-byte Spill
	str	r5, [sp]                @ 4-byte Spill
	add	sp, #24
	pop	{r4, r5, r7, pc}
.Ltmp108:
.Lfunc_end14:
	.size	UART_SelectLINMode, .Lfunc_end14-UART_SelectLINMode
	.cfi_endproc
	.cantunwind
	.fnend
                                        @ -- End function
	.section	.text.UART_Write,"ax",%progbits
	.hidden	UART_Write              @ -- Begin function UART_Write
	.globl	UART_Write
	.p2align	1
	.type	UART_Write,%function
	.code	16                      @ @UART_Write
	.thumb_func
UART_Write:
.Lfunc_begin15:
	.loc	4 655 0                 @ C:/Keil_v5/ARM/PACK/Nuvoton/NuMicro_M2351_BSP/1.0.0/Device/M2351/StdDriver/src/uart.c:655:0
	.fnstart
	.cfi_startproc
@ %bb.0:
	.save	{r4, r5, r7, lr}
	push	{r4, r5, r7, lr}
	.cfi_def_cfa_offset 16
	.cfi_offset lr, -4
	.cfi_offset r7, -8
	.cfi_offset r5, -12
	.cfi_offset r4, -16
	.pad	#36
	sub	sp, #36
	.cfi_def_cfa_offset 52
	mov	r3, r2
	mov	r4, r1
	mov	r5, r0
	str	r0, [sp, #32]
	str	r1, [sp, #28]
	str	r2, [sp, #24]
	movs	r0, #0
.Ltmp109:
	.loc	4 657 15 prologue_end   @ C:/Keil_v5/ARM/PACK/Nuvoton/NuMicro_M2351_BSP/1.0.0/Device/M2351/StdDriver/src/uart.c:657:15
	str	r0, [sp, #12]
.Ltmp110:
	.loc	4 659 18                @ C:/Keil_v5/ARM/PACK/Nuvoton/NuMicro_M2351_BSP/1.0.0/Device/M2351/StdDriver/src/uart.c:659:18
	str	r0, [sp, #20]
	.loc	4 659 9 is_stmt 0       @ C:/Keil_v5/ARM/PACK/Nuvoton/NuMicro_M2351_BSP/1.0.0/Device/M2351/StdDriver/src/uart.c:659:9
	str	r3, [sp, #8]            @ 4-byte Spill
	str	r4, [sp, #4]            @ 4-byte Spill
	str	r5, [sp]                @ 4-byte Spill
	b	.LBB15_1
.LBB15_1:                               @ =>This Loop Header: Depth=1
                                        @     Child Loop BB15_3 Depth 2
.Ltmp111:
	.loc	4 659 25                @ C:/Keil_v5/ARM/PACK/Nuvoton/NuMicro_M2351_BSP/1.0.0/Device/M2351/StdDriver/src/uart.c:659:25
	ldr	r0, [sp, #20]
	.loc	4 659 37                @ C:/Keil_v5/ARM/PACK/Nuvoton/NuMicro_M2351_BSP/1.0.0/Device/M2351/StdDriver/src/uart.c:659:37
	ldr	r1, [sp, #24]
.Ltmp112:
	.loc	4 659 5                 @ C:/Keil_v5/ARM/PACK/Nuvoton/NuMicro_M2351_BSP/1.0.0/Device/M2351/StdDriver/src/uart.c:659:5
	cmp	r0, r1
	beq	.LBB15_13
	b	.LBB15_2
.LBB15_2:                               @   in Loop: Header=BB15_1 Depth=1
.Ltmp113:
	.loc	4 661 20 is_stmt 1      @ C:/Keil_v5/ARM/PACK/Nuvoton/NuMicro_M2351_BSP/1.0.0/Device/M2351/StdDriver/src/uart.c:661:20
	movs	r0, #0
	str	r0, [sp, #16]
	.loc	4 662 9                 @ C:/Keil_v5/ARM/PACK/Nuvoton/NuMicro_M2351_BSP/1.0.0/Device/M2351/StdDriver/src/uart.c:662:9
	b	.LBB15_3
.LBB15_3:                               @   Parent Loop BB15_1 Depth=1
                                        @ =>  This Inner Loop Header: Depth=2
	.loc	4 662 16 is_stmt 0      @ C:/Keil_v5/ARM/PACK/Nuvoton/NuMicro_M2351_BSP/1.0.0/Device/M2351/StdDriver/src/uart.c:662:16
	ldr	r0, [sp, #32]
	.loc	4 662 22                @ C:/Keil_v5/ARM/PACK/Nuvoton/NuMicro_M2351_BSP/1.0.0/Device/M2351/StdDriver/src/uart.c:662:22
	ldr	r0, [r0, #24]
	.loc	4 662 30                @ C:/Keil_v5/ARM/PACK/Nuvoton/NuMicro_M2351_BSP/1.0.0/Device/M2351/StdDriver/src/uart.c:662:30
	movs	r1, #1
	lsls	r1, r1, #28
	.loc	4 662 9                 @ C:/Keil_v5/ARM/PACK/Nuvoton/NuMicro_M2351_BSP/1.0.0/Device/M2351/StdDriver/src/uart.c:662:9
	tst	r0, r1
	bne	.LBB15_8
	b	.LBB15_4
.LBB15_4:                               @   in Loop: Header=BB15_3 Depth=2
.Ltmp114:
	.loc	4 664 23 is_stmt 1      @ C:/Keil_v5/ARM/PACK/Nuvoton/NuMicro_M2351_BSP/1.0.0/Device/M2351/StdDriver/src/uart.c:664:23
	ldr	r0, [sp, #16]
	adds	r0, r0, #1
	str	r0, [sp, #16]
.Ltmp115:
	.loc	4 665 16                @ C:/Keil_v5/ARM/PACK/Nuvoton/NuMicro_M2351_BSP/1.0.0/Device/M2351/StdDriver/src/uart.c:665:16
	ldr	r0, [sp, #16]
.Ltmp116:
	.loc	4 665 16 is_stmt 0      @ C:/Keil_v5/ARM/PACK/Nuvoton/NuMicro_M2351_BSP/1.0.0/Device/M2351/StdDriver/src/uart.c:665:16
	lsrs	r0, r0, #30
	cmp	r0, #0
	beq	.LBB15_6
	b	.LBB15_5
.LBB15_5:                               @   in Loop: Header=BB15_1 Depth=1
.Ltmp117:
	.loc	4 667 25 is_stmt 1      @ C:/Keil_v5/ARM/PACK/Nuvoton/NuMicro_M2351_BSP/1.0.0/Device/M2351/StdDriver/src/uart.c:667:25
	movs	r0, #1
	str	r0, [sp, #12]
	.loc	4 668 17                @ C:/Keil_v5/ARM/PACK/Nuvoton/NuMicro_M2351_BSP/1.0.0/Device/M2351/StdDriver/src/uart.c:668:17
	b	.LBB15_8
.Ltmp118:
.LBB15_6:                               @   in Loop: Header=BB15_3 Depth=2
	.loc	4 0 17 is_stmt 0        @ C:/Keil_v5/ARM/PACK/Nuvoton/NuMicro_M2351_BSP/1.0.0/Device/M2351/StdDriver/src/uart.c:0:17
	b	.LBB15_7
.LBB15_7:                               @   in Loop: Header=BB15_3 Depth=2
	.loc	4 662 9 is_stmt 1       @ C:/Keil_v5/ARM/PACK/Nuvoton/NuMicro_M2351_BSP/1.0.0/Device/M2351/StdDriver/src/uart.c:662:9
	b	.LBB15_3
.LBB15_8:                               @   in Loop: Header=BB15_1 Depth=1
.Ltmp119:
	.loc	4 675 12                @ C:/Keil_v5/ARM/PACK/Nuvoton/NuMicro_M2351_BSP/1.0.0/Device/M2351/StdDriver/src/uart.c:675:12
	ldr	r0, [sp, #12]
.Ltmp120:
	.loc	4 675 12 is_stmt 0      @ C:/Keil_v5/ARM/PACK/Nuvoton/NuMicro_M2351_BSP/1.0.0/Device/M2351/StdDriver/src/uart.c:675:12
	cmp	r0, #1
	bne	.LBB15_10
	b	.LBB15_9
.LBB15_9:
.Ltmp121:
	.loc	4 677 13 is_stmt 1      @ C:/Keil_v5/ARM/PACK/Nuvoton/NuMicro_M2351_BSP/1.0.0/Device/M2351/StdDriver/src/uart.c:677:13
	b	.LBB15_13
.Ltmp122:
.LBB15_10:                              @   in Loop: Header=BB15_1 Depth=1
	.loc	4 681 25                @ C:/Keil_v5/ARM/PACK/Nuvoton/NuMicro_M2351_BSP/1.0.0/Device/M2351/StdDriver/src/uart.c:681:25
	ldr	r0, [sp, #28]
	.loc	4 681 34 is_stmt 0      @ C:/Keil_v5/ARM/PACK/Nuvoton/NuMicro_M2351_BSP/1.0.0/Device/M2351/StdDriver/src/uart.c:681:34
	ldr	r1, [sp, #20]
	.loc	4 681 25                @ C:/Keil_v5/ARM/PACK/Nuvoton/NuMicro_M2351_BSP/1.0.0/Device/M2351/StdDriver/src/uart.c:681:25
	ldrb	r0, [r0, r1]
	.loc	4 681 13                @ C:/Keil_v5/ARM/PACK/Nuvoton/NuMicro_M2351_BSP/1.0.0/Device/M2351/StdDriver/src/uart.c:681:13
	ldr	r1, [sp, #32]
	.loc	4 681 23                @ C:/Keil_v5/ARM/PACK/Nuvoton/NuMicro_M2351_BSP/1.0.0/Device/M2351/StdDriver/src/uart.c:681:23
	str	r0, [r1]
	b	.LBB15_11
.Ltmp123:
.LBB15_11:                              @   in Loop: Header=BB15_1 Depth=1
	.loc	4 683 5 is_stmt 1       @ C:/Keil_v5/ARM/PACK/Nuvoton/NuMicro_M2351_BSP/1.0.0/Device/M2351/StdDriver/src/uart.c:683:5
	b	.LBB15_12
.Ltmp124:
.LBB15_12:                              @   in Loop: Header=BB15_1 Depth=1
	.loc	4 659 60                @ C:/Keil_v5/ARM/PACK/Nuvoton/NuMicro_M2351_BSP/1.0.0/Device/M2351/StdDriver/src/uart.c:659:60
	ldr	r0, [sp, #20]
	adds	r0, r0, #1
	str	r0, [sp, #20]
	.loc	4 659 5 is_stmt 0       @ C:/Keil_v5/ARM/PACK/Nuvoton/NuMicro_M2351_BSP/1.0.0/Device/M2351/StdDriver/src/uart.c:659:5
	b	.LBB15_1
.Ltmp125:
.LBB15_13:
	.loc	4 685 12 is_stmt 1      @ C:/Keil_v5/ARM/PACK/Nuvoton/NuMicro_M2351_BSP/1.0.0/Device/M2351/StdDriver/src/uart.c:685:12
	ldr	r0, [sp, #20]
	.loc	4 685 5 is_stmt 0       @ C:/Keil_v5/ARM/PACK/Nuvoton/NuMicro_M2351_BSP/1.0.0/Device/M2351/StdDriver/src/uart.c:685:5
	add	sp, #36
	pop	{r4, r5, r7, pc}
.Ltmp126:
.Lfunc_end15:
	.size	UART_Write, .Lfunc_end15-UART_Write
	.cfi_endproc
	.cantunwind
	.fnend
                                        @ -- End function
	.type	.LUART_Open.au32ClkTbl,%object @ @UART_Open.au32ClkTbl
	.section	.rodata.cst16,"aM",%progbits,16
	.p2align	2
.LUART_Open.au32ClkTbl:
	.long	12000000                @ 0xb71b00
	.long	0                       @ 0x0
	.long	32768                   @ 0x8000
	.long	12000000                @ 0xb71b00
	.size	.LUART_Open.au32ClkTbl, 16

	.type	.LUART_SetLineConfig.au32ClkTbl,%object @ @UART_SetLineConfig.au32ClkTbl
	.p2align	2
.LUART_SetLineConfig.au32ClkTbl:
	.long	12000000                @ 0xb71b00
	.long	0                       @ 0x0
	.long	32768                   @ 0x8000
	.long	12000000                @ 0xb71b00
	.size	.LUART_SetLineConfig.au32ClkTbl, 16

	.type	.LUART_SelectIrDAMode.au32ClkTbl,%object @ @UART_SelectIrDAMode.au32ClkTbl
	.p2align	2
.LUART_SelectIrDAMode.au32ClkTbl:
	.long	12000000                @ 0xb71b00
	.long	0                       @ 0x0
	.long	32768                   @ 0x8000
	.long	12000000                @ 0xb71b00
	.size	.LUART_SelectIrDAMode.au32ClkTbl, 16

	.file	5 "../../../../../Library/Device/Nuvoton/M2351/Include" "uart_reg.h"
	.section	".note.GNU-stack","",%progbits
	.eabi_attribute	30, 6	@ Tag_ABI_optimization_goals
	.ARM_attribute	16, 1	@ Tag_AV_eba